; Listing generated by Microsoft (R) Optimizing Compiler Version 16.00.40219.01 

include listing.inc

INCLUDELIB LIBCMTD
INCLUDELIB OLDNAMES

PUBLIC	?has_denorm@_Num_base@std@@2W4float_denorm_style@2@B ; std::_Num_base::has_denorm
PUBLIC	?has_denorm_loss@_Num_base@std@@2_NB		; std::_Num_base::has_denorm_loss
PUBLIC	?has_infinity@_Num_base@std@@2_NB		; std::_Num_base::has_infinity
PUBLIC	?has_quiet_NaN@_Num_base@std@@2_NB		; std::_Num_base::has_quiet_NaN
PUBLIC	?has_signaling_NaN@_Num_base@std@@2_NB		; std::_Num_base::has_signaling_NaN
PUBLIC	?is_bounded@_Num_base@std@@2_NB			; std::_Num_base::is_bounded
PUBLIC	?is_exact@_Num_base@std@@2_NB			; std::_Num_base::is_exact
PUBLIC	?is_iec559@_Num_base@std@@2_NB			; std::_Num_base::is_iec559
PUBLIC	?is_integer@_Num_base@std@@2_NB			; std::_Num_base::is_integer
PUBLIC	?is_modulo@_Num_base@std@@2_NB			; std::_Num_base::is_modulo
PUBLIC	?is_signed@_Num_base@std@@2_NB			; std::_Num_base::is_signed
PUBLIC	?is_specialized@_Num_base@std@@2_NB		; std::_Num_base::is_specialized
PUBLIC	?tinyness_before@_Num_base@std@@2_NB		; std::_Num_base::tinyness_before
PUBLIC	?traps@_Num_base@std@@2_NB			; std::_Num_base::traps
PUBLIC	?round_style@_Num_base@std@@2W4float_round_style@2@B ; std::_Num_base::round_style
PUBLIC	?digits@_Num_base@std@@2HB			; std::_Num_base::digits
PUBLIC	?digits10@_Num_base@std@@2HB			; std::_Num_base::digits10
PUBLIC	?max_digits10@_Num_base@std@@2HB		; std::_Num_base::max_digits10
PUBLIC	?max_exponent@_Num_base@std@@2HB		; std::_Num_base::max_exponent
PUBLIC	?max_exponent10@_Num_base@std@@2HB		; std::_Num_base::max_exponent10
PUBLIC	?min_exponent@_Num_base@std@@2HB		; std::_Num_base::min_exponent
PUBLIC	?min_exponent10@_Num_base@std@@2HB		; std::_Num_base::min_exponent10
PUBLIC	?radix@_Num_base@std@@2HB			; std::_Num_base::radix
PUBLIC	?is_bounded@_Num_int_base@std@@2_NB		; std::_Num_int_base::is_bounded
PUBLIC	?is_exact@_Num_int_base@std@@2_NB		; std::_Num_int_base::is_exact
PUBLIC	?is_integer@_Num_int_base@std@@2_NB		; std::_Num_int_base::is_integer
PUBLIC	?is_modulo@_Num_int_base@std@@2_NB		; std::_Num_int_base::is_modulo
PUBLIC	?is_specialized@_Num_int_base@std@@2_NB		; std::_Num_int_base::is_specialized
PUBLIC	?radix@_Num_int_base@std@@2HB			; std::_Num_int_base::radix
PUBLIC	?has_denorm@_Num_float_base@std@@2W4float_denorm_style@2@B ; std::_Num_float_base::has_denorm
PUBLIC	?has_denorm_loss@_Num_float_base@std@@2_NB	; std::_Num_float_base::has_denorm_loss
PUBLIC	?has_infinity@_Num_float_base@std@@2_NB		; std::_Num_float_base::has_infinity
PUBLIC	?has_quiet_NaN@_Num_float_base@std@@2_NB	; std::_Num_float_base::has_quiet_NaN
PUBLIC	?has_signaling_NaN@_Num_float_base@std@@2_NB	; std::_Num_float_base::has_signaling_NaN
PUBLIC	?is_bounded@_Num_float_base@std@@2_NB		; std::_Num_float_base::is_bounded
PUBLIC	?is_exact@_Num_float_base@std@@2_NB		; std::_Num_float_base::is_exact
PUBLIC	?is_iec559@_Num_float_base@std@@2_NB		; std::_Num_float_base::is_iec559
PUBLIC	?is_integer@_Num_float_base@std@@2_NB		; std::_Num_float_base::is_integer
PUBLIC	?is_modulo@_Num_float_base@std@@2_NB		; std::_Num_float_base::is_modulo
PUBLIC	?is_signed@_Num_float_base@std@@2_NB		; std::_Num_float_base::is_signed
PUBLIC	?is_specialized@_Num_float_base@std@@2_NB	; std::_Num_float_base::is_specialized
PUBLIC	?tinyness_before@_Num_float_base@std@@2_NB	; std::_Num_float_base::tinyness_before
PUBLIC	?traps@_Num_float_base@std@@2_NB		; std::_Num_float_base::traps
PUBLIC	?round_style@_Num_float_base@std@@2W4float_round_style@2@B ; std::_Num_float_base::round_style
PUBLIC	?radix@_Num_float_base@std@@2HB			; std::_Num_float_base::radix
PUBLIC	?is_signed@?$numeric_limits@D@std@@2_NB		; std::numeric_limits<char>::is_signed
PUBLIC	?digits@?$numeric_limits@D@std@@2HB		; std::numeric_limits<char>::digits
PUBLIC	?digits10@?$numeric_limits@D@std@@2HB		; std::numeric_limits<char>::digits10
PUBLIC	?max_digits10@?$numeric_limits@D@std@@2HB	; std::numeric_limits<char>::max_digits10
PUBLIC	?is_signed@?$numeric_limits@_W@std@@2_NB	; std::numeric_limits<wchar_t>::is_signed
PUBLIC	?digits@?$numeric_limits@_W@std@@2HB		; std::numeric_limits<wchar_t>::digits
PUBLIC	?digits10@?$numeric_limits@_W@std@@2HB		; std::numeric_limits<wchar_t>::digits10
PUBLIC	?max_digits10@?$numeric_limits@_W@std@@2HB	; std::numeric_limits<wchar_t>::max_digits10
PUBLIC	?is_modulo@?$numeric_limits@_N@std@@2_NB	; std::numeric_limits<bool>::is_modulo
PUBLIC	?is_signed@?$numeric_limits@_N@std@@2_NB	; std::numeric_limits<bool>::is_signed
PUBLIC	?digits@?$numeric_limits@_N@std@@2HB		; std::numeric_limits<bool>::digits
PUBLIC	?digits10@?$numeric_limits@_N@std@@2HB		; std::numeric_limits<bool>::digits10
PUBLIC	?max_digits10@?$numeric_limits@_N@std@@2HB	; std::numeric_limits<bool>::max_digits10
PUBLIC	?is_signed@?$numeric_limits@C@std@@2_NB		; std::numeric_limits<signed char>::is_signed
PUBLIC	?digits@?$numeric_limits@C@std@@2HB		; std::numeric_limits<signed char>::digits
PUBLIC	?digits10@?$numeric_limits@C@std@@2HB		; std::numeric_limits<signed char>::digits10
PUBLIC	?max_digits10@?$numeric_limits@C@std@@2HB	; std::numeric_limits<signed char>::max_digits10
PUBLIC	?is_signed@?$numeric_limits@E@std@@2_NB		; std::numeric_limits<unsigned char>::is_signed
PUBLIC	?digits@?$numeric_limits@E@std@@2HB		; std::numeric_limits<unsigned char>::digits
PUBLIC	?digits10@?$numeric_limits@E@std@@2HB		; std::numeric_limits<unsigned char>::digits10
PUBLIC	?max_digits10@?$numeric_limits@E@std@@2HB	; std::numeric_limits<unsigned char>::max_digits10
PUBLIC	?is_signed@?$numeric_limits@F@std@@2_NB		; std::numeric_limits<short>::is_signed
PUBLIC	?digits@?$numeric_limits@F@std@@2HB		; std::numeric_limits<short>::digits
PUBLIC	?digits10@?$numeric_limits@F@std@@2HB		; std::numeric_limits<short>::digits10
PUBLIC	?max_digits10@?$numeric_limits@F@std@@2HB	; std::numeric_limits<short>::max_digits10
PUBLIC	?is_signed@?$numeric_limits@G@std@@2_NB		; std::numeric_limits<unsigned short>::is_signed
PUBLIC	?digits@?$numeric_limits@G@std@@2HB		; std::numeric_limits<unsigned short>::digits
PUBLIC	?digits10@?$numeric_limits@G@std@@2HB		; std::numeric_limits<unsigned short>::digits10
PUBLIC	?max_digits10@?$numeric_limits@G@std@@2HB	; std::numeric_limits<unsigned short>::max_digits10
PUBLIC	?is_signed@?$numeric_limits@H@std@@2_NB		; std::numeric_limits<int>::is_signed
PUBLIC	?digits@?$numeric_limits@H@std@@2HB		; std::numeric_limits<int>::digits
PUBLIC	?digits10@?$numeric_limits@H@std@@2HB		; std::numeric_limits<int>::digits10
PUBLIC	?max_digits10@?$numeric_limits@H@std@@2HB	; std::numeric_limits<int>::max_digits10
PUBLIC	?is_signed@?$numeric_limits@I@std@@2_NB		; std::numeric_limits<unsigned int>::is_signed
PUBLIC	?digits@?$numeric_limits@I@std@@2HB		; std::numeric_limits<unsigned int>::digits
PUBLIC	?digits10@?$numeric_limits@I@std@@2HB		; std::numeric_limits<unsigned int>::digits10
PUBLIC	?max_digits10@?$numeric_limits@I@std@@2HB	; std::numeric_limits<unsigned int>::max_digits10
PUBLIC	?is_signed@?$numeric_limits@J@std@@2_NB		; std::numeric_limits<long>::is_signed
PUBLIC	?digits@?$numeric_limits@J@std@@2HB		; std::numeric_limits<long>::digits
PUBLIC	?digits10@?$numeric_limits@J@std@@2HB		; std::numeric_limits<long>::digits10
PUBLIC	?max_digits10@?$numeric_limits@J@std@@2HB	; std::numeric_limits<long>::max_digits10
PUBLIC	?is_signed@?$numeric_limits@K@std@@2_NB		; std::numeric_limits<unsigned long>::is_signed
PUBLIC	?digits@?$numeric_limits@K@std@@2HB		; std::numeric_limits<unsigned long>::digits
PUBLIC	?digits10@?$numeric_limits@K@std@@2HB		; std::numeric_limits<unsigned long>::digits10
PUBLIC	?max_digits10@?$numeric_limits@K@std@@2HB	; std::numeric_limits<unsigned long>::max_digits10
PUBLIC	?is_signed@?$numeric_limits@_J@std@@2_NB	; std::numeric_limits<__int64>::is_signed
PUBLIC	?digits@?$numeric_limits@_J@std@@2HB		; std::numeric_limits<__int64>::digits
PUBLIC	?digits10@?$numeric_limits@_J@std@@2HB		; std::numeric_limits<__int64>::digits10
PUBLIC	?max_digits10@?$numeric_limits@_J@std@@2HB	; std::numeric_limits<__int64>::max_digits10
PUBLIC	?is_signed@?$numeric_limits@_K@std@@2_NB	; std::numeric_limits<unsigned __int64>::is_signed
PUBLIC	?digits@?$numeric_limits@_K@std@@2HB		; std::numeric_limits<unsigned __int64>::digits
PUBLIC	?digits10@?$numeric_limits@_K@std@@2HB		; std::numeric_limits<unsigned __int64>::digits10
PUBLIC	?max_digits10@?$numeric_limits@_K@std@@2HB	; std::numeric_limits<unsigned __int64>::max_digits10
PUBLIC	?digits@?$numeric_limits@M@std@@2HB		; std::numeric_limits<float>::digits
PUBLIC	?digits10@?$numeric_limits@M@std@@2HB		; std::numeric_limits<float>::digits10
PUBLIC	?max_digits10@?$numeric_limits@M@std@@2HB	; std::numeric_limits<float>::max_digits10
PUBLIC	?max_exponent@?$numeric_limits@M@std@@2HB	; std::numeric_limits<float>::max_exponent
PUBLIC	?max_exponent10@?$numeric_limits@M@std@@2HB	; std::numeric_limits<float>::max_exponent10
PUBLIC	?min_exponent@?$numeric_limits@M@std@@2HB	; std::numeric_limits<float>::min_exponent
PUBLIC	?min_exponent10@?$numeric_limits@M@std@@2HB	; std::numeric_limits<float>::min_exponent10
PUBLIC	?digits@?$numeric_limits@N@std@@2HB		; std::numeric_limits<double>::digits
PUBLIC	?digits10@?$numeric_limits@N@std@@2HB		; std::numeric_limits<double>::digits10
PUBLIC	?max_digits10@?$numeric_limits@N@std@@2HB	; std::numeric_limits<double>::max_digits10
PUBLIC	?max_exponent@?$numeric_limits@N@std@@2HB	; std::numeric_limits<double>::max_exponent
PUBLIC	?max_exponent10@?$numeric_limits@N@std@@2HB	; std::numeric_limits<double>::max_exponent10
PUBLIC	?min_exponent@?$numeric_limits@N@std@@2HB	; std::numeric_limits<double>::min_exponent
PUBLIC	?min_exponent10@?$numeric_limits@N@std@@2HB	; std::numeric_limits<double>::min_exponent10
PUBLIC	?digits@?$numeric_limits@O@std@@2HB		; std::numeric_limits<long double>::digits
PUBLIC	?digits10@?$numeric_limits@O@std@@2HB		; std::numeric_limits<long double>::digits10
PUBLIC	?max_digits10@?$numeric_limits@O@std@@2HB	; std::numeric_limits<long double>::max_digits10
PUBLIC	?max_exponent@?$numeric_limits@O@std@@2HB	; std::numeric_limits<long double>::max_exponent
PUBLIC	?max_exponent10@?$numeric_limits@O@std@@2HB	; std::numeric_limits<long double>::max_exponent10
PUBLIC	?min_exponent@?$numeric_limits@O@std@@2HB	; std::numeric_limits<long double>::min_exponent
PUBLIC	?min_exponent10@?$numeric_limits@O@std@@2HB	; std::numeric_limits<long double>::min_exponent10
PUBLIC	?value@?$integral_constant@_N$0A@@tr1@std@@2_NB	; std::tr1::integral_constant<bool,0>::value
PUBLIC	?value@?$integral_constant@_N$00@tr1@std@@2_NB	; std::tr1::integral_constant<bool,1>::value
PUBLIC	?value@?$integral_constant@_K$0A@@tr1@std@@2_KB	; std::tr1::integral_constant<unsigned __int64,0>::value
PUBLIC	?_Rank@?$_Arithmetic_traits@_N@std@@2HB		; std::_Arithmetic_traits<bool>::_Rank
PUBLIC	?_Rank@?$_Arithmetic_traits@D@std@@2HB		; std::_Arithmetic_traits<char>::_Rank
PUBLIC	?_Rank@?$_Arithmetic_traits@C@std@@2HB		; std::_Arithmetic_traits<signed char>::_Rank
PUBLIC	?_Rank@?$_Arithmetic_traits@E@std@@2HB		; std::_Arithmetic_traits<unsigned char>::_Rank
PUBLIC	?_Rank@?$_Arithmetic_traits@F@std@@2HB		; std::_Arithmetic_traits<short>::_Rank
PUBLIC	?_Rank@?$_Arithmetic_traits@G@std@@2HB		; std::_Arithmetic_traits<unsigned short>::_Rank
PUBLIC	?_Rank@?$_Arithmetic_traits@H@std@@2HB		; std::_Arithmetic_traits<int>::_Rank
PUBLIC	?_Rank@?$_Arithmetic_traits@I@std@@2HB		; std::_Arithmetic_traits<unsigned int>::_Rank
PUBLIC	?_Rank@?$_Arithmetic_traits@J@std@@2HB		; std::_Arithmetic_traits<long>::_Rank
PUBLIC	?_Rank@?$_Arithmetic_traits@K@std@@2HB		; std::_Arithmetic_traits<unsigned long>::_Rank
PUBLIC	?_Rank@?$_Arithmetic_traits@_J@std@@2HB		; std::_Arithmetic_traits<__int64>::_Rank
PUBLIC	?_Rank@?$_Arithmetic_traits@_K@std@@2HB		; std::_Arithmetic_traits<unsigned __int64>::_Rank
PUBLIC	?_Rank@?$_Arithmetic_traits@M@std@@2HB		; std::_Arithmetic_traits<float>::_Rank
PUBLIC	?_Rank@?$_Arithmetic_traits@N@std@@2HB		; std::_Arithmetic_traits<double>::_Rank
PUBLIC	?_Rank@?$_Arithmetic_traits@O@std@@2HB		; std::_Arithmetic_traits<long double>::_Rank
PUBLIC	?collate@?$_Locbase@H@std@@2HB			; std::_Locbase<int>::collate
PUBLIC	?ctype@?$_Locbase@H@std@@2HB			; std::_Locbase<int>::ctype
PUBLIC	?monetary@?$_Locbase@H@std@@2HB			; std::_Locbase<int>::monetary
PUBLIC	?numeric@?$_Locbase@H@std@@2HB			; std::_Locbase<int>::numeric
PUBLIC	?time@?$_Locbase@H@std@@2HB			; std::_Locbase<int>::time
PUBLIC	?messages@?$_Locbase@H@std@@2HB			; std::_Locbase<int>::messages
PUBLIC	?all@?$_Locbase@H@std@@2HB			; std::_Locbase<int>::all
PUBLIC	?none@?$_Locbase@H@std@@2HB			; std::_Locbase<int>::none
PUBLIC	?table_size@?$ctype@D@std@@2_KB			; std::ctype<char>::table_size
PUBLIC	?skipws@?$_Iosb@H@std@@2W4_Fmtflags@12@B	; std::_Iosb<int>::skipws
PUBLIC	?unitbuf@?$_Iosb@H@std@@2W4_Fmtflags@12@B	; std::_Iosb<int>::unitbuf
PUBLIC	?uppercase@?$_Iosb@H@std@@2W4_Fmtflags@12@B	; std::_Iosb<int>::uppercase
PUBLIC	?showbase@?$_Iosb@H@std@@2W4_Fmtflags@12@B	; std::_Iosb<int>::showbase
PUBLIC	?showpoint@?$_Iosb@H@std@@2W4_Fmtflags@12@B	; std::_Iosb<int>::showpoint
PUBLIC	?showpos@?$_Iosb@H@std@@2W4_Fmtflags@12@B	; std::_Iosb<int>::showpos
PUBLIC	?left@?$_Iosb@H@std@@2W4_Fmtflags@12@B		; std::_Iosb<int>::left
PUBLIC	?right@?$_Iosb@H@std@@2W4_Fmtflags@12@B		; std::_Iosb<int>::right
PUBLIC	?internal@?$_Iosb@H@std@@2W4_Fmtflags@12@B	; std::_Iosb<int>::internal
PUBLIC	?dec@?$_Iosb@H@std@@2W4_Fmtflags@12@B		; std::_Iosb<int>::dec
PUBLIC	?oct@?$_Iosb@H@std@@2W4_Fmtflags@12@B		; std::_Iosb<int>::oct
PUBLIC	?hex@?$_Iosb@H@std@@2W4_Fmtflags@12@B		; std::_Iosb<int>::hex
PUBLIC	?scientific@?$_Iosb@H@std@@2W4_Fmtflags@12@B	; std::_Iosb<int>::scientific
PUBLIC	?fixed@?$_Iosb@H@std@@2W4_Fmtflags@12@B		; std::_Iosb<int>::fixed
PUBLIC	?hexfloat@?$_Iosb@H@std@@2W4_Fmtflags@12@B	; std::_Iosb<int>::hexfloat
PUBLIC	?boolalpha@?$_Iosb@H@std@@2W4_Fmtflags@12@B	; std::_Iosb<int>::boolalpha
PUBLIC	?_Stdio@?$_Iosb@H@std@@2W4_Fmtflags@12@B	; std::_Iosb<int>::_Stdio
PUBLIC	?adjustfield@?$_Iosb@H@std@@2W4_Fmtflags@12@B	; std::_Iosb<int>::adjustfield
PUBLIC	?basefield@?$_Iosb@H@std@@2W4_Fmtflags@12@B	; std::_Iosb<int>::basefield
PUBLIC	?floatfield@?$_Iosb@H@std@@2W4_Fmtflags@12@B	; std::_Iosb<int>::floatfield
PUBLIC	?goodbit@?$_Iosb@H@std@@2W4_Iostate@12@B	; std::_Iosb<int>::goodbit
PUBLIC	?eofbit@?$_Iosb@H@std@@2W4_Iostate@12@B		; std::_Iosb<int>::eofbit
PUBLIC	?failbit@?$_Iosb@H@std@@2W4_Iostate@12@B	; std::_Iosb<int>::failbit
PUBLIC	?badbit@?$_Iosb@H@std@@2W4_Iostate@12@B		; std::_Iosb<int>::badbit
PUBLIC	?_Hardfail@?$_Iosb@H@std@@2W4_Iostate@12@B	; std::_Iosb<int>::_Hardfail
PUBLIC	?in@?$_Iosb@H@std@@2W4_Openmode@12@B		; std::_Iosb<int>::in
PUBLIC	?out@?$_Iosb@H@std@@2W4_Openmode@12@B		; std::_Iosb<int>::out
PUBLIC	?ate@?$_Iosb@H@std@@2W4_Openmode@12@B		; std::_Iosb<int>::ate
PUBLIC	?app@?$_Iosb@H@std@@2W4_Openmode@12@B		; std::_Iosb<int>::app
PUBLIC	?trunc@?$_Iosb@H@std@@2W4_Openmode@12@B		; std::_Iosb<int>::trunc
PUBLIC	?_Nocreate@?$_Iosb@H@std@@2W4_Openmode@12@B	; std::_Iosb<int>::_Nocreate
PUBLIC	?_Noreplace@?$_Iosb@H@std@@2W4_Openmode@12@B	; std::_Iosb<int>::_Noreplace
PUBLIC	?binary@?$_Iosb@H@std@@2W4_Openmode@12@B	; std::_Iosb<int>::binary
PUBLIC	?beg@?$_Iosb@H@std@@2W4_Seekdir@12@B		; std::_Iosb<int>::beg
PUBLIC	?cur@?$_Iosb@H@std@@2W4_Seekdir@12@B		; std::_Iosb<int>::cur
PUBLIC	?end@?$_Iosb@H@std@@2W4_Seekdir@12@B		; std::_Iosb<int>::end
CONST	SEGMENT
$SG95686 DB	'GetModuleFileName() failed!', 00H
$SG95941 DB	' : ', 00H
$SG95729 DB	'unknown error code', 00H
$SG96512 DB	00H
$SG96178 DB	0aH, 00H
	ORG $+2
$SG95756 DB	'clGetPlatformInfo failed', 00H
	ORG $+3
$SG96520 DB	0aH, 00H
	ORG $+2
$SG95896 DB	0aH, 'Selected Platform Vendor : ', 00H
	ORG $+3
$SG95900 DB	'clGetDeviceIDs failed', 00H
	ORG $+2
$SG95920 DB	0aH, 'Device Count : ', 00H
	ORG $+3
$SG96526 DB	0aH, 00H
	ORG $+2
$SG95925 DB	'Failed to allocate memory(deviceIds)', 00H
	ORG $+3
$SG95928 DB	'clGetDeviceIDs failed', 00H
	ORG $+2
$SG95936 DB	'clGetDeviceInfo failed', 00H
	ORG $+1
$SG95942 DB	'Device ', 00H
$SG95965 DB	'DeviceId should be < ', 00H
	ORG $+2
$SG96038 DB	'Cannot reset timer. Invalid handle.', 00H
$SG96532 DB	0aH, 00H
	ORG $+2
$SG96045 DB	'Cannot reset timer. Invalid handle.', 00H
$SG96538 DB	0aH, 00H
	ORG $+2
$SG96054 DB	'Cannot reset timer. Invalid handle.', 00H
$SG100690 DB	0aH, 00H
	ORG $+2
$SG96062 DB	'Cannot read timer. Invalid handle.', 00H
	ORG $+1
$SG100691 DB	0aH, 00H
	ORG $+2
$SG96069 DB	'Cannot print table, NULL pointer.', 00H
	ORG $+2
$SG100719 DB	' ', 00H
	ORG $+2
$SG96511 DB	'Converting file to string. Cannot open file.', 00H
	ORG $+3
$SG96521 DB	'Error: ', 00H
$SG96527 DB	'Error: ', 00H
$SG96533 DB	'Expected Error: ', 00H
	ORG $+3
$SG100720 DB	0aH, 00H
	ORG $+2
$SG96539 DB	'Expected Error: ', 00H
	ORG $+3
$SG100721 DB	0aH, 00H
	ORG $+2
$SG100612 DB	' Error code : ', 00H
	ORG $+1
$SG100613 DB	'Error: ', 00H
$SG100724 DB	0aH, 00H
	ORG $+2
$SG100725 DB	0aH, 00H
	ORG $+2
$SG100753 DB	' ', 00H
	ORG $+2
$SG100754 DB	0aH, 00H
	ORG $+2
$SG100755 DB	0aH, 00H
	ORG $+2
$SG100758 DB	0aH, 00H
	ORG $+2
$SG100759 DB	0aH, 00H
	ORG $+2
$SG100768 DB	' ', 00H
	ORG $+2
$SG100769 DB	0aH, 00H
	ORG $+2
$SG100770 DB	0aH, 00H
	ORG $+2
$SG100773 DB	0aH, 00H
	ORG $+2
$SG100774 DB	0aH, 00H
	ORG $+2
$SG100783 DB	' ', 00H
	ORG $+2
$SG100784 DB	0aH, 00H
	ORG $+2
$SG100785 DB	0aH, 00H
	ORG $+2
$SG100788 DB	0aH, 00H
	ORG $+2
$SG100789 DB	0aH, 00H
	ORG $+2
$SG100817 DB	' ', 00H
	ORG $+2
$SG100818 DB	0aH, 00H
	ORG $+2
$SG100819 DB	0aH, 00H
	ORG $+2
$SG100822 DB	0aH, 00H
	ORG $+2
$SG100823 DB	0aH, 00H
	ORG $+2
$SG100851 DB	' ', 00H
	ORG $+2
$SG100852 DB	0aH, 00H
	ORG $+2
$SG100853 DB	0aH, 00H
	ORG $+2
$SG100856 DB	0aH, 00H
	ORG $+2
$SG100857 DB	0aH, 00H
	ORG $+2
$SG100885 DB	' ', 00H
	ORG $+2
$SG100886 DB	0aH, 00H
	ORG $+2
$SG100887 DB	0aH, 00H
	ORG $+2
$SG100891 DB	'Cannot fill array. NULL pointer.', 00H
	ORG $+7
$SG100907 DB	'Cannot fill array. NULL pointer.', 00H
	ORG $+7
$SG100923 DB	'Cannot fill array. NULL pointer.', 00H
	ORG $+7
$SG100939 DB	'Cannot fill array. NULL pointer.', 00H
	ORG $+7
$SG100955 DB	'Cannot fill array. NULL pointer.', 00H
	ORG $+7
$SG100971 DB	'Cannot fill array. NULL pointer.', 00H
	ORG $+7
$SG101044 DB	'CL_DEVICE_NOT_FOUND', 00H
	ORG $+4
$SG101046 DB	'CL_DEVICE_NOT_AVAILABLE', 00H
$SG101048 DB	'CL_COMPILER_NOT_AVAILABLE', 00H
	ORG $+6
$SG101050 DB	'CL_MEM_OBJECT_ALLOCATION_FAILURE', 00H
	ORG $+7
$SG101052 DB	'CL_OUT_OF_RESOURCES', 00H
	ORG $+4
$SG101054 DB	'CL_OUT_OF_HOST_MEMORY', 00H
	ORG $+2
$SG101056 DB	'CL_PROFILING_INFO_NOT_AVAILABLE', 00H
$SG101058 DB	'CL_MEM_COPY_OVERLAP', 00H
	ORG $+4
$SG101060 DB	'CL_IMAGE_FORMAT_MISMATCH', 00H
	ORG $+7
$SG101062 DB	'CL_IMAGE_FORMAT_NOT_SUPPORTED', 00H
	ORG $+2
$SG101064 DB	'CL_BUILD_PROGRAM_FAILURE', 00H
	ORG $+7
$SG101066 DB	'CL_MAP_FAILURE', 00H
	ORG $+1
$SG101068 DB	'CL_MISALIGNED_SUB_BUFFER_OFFSET', 00H
$SG101070 DB	'CL_EXEC_STATUS_ERROR_FOR_EVENTS_IN_WAIT_LIST', 00H
	ORG $+3
$SG101072 DB	'CL_INVALID_VALUE', 00H
	ORG $+7
$SG101074 DB	'CL_INVALID_DEVICE_TYPE', 00H
	ORG $+1
$SG101076 DB	'CL_INVALID_PLATFORM', 00H
	ORG $+4
$SG101078 DB	'CL_INVALID_DEVICE', 00H
	ORG $+6
$SG101080 DB	'CL_INVALID_CONTEXT', 00H
	ORG $+5
$SG101082 DB	'CL_INVALID_QUEUE_PROPERTIES', 00H
	ORG $+4
$SG101084 DB	'CL_INVALID_COMMAND_QUEUE', 00H
	ORG $+7
$SG101086 DB	'CL_INVALID_HOST_PTR', 00H
	ORG $+4
$SG101088 DB	'CL_INVALID_MEM_OBJECT', 00H
	ORG $+2
$SG101090 DB	'CL_INVALID_IMAGE_FORMAT_DESCRIPTOR', 00H
	ORG $+5
$SG101092 DB	'CL_INVALID_IMAGE_SIZE', 00H
	ORG $+2
$SG101094 DB	'CL_INVALID_SAMPLER', 00H
	ORG $+5
$SG101096 DB	'CL_INVALID_BINARY', 00H
	ORG $+6
$SG101098 DB	'CL_INVALID_BUILD_OPTIONS', 00H
	ORG $+7
$SG101100 DB	'CL_INVALID_PROGRAM', 00H
	ORG $+5
$SG101102 DB	'CL_INVALID_PROGRAM_EXECUTABLE', 00H
	ORG $+2
$SG101104 DB	'CL_INVALID_KERNEL_NAME', 00H
	ORG $+1
$SG101106 DB	'CL_INVALID_KERNEL_DEFINITION', 00H
	ORG $+3
$SG101108 DB	'CL_INVALID_KERNEL', 00H
	ORG $+6
$SG101110 DB	'CL_INVALID_ARG_INDEX', 00H
	ORG $+3
$SG101112 DB	'CL_INVALID_ARG_VALUE', 00H
	ORG $+3
$SG101114 DB	'CL_INVALID_ARG_SIZE', 00H
	ORG $+4
$SG101116 DB	'CL_INVALID_KERNEL_ARGS', 00H
	ORG $+1
$SG101118 DB	'CL_INVALID_WORK_DIMENSION', 00H
	ORG $+6
$SG101120 DB	'CL_INVALID_WORK_GROUP_SIZE', 00H
	ORG $+5
$SG101122 DB	'CL_INVALID_WORK_ITEM_SIZE', 00H
	ORG $+6
$SG101124 DB	'CL_INVALID_GLOBAL_OFFSET', 00H
	ORG $+7
$SG101126 DB	'CL_INVALID_EVENT_WAIT_LIST', 00H
	ORG $+5
$SG101128 DB	'CL_INVALID_EVENT', 00H
	ORG $+7
$SG101130 DB	'CL_INVALID_OPERATION', 00H
	ORG $+3
$SG101132 DB	'CL_INVALID_GL_OBJECT', 00H
	ORG $+3
$SG101134 DB	'CL_INVALID_BUFFER_SIZE', 00H
	ORG $+1
$SG101136 DB	'CL_INVALID_MIP_LEVEL', 00H
	ORG $+3
$SG101138 DB	'CL_INVALID_GLOBAL_WORK_SIZE', 00H
	ORG $+4
$SG101140 DB	'CL_INVALID_GL_SHAREGROUP_REFERENCE_KHR', 00H
	ORG $+1
$SG101142 DB	'CL_PLATFORM_NOT_FOUND_KHR', 00H
	ORG $+6
$SG101144 DB	'CL_DEVICE_PARTITION_FAILED_EXT', 00H
	ORG $+1
$SG101146 DB	'CL_INVALID_PARTITION_COUNT_EXT', 00H
	ORG $+1
$SG101148 DB	'unknown error code', 00H
	ORG $+5
$SG101149 DB	'unknown error code', 00H
	ORG $+5
$SG101156 DB	' Error code : ', 00H
	ORG $+1
$SG101157 DB	'Error: ', 00H
$SG101196 DB	' Error code : ', 00H
	ORG $+1
$SG101197 DB	'Error: ', 00H
$SG101216 DB	' Error code : ', 00H
	ORG $+1
$SG101217 DB	'Error: ', 00H
$SG101235 DB	' Error code : ', 00H
	ORG $+1
$SG101236 DB	'Error: ', 00H
$SG101254 DB	' Error code : ', 00H
	ORG $+1
$SG101255 DB	'Error: ', 00H
$SG102378 DB	'CL_DEVICE_NOT_FOUND', 00H
	ORG $+4
$SG102380 DB	'CL_DEVICE_NOT_AVAILABLE', 00H
$SG102382 DB	'CL_COMPILER_NOT_AVAILABLE', 00H
	ORG $+6
$SG102384 DB	'CL_MEM_OBJECT_ALLOCATION_FAILURE', 00H
	ORG $+7
$SG102386 DB	'CL_OUT_OF_RESOURCES', 00H
	ORG $+4
$SG102388 DB	'CL_OUT_OF_HOST_MEMORY', 00H
	ORG $+2
$SG102390 DB	'CL_PROFILING_INFO_NOT_AVAILABLE', 00H
$SG102392 DB	'CL_MEM_COPY_OVERLAP', 00H
	ORG $+4
$SG102394 DB	'CL_IMAGE_FORMAT_MISMATCH', 00H
	ORG $+7
$SG102396 DB	'CL_IMAGE_FORMAT_NOT_SUPPORTED', 00H
	ORG $+2
$SG102398 DB	'CL_BUILD_PROGRAM_FAILURE', 00H
	ORG $+7
$SG102400 DB	'CL_MAP_FAILURE', 00H
	ORG $+1
$SG102402 DB	'CL_MISALIGNED_SUB_BUFFER_OFFSET', 00H
$SG102404 DB	'CL_EXEC_STATUS_ERROR_FOR_EVENTS_IN_WAIT_LIST', 00H
	ORG $+3
$SG102406 DB	'CL_INVALID_VALUE', 00H
	ORG $+7
$SG102408 DB	'CL_INVALID_DEVICE_TYPE', 00H
	ORG $+1
$SG102410 DB	'CL_INVALID_PLATFORM', 00H
	ORG $+4
$SG102412 DB	'CL_INVALID_DEVICE', 00H
	ORG $+6
$SG102414 DB	'CL_INVALID_CONTEXT', 00H
	ORG $+5
$SG102416 DB	'CL_INVALID_QUEUE_PROPERTIES', 00H
	ORG $+4
$SG102418 DB	'CL_INVALID_COMMAND_QUEUE', 00H
	ORG $+7
$SG102420 DB	'CL_INVALID_HOST_PTR', 00H
	ORG $+4
$SG102422 DB	'CL_INVALID_MEM_OBJECT', 00H
	ORG $+2
$SG102424 DB	'CL_INVALID_IMAGE_FORMAT_DESCRIPTOR', 00H
	ORG $+5
$SG102426 DB	'CL_INVALID_IMAGE_SIZE', 00H
	ORG $+2
$SG102428 DB	'CL_INVALID_SAMPLER', 00H
	ORG $+5
$SG102430 DB	'CL_INVALID_BINARY', 00H
	ORG $+6
$SG102432 DB	'CL_INVALID_BUILD_OPTIONS', 00H
	ORG $+7
$SG102434 DB	'CL_INVALID_PROGRAM', 00H
	ORG $+5
$SG102436 DB	'CL_INVALID_PROGRAM_EXECUTABLE', 00H
	ORG $+2
$SG102438 DB	'CL_INVALID_KERNEL_NAME', 00H
	ORG $+1
$SG102440 DB	'CL_INVALID_KERNEL_DEFINITION', 00H
	ORG $+3
$SG102442 DB	'CL_INVALID_KERNEL', 00H
	ORG $+6
$SG102444 DB	'CL_INVALID_ARG_INDEX', 00H
	ORG $+3
$SG102446 DB	'CL_INVALID_ARG_VALUE', 00H
	ORG $+3
$SG102448 DB	'CL_INVALID_ARG_SIZE', 00H
	ORG $+4
$SG102450 DB	'CL_INVALID_KERNEL_ARGS', 00H
	ORG $+1
$SG102452 DB	'CL_INVALID_WORK_DIMENSION', 00H
	ORG $+6
$SG102454 DB	'CL_INVALID_WORK_GROUP_SIZE', 00H
	ORG $+5
$SG102456 DB	'CL_INVALID_WORK_ITEM_SIZE', 00H
	ORG $+6
$SG102458 DB	'CL_INVALID_GLOBAL_OFFSET', 00H
	ORG $+7
$SG102460 DB	'CL_INVALID_EVENT_WAIT_LIST', 00H
	ORG $+5
$SG102462 DB	'CL_INVALID_EVENT', 00H
	ORG $+7
$SG102464 DB	'CL_INVALID_OPERATION', 00H
	ORG $+3
$SG102466 DB	'CL_INVALID_GL_OBJECT', 00H
	ORG $+3
$SG102468 DB	'CL_INVALID_BUFFER_SIZE', 00H
	ORG $+1
$SG102470 DB	'CL_INVALID_MIP_LEVEL', 00H
	ORG $+3
$SG102472 DB	'CL_INVALID_GLOBAL_WORK_SIZE', 00H
	ORG $+4
$SG102474 DB	'CL_INVALID_GL_SHAREGROUP_REFERENCE_KHR', 00H
	ORG $+1
$SG102476 DB	'CL_PLATFORM_NOT_FOUND_KHR', 00H
	ORG $+6
$SG102478 DB	'CL_DEVICE_PARTITION_FAILED_EXT', 00H
	ORG $+1
$SG102480 DB	'CL_INVALID_PARTITION_COUNT_EXT', 00H
	ORG $+1
$SG102482 DB	'unknown error code', 00H
	ORG $+5
$SG102483 DB	'unknown error code', 00H
	ORG $+5
$SG102493 DB	'CL_DEVICE_NOT_FOUND', 00H
	ORG $+4
$SG102495 DB	'CL_DEVICE_NOT_AVAILABLE', 00H
$SG102497 DB	'CL_COMPILER_NOT_AVAILABLE', 00H
	ORG $+6
$SG102499 DB	'CL_MEM_OBJECT_ALLOCATION_FAILURE', 00H
	ORG $+7
$SG102501 DB	'CL_OUT_OF_RESOURCES', 00H
	ORG $+4
$SG102503 DB	'CL_OUT_OF_HOST_MEMORY', 00H
	ORG $+2
$SG102505 DB	'CL_PROFILING_INFO_NOT_AVAILABLE', 00H
$SG102507 DB	'CL_MEM_COPY_OVERLAP', 00H
	ORG $+4
$SG102509 DB	'CL_IMAGE_FORMAT_MISMATCH', 00H
	ORG $+7
$SG102511 DB	'CL_IMAGE_FORMAT_NOT_SUPPORTED', 00H
	ORG $+2
$SG102513 DB	'CL_BUILD_PROGRAM_FAILURE', 00H
	ORG $+7
$SG102515 DB	'CL_MAP_FAILURE', 00H
	ORG $+1
$SG102517 DB	'CL_MISALIGNED_SUB_BUFFER_OFFSET', 00H
$SG102519 DB	'CL_EXEC_STATUS_ERROR_FOR_EVENTS_IN_WAIT_LIST', 00H
	ORG $+3
$SG102521 DB	'CL_INVALID_VALUE', 00H
	ORG $+7
$SG102523 DB	'CL_INVALID_DEVICE_TYPE', 00H
	ORG $+1
$SG102525 DB	'CL_INVALID_PLATFORM', 00H
	ORG $+4
$SG102527 DB	'CL_INVALID_DEVICE', 00H
	ORG $+6
$SG102529 DB	'CL_INVALID_CONTEXT', 00H
	ORG $+5
$SG102531 DB	'CL_INVALID_QUEUE_PROPERTIES', 00H
	ORG $+4
$SG102533 DB	'CL_INVALID_COMMAND_QUEUE', 00H
	ORG $+7
$SG102535 DB	'CL_INVALID_HOST_PTR', 00H
	ORG $+4
$SG102537 DB	'CL_INVALID_MEM_OBJECT', 00H
	ORG $+2
$SG102539 DB	'CL_INVALID_IMAGE_FORMAT_DESCRIPTOR', 00H
	ORG $+5
$SG102541 DB	'CL_INVALID_IMAGE_SIZE', 00H
	ORG $+2
$SG102543 DB	'CL_INVALID_SAMPLER', 00H
	ORG $+5
$SG102545 DB	'CL_INVALID_BINARY', 00H
	ORG $+6
$SG102547 DB	'CL_INVALID_BUILD_OPTIONS', 00H
	ORG $+7
$SG102549 DB	'CL_INVALID_PROGRAM', 00H
	ORG $+5
$SG102551 DB	'CL_INVALID_PROGRAM_EXECUTABLE', 00H
	ORG $+2
$SG102553 DB	'CL_INVALID_KERNEL_NAME', 00H
	ORG $+1
$SG102555 DB	'CL_INVALID_KERNEL_DEFINITION', 00H
	ORG $+3
$SG102557 DB	'CL_INVALID_KERNEL', 00H
	ORG $+6
$SG102559 DB	'CL_INVALID_ARG_INDEX', 00H
	ORG $+3
$SG102561 DB	'CL_INVALID_ARG_VALUE', 00H
	ORG $+3
$SG102563 DB	'CL_INVALID_ARG_SIZE', 00H
	ORG $+4
$SG102565 DB	'CL_INVALID_KERNEL_ARGS', 00H
	ORG $+1
$SG102567 DB	'CL_INVALID_WORK_DIMENSION', 00H
	ORG $+6
$SG102569 DB	'CL_INVALID_WORK_GROUP_SIZE', 00H
	ORG $+5
$SG102571 DB	'CL_INVALID_WORK_ITEM_SIZE', 00H
	ORG $+6
$SG102573 DB	'CL_INVALID_GLOBAL_OFFSET', 00H
	ORG $+7
$SG102575 DB	'CL_INVALID_EVENT_WAIT_LIST', 00H
	ORG $+5
$SG102577 DB	'CL_INVALID_EVENT', 00H
	ORG $+7
$SG102579 DB	'CL_INVALID_OPERATION', 00H
	ORG $+3
$SG102581 DB	'CL_INVALID_GL_OBJECT', 00H
	ORG $+3
$SG102583 DB	'CL_INVALID_BUFFER_SIZE', 00H
	ORG $+1
$SG102585 DB	'CL_INVALID_MIP_LEVEL', 00H
	ORG $+3
$SG102587 DB	'CL_INVALID_GLOBAL_WORK_SIZE', 00H
	ORG $+4
$SG102589 DB	'CL_INVALID_GL_SHAREGROUP_REFERENCE_KHR', 00H
	ORG $+1
$SG102591 DB	'CL_PLATFORM_NOT_FOUND_KHR', 00H
	ORG $+6
$SG102593 DB	'CL_DEVICE_PARTITION_FAILED_EXT', 00H
	ORG $+1
$SG102595 DB	'CL_INVALID_PARTITION_COUNT_EXT', 00H
	ORG $+1
$SG102597 DB	'unknown error code', 00H
	ORG $+5
$SG102598 DB	'unknown error code', 00H
	ORG $+5
$SG102607 DB	'CL_DEVICE_NOT_FOUND', 00H
	ORG $+4
$SG102609 DB	'CL_DEVICE_NOT_AVAILABLE', 00H
$SG102611 DB	'CL_COMPILER_NOT_AVAILABLE', 00H
	ORG $+6
$SG102613 DB	'CL_MEM_OBJECT_ALLOCATION_FAILURE', 00H
	ORG $+7
$SG102615 DB	'CL_OUT_OF_RESOURCES', 00H
	ORG $+4
$SG102617 DB	'CL_OUT_OF_HOST_MEMORY', 00H
	ORG $+2
$SG102619 DB	'CL_PROFILING_INFO_NOT_AVAILABLE', 00H
$SG102621 DB	'CL_MEM_COPY_OVERLAP', 00H
	ORG $+4
$SG102623 DB	'CL_IMAGE_FORMAT_MISMATCH', 00H
	ORG $+7
$SG102625 DB	'CL_IMAGE_FORMAT_NOT_SUPPORTED', 00H
	ORG $+2
$SG102627 DB	'CL_BUILD_PROGRAM_FAILURE', 00H
	ORG $+7
$SG102629 DB	'CL_MAP_FAILURE', 00H
	ORG $+1
$SG102631 DB	'CL_MISALIGNED_SUB_BUFFER_OFFSET', 00H
$SG102633 DB	'CL_EXEC_STATUS_ERROR_FOR_EVENTS_IN_WAIT_LIST', 00H
	ORG $+3
$SG102635 DB	'CL_INVALID_VALUE', 00H
	ORG $+7
$SG102637 DB	'CL_INVALID_DEVICE_TYPE', 00H
	ORG $+1
$SG102639 DB	'CL_INVALID_PLATFORM', 00H
	ORG $+4
$SG102641 DB	'CL_INVALID_DEVICE', 00H
	ORG $+6
$SG102643 DB	'CL_INVALID_CONTEXT', 00H
	ORG $+5
$SG102645 DB	'CL_INVALID_QUEUE_PROPERTIES', 00H
	ORG $+4
$SG102647 DB	'CL_INVALID_COMMAND_QUEUE', 00H
	ORG $+7
$SG102649 DB	'CL_INVALID_HOST_PTR', 00H
	ORG $+4
$SG102651 DB	'CL_INVALID_MEM_OBJECT', 00H
	ORG $+2
$SG102653 DB	'CL_INVALID_IMAGE_FORMAT_DESCRIPTOR', 00H
	ORG $+5
$SG102655 DB	'CL_INVALID_IMAGE_SIZE', 00H
	ORG $+2
$SG102657 DB	'CL_INVALID_SAMPLER', 00H
	ORG $+5
$SG102659 DB	'CL_INVALID_BINARY', 00H
	ORG $+6
$SG102661 DB	'CL_INVALID_BUILD_OPTIONS', 00H
	ORG $+7
$SG102663 DB	'CL_INVALID_PROGRAM', 00H
	ORG $+5
$SG102665 DB	'CL_INVALID_PROGRAM_EXECUTABLE', 00H
	ORG $+2
$SG102667 DB	'CL_INVALID_KERNEL_NAME', 00H
	ORG $+1
$SG102669 DB	'CL_INVALID_KERNEL_DEFINITION', 00H
	ORG $+3
$SG102671 DB	'CL_INVALID_KERNEL', 00H
	ORG $+6
$SG102673 DB	'CL_INVALID_ARG_INDEX', 00H
	ORG $+3
$SG102675 DB	'CL_INVALID_ARG_VALUE', 00H
	ORG $+3
$SG102677 DB	'CL_INVALID_ARG_SIZE', 00H
	ORG $+4
$SG102679 DB	'CL_INVALID_KERNEL_ARGS', 00H
	ORG $+1
$SG102681 DB	'CL_INVALID_WORK_DIMENSION', 00H
	ORG $+6
$SG102683 DB	'CL_INVALID_WORK_GROUP_SIZE', 00H
	ORG $+5
$SG102685 DB	'CL_INVALID_WORK_ITEM_SIZE', 00H
	ORG $+6
$SG102687 DB	'CL_INVALID_GLOBAL_OFFSET', 00H
	ORG $+7
$SG102689 DB	'CL_INVALID_EVENT_WAIT_LIST', 00H
	ORG $+5
$SG102691 DB	'CL_INVALID_EVENT', 00H
	ORG $+7
$SG102693 DB	'CL_INVALID_OPERATION', 00H
	ORG $+3
$SG102695 DB	'CL_INVALID_GL_OBJECT', 00H
	ORG $+3
$SG102697 DB	'CL_INVALID_BUFFER_SIZE', 00H
	ORG $+1
$SG102699 DB	'CL_INVALID_MIP_LEVEL', 00H
	ORG $+3
$SG102701 DB	'CL_INVALID_GLOBAL_WORK_SIZE', 00H
	ORG $+4
$SG102703 DB	'CL_INVALID_GL_SHAREGROUP_REFERENCE_KHR', 00H
	ORG $+1
$SG102705 DB	'CL_PLATFORM_NOT_FOUND_KHR', 00H
	ORG $+6
$SG102707 DB	'CL_DEVICE_PARTITION_FAILED_EXT', 00H
	ORG $+1
$SG102709 DB	'CL_INVALID_PARTITION_COUNT_EXT', 00H
	ORG $+1
$SG102711 DB	'unknown error code', 00H
	ORG $+5
$SG102712 DB	'unknown error code', 00H
	ORG $+5
$SG102721 DB	'CL_DEVICE_NOT_FOUND', 00H
	ORG $+4
$SG102723 DB	'CL_DEVICE_NOT_AVAILABLE', 00H
$SG102725 DB	'CL_COMPILER_NOT_AVAILABLE', 00H
	ORG $+6
$SG102727 DB	'CL_MEM_OBJECT_ALLOCATION_FAILURE', 00H
	ORG $+7
$SG102729 DB	'CL_OUT_OF_RESOURCES', 00H
	ORG $+4
$SG102731 DB	'CL_OUT_OF_HOST_MEMORY', 00H
	ORG $+2
$SG102733 DB	'CL_PROFILING_INFO_NOT_AVAILABLE', 00H
$SG102735 DB	'CL_MEM_COPY_OVERLAP', 00H
	ORG $+4
$SG102737 DB	'CL_IMAGE_FORMAT_MISMATCH', 00H
	ORG $+7
$SG102739 DB	'CL_IMAGE_FORMAT_NOT_SUPPORTED', 00H
	ORG $+2
$SG102741 DB	'CL_BUILD_PROGRAM_FAILURE', 00H
	ORG $+7
$SG102743 DB	'CL_MAP_FAILURE', 00H
	ORG $+1
$SG102745 DB	'CL_MISALIGNED_SUB_BUFFER_OFFSET', 00H
$SG102747 DB	'CL_EXEC_STATUS_ERROR_FOR_EVENTS_IN_WAIT_LIST', 00H
	ORG $+3
$SG102749 DB	'CL_INVALID_VALUE', 00H
	ORG $+7
$SG102751 DB	'CL_INVALID_DEVICE_TYPE', 00H
	ORG $+1
$SG102753 DB	'CL_INVALID_PLATFORM', 00H
	ORG $+4
$SG102755 DB	'CL_INVALID_DEVICE', 00H
	ORG $+6
$SG102757 DB	'CL_INVALID_CONTEXT', 00H
	ORG $+5
$SG102759 DB	'CL_INVALID_QUEUE_PROPERTIES', 00H
	ORG $+4
$SG102761 DB	'CL_INVALID_COMMAND_QUEUE', 00H
	ORG $+7
$SG102763 DB	'CL_INVALID_HOST_PTR', 00H
	ORG $+4
$SG102765 DB	'CL_INVALID_MEM_OBJECT', 00H
	ORG $+2
$SG102767 DB	'CL_INVALID_IMAGE_FORMAT_DESCRIPTOR', 00H
	ORG $+5
$SG102769 DB	'CL_INVALID_IMAGE_SIZE', 00H
	ORG $+2
$SG102771 DB	'CL_INVALID_SAMPLER', 00H
	ORG $+5
$SG102773 DB	'CL_INVALID_BINARY', 00H
	ORG $+6
$SG102775 DB	'CL_INVALID_BUILD_OPTIONS', 00H
	ORG $+7
$SG102777 DB	'CL_INVALID_PROGRAM', 00H
	ORG $+5
$SG102779 DB	'CL_INVALID_PROGRAM_EXECUTABLE', 00H
	ORG $+2
$SG102781 DB	'CL_INVALID_KERNEL_NAME', 00H
	ORG $+1
$SG102783 DB	'CL_INVALID_KERNEL_DEFINITION', 00H
	ORG $+3
$SG102785 DB	'CL_INVALID_KERNEL', 00H
	ORG $+6
$SG102787 DB	'CL_INVALID_ARG_INDEX', 00H
	ORG $+3
$SG102789 DB	'CL_INVALID_ARG_VALUE', 00H
	ORG $+3
$SG102791 DB	'CL_INVALID_ARG_SIZE', 00H
	ORG $+4
$SG102793 DB	'CL_INVALID_KERNEL_ARGS', 00H
	ORG $+1
$SG102795 DB	'CL_INVALID_WORK_DIMENSION', 00H
	ORG $+6
$SG102797 DB	'CL_INVALID_WORK_GROUP_SIZE', 00H
	ORG $+5
$SG102799 DB	'CL_INVALID_WORK_ITEM_SIZE', 00H
	ORG $+6
$SG102801 DB	'CL_INVALID_GLOBAL_OFFSET', 00H
	ORG $+7
$SG102803 DB	'CL_INVALID_EVENT_WAIT_LIST', 00H
	ORG $+5
$SG102805 DB	'CL_INVALID_EVENT', 00H
	ORG $+7
$SG102807 DB	'CL_INVALID_OPERATION', 00H
	ORG $+3
$SG102809 DB	'CL_INVALID_GL_OBJECT', 00H
	ORG $+3
$SG102811 DB	'CL_INVALID_BUFFER_SIZE', 00H
	ORG $+1
$SG102813 DB	'CL_INVALID_MIP_LEVEL', 00H
	ORG $+3
$SG102815 DB	'CL_INVALID_GLOBAL_WORK_SIZE', 00H
	ORG $+4
$SG102817 DB	'CL_INVALID_GL_SHAREGROUP_REFERENCE_KHR', 00H
	ORG $+1
$SG102819 DB	'CL_PLATFORM_NOT_FOUND_KHR', 00H
	ORG $+6
$SG102821 DB	'CL_DEVICE_PARTITION_FAILED_EXT', 00H
	ORG $+1
$SG102823 DB	'CL_INVALID_PARTITION_COUNT_EXT', 00H
	ORG $+1
$SG102825 DB	'unknown error code', 00H
	ORG $+5
$SG102826 DB	'unknown error code', 00H
CONST	ENDS
;	COMDAT ?end@?$_Iosb@H@std@@2W4_Seekdir@12@B
CONST	SEGMENT
?end@?$_Iosb@H@std@@2W4_Seekdir@12@B DD 02H		; std::_Iosb<int>::end
CONST	ENDS
;	COMDAT ?cur@?$_Iosb@H@std@@2W4_Seekdir@12@B
CONST	SEGMENT
?cur@?$_Iosb@H@std@@2W4_Seekdir@12@B DD 01H		; std::_Iosb<int>::cur
CONST	ENDS
;	COMDAT ?beg@?$_Iosb@H@std@@2W4_Seekdir@12@B
CONST	SEGMENT
?beg@?$_Iosb@H@std@@2W4_Seekdir@12@B DD 00H		; std::_Iosb<int>::beg
CONST	ENDS
;	COMDAT ?binary@?$_Iosb@H@std@@2W4_Openmode@12@B
CONST	SEGMENT
?binary@?$_Iosb@H@std@@2W4_Openmode@12@B DD 020H	; std::_Iosb<int>::binary
CONST	ENDS
;	COMDAT ?_Noreplace@?$_Iosb@H@std@@2W4_Openmode@12@B
CONST	SEGMENT
?_Noreplace@?$_Iosb@H@std@@2W4_Openmode@12@B DD 080H	; std::_Iosb<int>::_Noreplace
CONST	ENDS
;	COMDAT ?_Nocreate@?$_Iosb@H@std@@2W4_Openmode@12@B
CONST	SEGMENT
?_Nocreate@?$_Iosb@H@std@@2W4_Openmode@12@B DD 040H	; std::_Iosb<int>::_Nocreate
CONST	ENDS
;	COMDAT ?trunc@?$_Iosb@H@std@@2W4_Openmode@12@B
CONST	SEGMENT
?trunc@?$_Iosb@H@std@@2W4_Openmode@12@B DD 010H		; std::_Iosb<int>::trunc
CONST	ENDS
;	COMDAT ?app@?$_Iosb@H@std@@2W4_Openmode@12@B
CONST	SEGMENT
?app@?$_Iosb@H@std@@2W4_Openmode@12@B DD 08H		; std::_Iosb<int>::app
CONST	ENDS
;	COMDAT ?ate@?$_Iosb@H@std@@2W4_Openmode@12@B
CONST	SEGMENT
?ate@?$_Iosb@H@std@@2W4_Openmode@12@B DD 04H		; std::_Iosb<int>::ate
CONST	ENDS
;	COMDAT ?out@?$_Iosb@H@std@@2W4_Openmode@12@B
CONST	SEGMENT
?out@?$_Iosb@H@std@@2W4_Openmode@12@B DD 02H		; std::_Iosb<int>::out
CONST	ENDS
;	COMDAT ?in@?$_Iosb@H@std@@2W4_Openmode@12@B
CONST	SEGMENT
?in@?$_Iosb@H@std@@2W4_Openmode@12@B DD 01H		; std::_Iosb<int>::in
CONST	ENDS
;	COMDAT ?_Hardfail@?$_Iosb@H@std@@2W4_Iostate@12@B
CONST	SEGMENT
?_Hardfail@?$_Iosb@H@std@@2W4_Iostate@12@B DD 010H	; std::_Iosb<int>::_Hardfail
CONST	ENDS
;	COMDAT ?badbit@?$_Iosb@H@std@@2W4_Iostate@12@B
CONST	SEGMENT
?badbit@?$_Iosb@H@std@@2W4_Iostate@12@B DD 04H		; std::_Iosb<int>::badbit
CONST	ENDS
;	COMDAT ?failbit@?$_Iosb@H@std@@2W4_Iostate@12@B
CONST	SEGMENT
?failbit@?$_Iosb@H@std@@2W4_Iostate@12@B DD 02H		; std::_Iosb<int>::failbit
CONST	ENDS
;	COMDAT ?eofbit@?$_Iosb@H@std@@2W4_Iostate@12@B
CONST	SEGMENT
?eofbit@?$_Iosb@H@std@@2W4_Iostate@12@B DD 01H		; std::_Iosb<int>::eofbit
CONST	ENDS
;	COMDAT ?goodbit@?$_Iosb@H@std@@2W4_Iostate@12@B
CONST	SEGMENT
?goodbit@?$_Iosb@H@std@@2W4_Iostate@12@B DD 00H		; std::_Iosb<int>::goodbit
CONST	ENDS
;	COMDAT ?floatfield@?$_Iosb@H@std@@2W4_Fmtflags@12@B
CONST	SEGMENT
?floatfield@?$_Iosb@H@std@@2W4_Fmtflags@12@B DD 03000H	; std::_Iosb<int>::floatfield
CONST	ENDS
;	COMDAT ?basefield@?$_Iosb@H@std@@2W4_Fmtflags@12@B
CONST	SEGMENT
?basefield@?$_Iosb@H@std@@2W4_Fmtflags@12@B DD 0e00H	; std::_Iosb<int>::basefield
CONST	ENDS
;	COMDAT ?adjustfield@?$_Iosb@H@std@@2W4_Fmtflags@12@B
CONST	SEGMENT
?adjustfield@?$_Iosb@H@std@@2W4_Fmtflags@12@B DD 01c0H	; std::_Iosb<int>::adjustfield
CONST	ENDS
;	COMDAT ?_Stdio@?$_Iosb@H@std@@2W4_Fmtflags@12@B
CONST	SEGMENT
?_Stdio@?$_Iosb@H@std@@2W4_Fmtflags@12@B DD 08000H	; std::_Iosb<int>::_Stdio
CONST	ENDS
;	COMDAT ?boolalpha@?$_Iosb@H@std@@2W4_Fmtflags@12@B
CONST	SEGMENT
?boolalpha@?$_Iosb@H@std@@2W4_Fmtflags@12@B DD 04000H	; std::_Iosb<int>::boolalpha
CONST	ENDS
;	COMDAT ?hexfloat@?$_Iosb@H@std@@2W4_Fmtflags@12@B
CONST	SEGMENT
?hexfloat@?$_Iosb@H@std@@2W4_Fmtflags@12@B DD 03000H	; std::_Iosb<int>::hexfloat
CONST	ENDS
;	COMDAT ?fixed@?$_Iosb@H@std@@2W4_Fmtflags@12@B
CONST	SEGMENT
?fixed@?$_Iosb@H@std@@2W4_Fmtflags@12@B DD 02000H	; std::_Iosb<int>::fixed
CONST	ENDS
;	COMDAT ?scientific@?$_Iosb@H@std@@2W4_Fmtflags@12@B
CONST	SEGMENT
?scientific@?$_Iosb@H@std@@2W4_Fmtflags@12@B DD 01000H	; std::_Iosb<int>::scientific
CONST	ENDS
;	COMDAT ?hex@?$_Iosb@H@std@@2W4_Fmtflags@12@B
CONST	SEGMENT
?hex@?$_Iosb@H@std@@2W4_Fmtflags@12@B DD 0800H		; std::_Iosb<int>::hex
CONST	ENDS
;	COMDAT ?oct@?$_Iosb@H@std@@2W4_Fmtflags@12@B
CONST	SEGMENT
?oct@?$_Iosb@H@std@@2W4_Fmtflags@12@B DD 0400H		; std::_Iosb<int>::oct
CONST	ENDS
;	COMDAT ?dec@?$_Iosb@H@std@@2W4_Fmtflags@12@B
CONST	SEGMENT
?dec@?$_Iosb@H@std@@2W4_Fmtflags@12@B DD 0200H		; std::_Iosb<int>::dec
CONST	ENDS
;	COMDAT ?internal@?$_Iosb@H@std@@2W4_Fmtflags@12@B
CONST	SEGMENT
?internal@?$_Iosb@H@std@@2W4_Fmtflags@12@B DD 0100H	; std::_Iosb<int>::internal
CONST	ENDS
;	COMDAT ?right@?$_Iosb@H@std@@2W4_Fmtflags@12@B
CONST	SEGMENT
?right@?$_Iosb@H@std@@2W4_Fmtflags@12@B DD 080H		; std::_Iosb<int>::right
CONST	ENDS
;	COMDAT ?left@?$_Iosb@H@std@@2W4_Fmtflags@12@B
CONST	SEGMENT
?left@?$_Iosb@H@std@@2W4_Fmtflags@12@B DD 040H		; std::_Iosb<int>::left
CONST	ENDS
;	COMDAT ?showpos@?$_Iosb@H@std@@2W4_Fmtflags@12@B
CONST	SEGMENT
?showpos@?$_Iosb@H@std@@2W4_Fmtflags@12@B DD 020H	; std::_Iosb<int>::showpos
CONST	ENDS
;	COMDAT ?showpoint@?$_Iosb@H@std@@2W4_Fmtflags@12@B
CONST	SEGMENT
?showpoint@?$_Iosb@H@std@@2W4_Fmtflags@12@B DD 010H	; std::_Iosb<int>::showpoint
CONST	ENDS
;	COMDAT ?showbase@?$_Iosb@H@std@@2W4_Fmtflags@12@B
CONST	SEGMENT
?showbase@?$_Iosb@H@std@@2W4_Fmtflags@12@B DD 08H	; std::_Iosb<int>::showbase
CONST	ENDS
;	COMDAT ?uppercase@?$_Iosb@H@std@@2W4_Fmtflags@12@B
CONST	SEGMENT
?uppercase@?$_Iosb@H@std@@2W4_Fmtflags@12@B DD 04H	; std::_Iosb<int>::uppercase
CONST	ENDS
;	COMDAT ?unitbuf@?$_Iosb@H@std@@2W4_Fmtflags@12@B
CONST	SEGMENT
?unitbuf@?$_Iosb@H@std@@2W4_Fmtflags@12@B DD 02H	; std::_Iosb<int>::unitbuf
CONST	ENDS
;	COMDAT ?skipws@?$_Iosb@H@std@@2W4_Fmtflags@12@B
CONST	SEGMENT
?skipws@?$_Iosb@H@std@@2W4_Fmtflags@12@B DD 01H		; std::_Iosb<int>::skipws
CONST	ENDS
;	COMDAT ?table_size@?$ctype@D@std@@2_KB
CONST	SEGMENT
?table_size@?$ctype@D@std@@2_KB DQ 0000000000000100H	; std::ctype<char>::table_size
CONST	ENDS
;	COMDAT ?none@?$_Locbase@H@std@@2HB
CONST	SEGMENT
?none@?$_Locbase@H@std@@2HB DD 00H			; std::_Locbase<int>::none
CONST	ENDS
;	COMDAT ?all@?$_Locbase@H@std@@2HB
CONST	SEGMENT
?all@?$_Locbase@H@std@@2HB DD 03fH			; std::_Locbase<int>::all
CONST	ENDS
;	COMDAT ?messages@?$_Locbase@H@std@@2HB
CONST	SEGMENT
?messages@?$_Locbase@H@std@@2HB DD 020H			; std::_Locbase<int>::messages
CONST	ENDS
;	COMDAT ?time@?$_Locbase@H@std@@2HB
CONST	SEGMENT
?time@?$_Locbase@H@std@@2HB DD 010H			; std::_Locbase<int>::time
CONST	ENDS
;	COMDAT ?numeric@?$_Locbase@H@std@@2HB
CONST	SEGMENT
?numeric@?$_Locbase@H@std@@2HB DD 08H			; std::_Locbase<int>::numeric
CONST	ENDS
;	COMDAT ?monetary@?$_Locbase@H@std@@2HB
CONST	SEGMENT
?monetary@?$_Locbase@H@std@@2HB DD 04H			; std::_Locbase<int>::monetary
CONST	ENDS
;	COMDAT ?ctype@?$_Locbase@H@std@@2HB
CONST	SEGMENT
?ctype@?$_Locbase@H@std@@2HB DD 02H			; std::_Locbase<int>::ctype
CONST	ENDS
;	COMDAT ?collate@?$_Locbase@H@std@@2HB
CONST	SEGMENT
?collate@?$_Locbase@H@std@@2HB DD 01H			; std::_Locbase<int>::collate
CONST	ENDS
;	COMDAT ?_Rank@?$_Arithmetic_traits@O@std@@2HB
CONST	SEGMENT
?_Rank@?$_Arithmetic_traits@O@std@@2HB DD 09H		; std::_Arithmetic_traits<long double>::_Rank
CONST	ENDS
;	COMDAT ?_Rank@?$_Arithmetic_traits@N@std@@2HB
CONST	SEGMENT
?_Rank@?$_Arithmetic_traits@N@std@@2HB DD 08H		; std::_Arithmetic_traits<double>::_Rank
CONST	ENDS
;	COMDAT ?_Rank@?$_Arithmetic_traits@M@std@@2HB
CONST	SEGMENT
?_Rank@?$_Arithmetic_traits@M@std@@2HB DD 07H		; std::_Arithmetic_traits<float>::_Rank
CONST	ENDS
;	COMDAT ?_Rank@?$_Arithmetic_traits@_K@std@@2HB
CONST	SEGMENT
?_Rank@?$_Arithmetic_traits@_K@std@@2HB DD 06H		; std::_Arithmetic_traits<unsigned __int64>::_Rank
CONST	ENDS
;	COMDAT ?_Rank@?$_Arithmetic_traits@_J@std@@2HB
CONST	SEGMENT
?_Rank@?$_Arithmetic_traits@_J@std@@2HB DD 06H		; std::_Arithmetic_traits<__int64>::_Rank
CONST	ENDS
;	COMDAT ?_Rank@?$_Arithmetic_traits@K@std@@2HB
CONST	SEGMENT
?_Rank@?$_Arithmetic_traits@K@std@@2HB DD 05H		; std::_Arithmetic_traits<unsigned long>::_Rank
CONST	ENDS
;	COMDAT ?_Rank@?$_Arithmetic_traits@J@std@@2HB
CONST	SEGMENT
?_Rank@?$_Arithmetic_traits@J@std@@2HB DD 05H		; std::_Arithmetic_traits<long>::_Rank
CONST	ENDS
;	COMDAT ?_Rank@?$_Arithmetic_traits@I@std@@2HB
CONST	SEGMENT
?_Rank@?$_Arithmetic_traits@I@std@@2HB DD 04H		; std::_Arithmetic_traits<unsigned int>::_Rank
CONST	ENDS
;	COMDAT ?_Rank@?$_Arithmetic_traits@H@std@@2HB
CONST	SEGMENT
?_Rank@?$_Arithmetic_traits@H@std@@2HB DD 04H		; std::_Arithmetic_traits<int>::_Rank
CONST	ENDS
;	COMDAT ?_Rank@?$_Arithmetic_traits@G@std@@2HB
CONST	SEGMENT
?_Rank@?$_Arithmetic_traits@G@std@@2HB DD 03H		; std::_Arithmetic_traits<unsigned short>::_Rank
CONST	ENDS
;	COMDAT ?_Rank@?$_Arithmetic_traits@F@std@@2HB
CONST	SEGMENT
?_Rank@?$_Arithmetic_traits@F@std@@2HB DD 03H		; std::_Arithmetic_traits<short>::_Rank
CONST	ENDS
;	COMDAT ?_Rank@?$_Arithmetic_traits@E@std@@2HB
CONST	SEGMENT
?_Rank@?$_Arithmetic_traits@E@std@@2HB DD 02H		; std::_Arithmetic_traits<unsigned char>::_Rank
CONST	ENDS
;	COMDAT ?_Rank@?$_Arithmetic_traits@C@std@@2HB
CONST	SEGMENT
?_Rank@?$_Arithmetic_traits@C@std@@2HB DD 02H		; std::_Arithmetic_traits<signed char>::_Rank
CONST	ENDS
;	COMDAT ?_Rank@?$_Arithmetic_traits@D@std@@2HB
CONST	SEGMENT
?_Rank@?$_Arithmetic_traits@D@std@@2HB DD 02H		; std::_Arithmetic_traits<char>::_Rank
CONST	ENDS
;	COMDAT ?_Rank@?$_Arithmetic_traits@_N@std@@2HB
CONST	SEGMENT
?_Rank@?$_Arithmetic_traits@_N@std@@2HB DD 01H		; std::_Arithmetic_traits<bool>::_Rank
CONST	ENDS
;	COMDAT ?value@?$integral_constant@_K$0A@@tr1@std@@2_KB
CONST	SEGMENT
?value@?$integral_constant@_K$0A@@tr1@std@@2_KB DQ 0000000000000000H ; std::tr1::integral_constant<unsigned __int64,0>::value
CONST	ENDS
;	COMDAT ?value@?$integral_constant@_N$00@tr1@std@@2_NB
CONST	SEGMENT
?value@?$integral_constant@_N$00@tr1@std@@2_NB DB 01H	; std::tr1::integral_constant<bool,1>::value
CONST	ENDS
;	COMDAT ?value@?$integral_constant@_N$0A@@tr1@std@@2_NB
CONST	SEGMENT
?value@?$integral_constant@_N$0A@@tr1@std@@2_NB DB 00H	; std::tr1::integral_constant<bool,0>::value
CONST	ENDS
;	COMDAT ?min_exponent10@?$numeric_limits@O@std@@2HB
CONST	SEGMENT
?min_exponent10@?$numeric_limits@O@std@@2HB DD 0fffffecdH ; std::numeric_limits<long double>::min_exponent10
CONST	ENDS
;	COMDAT ?min_exponent@?$numeric_limits@O@std@@2HB
CONST	SEGMENT
?min_exponent@?$numeric_limits@O@std@@2HB DD 0fffffc03H	; std::numeric_limits<long double>::min_exponent
CONST	ENDS
;	COMDAT ?max_exponent10@?$numeric_limits@O@std@@2HB
CONST	SEGMENT
?max_exponent10@?$numeric_limits@O@std@@2HB DD 0134H	; std::numeric_limits<long double>::max_exponent10
CONST	ENDS
;	COMDAT ?max_exponent@?$numeric_limits@O@std@@2HB
CONST	SEGMENT
?max_exponent@?$numeric_limits@O@std@@2HB DD 0400H	; std::numeric_limits<long double>::max_exponent
CONST	ENDS
;	COMDAT ?max_digits10@?$numeric_limits@O@std@@2HB
CONST	SEGMENT
?max_digits10@?$numeric_limits@O@std@@2HB DD 011H	; std::numeric_limits<long double>::max_digits10
CONST	ENDS
;	COMDAT ?digits10@?$numeric_limits@O@std@@2HB
CONST	SEGMENT
?digits10@?$numeric_limits@O@std@@2HB DD 0fH		; std::numeric_limits<long double>::digits10
CONST	ENDS
;	COMDAT ?digits@?$numeric_limits@O@std@@2HB
CONST	SEGMENT
?digits@?$numeric_limits@O@std@@2HB DD 035H		; std::numeric_limits<long double>::digits
CONST	ENDS
;	COMDAT ?min_exponent10@?$numeric_limits@N@std@@2HB
CONST	SEGMENT
?min_exponent10@?$numeric_limits@N@std@@2HB DD 0fffffecdH ; std::numeric_limits<double>::min_exponent10
CONST	ENDS
;	COMDAT ?min_exponent@?$numeric_limits@N@std@@2HB
CONST	SEGMENT
?min_exponent@?$numeric_limits@N@std@@2HB DD 0fffffc03H	; std::numeric_limits<double>::min_exponent
CONST	ENDS
;	COMDAT ?max_exponent10@?$numeric_limits@N@std@@2HB
CONST	SEGMENT
?max_exponent10@?$numeric_limits@N@std@@2HB DD 0134H	; std::numeric_limits<double>::max_exponent10
CONST	ENDS
;	COMDAT ?max_exponent@?$numeric_limits@N@std@@2HB
CONST	SEGMENT
?max_exponent@?$numeric_limits@N@std@@2HB DD 0400H	; std::numeric_limits<double>::max_exponent
CONST	ENDS
;	COMDAT ?max_digits10@?$numeric_limits@N@std@@2HB
CONST	SEGMENT
?max_digits10@?$numeric_limits@N@std@@2HB DD 011H	; std::numeric_limits<double>::max_digits10
CONST	ENDS
;	COMDAT ?digits10@?$numeric_limits@N@std@@2HB
CONST	SEGMENT
?digits10@?$numeric_limits@N@std@@2HB DD 0fH		; std::numeric_limits<double>::digits10
CONST	ENDS
;	COMDAT ?digits@?$numeric_limits@N@std@@2HB
CONST	SEGMENT
?digits@?$numeric_limits@N@std@@2HB DD 035H		; std::numeric_limits<double>::digits
CONST	ENDS
;	COMDAT ?min_exponent10@?$numeric_limits@M@std@@2HB
CONST	SEGMENT
?min_exponent10@?$numeric_limits@M@std@@2HB DD 0ffffffdbH ; std::numeric_limits<float>::min_exponent10
CONST	ENDS
;	COMDAT ?min_exponent@?$numeric_limits@M@std@@2HB
CONST	SEGMENT
?min_exponent@?$numeric_limits@M@std@@2HB DD 0ffffff83H	; std::numeric_limits<float>::min_exponent
CONST	ENDS
;	COMDAT ?max_exponent10@?$numeric_limits@M@std@@2HB
CONST	SEGMENT
?max_exponent10@?$numeric_limits@M@std@@2HB DD 026H	; std::numeric_limits<float>::max_exponent10
CONST	ENDS
;	COMDAT ?max_exponent@?$numeric_limits@M@std@@2HB
CONST	SEGMENT
?max_exponent@?$numeric_limits@M@std@@2HB DD 080H	; std::numeric_limits<float>::max_exponent
CONST	ENDS
;	COMDAT ?max_digits10@?$numeric_limits@M@std@@2HB
CONST	SEGMENT
?max_digits10@?$numeric_limits@M@std@@2HB DD 08H	; std::numeric_limits<float>::max_digits10
CONST	ENDS
;	COMDAT ?digits10@?$numeric_limits@M@std@@2HB
CONST	SEGMENT
?digits10@?$numeric_limits@M@std@@2HB DD 06H		; std::numeric_limits<float>::digits10
CONST	ENDS
;	COMDAT ?digits@?$numeric_limits@M@std@@2HB
CONST	SEGMENT
?digits@?$numeric_limits@M@std@@2HB DD 018H		; std::numeric_limits<float>::digits
CONST	ENDS
;	COMDAT ?max_digits10@?$numeric_limits@_K@std@@2HB
CONST	SEGMENT
?max_digits10@?$numeric_limits@_K@std@@2HB DD 015H	; std::numeric_limits<unsigned __int64>::max_digits10
CONST	ENDS
;	COMDAT ?digits10@?$numeric_limits@_K@std@@2HB
CONST	SEGMENT
?digits10@?$numeric_limits@_K@std@@2HB DD 013H		; std::numeric_limits<unsigned __int64>::digits10
CONST	ENDS
;	COMDAT ?digits@?$numeric_limits@_K@std@@2HB
CONST	SEGMENT
?digits@?$numeric_limits@_K@std@@2HB DD 040H		; std::numeric_limits<unsigned __int64>::digits
CONST	ENDS
;	COMDAT ?is_signed@?$numeric_limits@_K@std@@2_NB
CONST	SEGMENT
?is_signed@?$numeric_limits@_K@std@@2_NB DB 00H		; std::numeric_limits<unsigned __int64>::is_signed
CONST	ENDS
;	COMDAT ?max_digits10@?$numeric_limits@_J@std@@2HB
CONST	SEGMENT
?max_digits10@?$numeric_limits@_J@std@@2HB DD 014H	; std::numeric_limits<__int64>::max_digits10
CONST	ENDS
;	COMDAT ?digits10@?$numeric_limits@_J@std@@2HB
CONST	SEGMENT
?digits10@?$numeric_limits@_J@std@@2HB DD 012H		; std::numeric_limits<__int64>::digits10
CONST	ENDS
;	COMDAT ?digits@?$numeric_limits@_J@std@@2HB
CONST	SEGMENT
?digits@?$numeric_limits@_J@std@@2HB DD 03fH		; std::numeric_limits<__int64>::digits
CONST	ENDS
;	COMDAT ?is_signed@?$numeric_limits@_J@std@@2_NB
CONST	SEGMENT
?is_signed@?$numeric_limits@_J@std@@2_NB DB 01H		; std::numeric_limits<__int64>::is_signed
CONST	ENDS
;	COMDAT ?max_digits10@?$numeric_limits@K@std@@2HB
CONST	SEGMENT
?max_digits10@?$numeric_limits@K@std@@2HB DD 0bH	; std::numeric_limits<unsigned long>::max_digits10
CONST	ENDS
;	COMDAT ?digits10@?$numeric_limits@K@std@@2HB
CONST	SEGMENT
?digits10@?$numeric_limits@K@std@@2HB DD 09H		; std::numeric_limits<unsigned long>::digits10
CONST	ENDS
;	COMDAT ?digits@?$numeric_limits@K@std@@2HB
CONST	SEGMENT
?digits@?$numeric_limits@K@std@@2HB DD 020H		; std::numeric_limits<unsigned long>::digits
CONST	ENDS
;	COMDAT ?is_signed@?$numeric_limits@K@std@@2_NB
CONST	SEGMENT
?is_signed@?$numeric_limits@K@std@@2_NB DB 00H		; std::numeric_limits<unsigned long>::is_signed
CONST	ENDS
;	COMDAT ?max_digits10@?$numeric_limits@J@std@@2HB
CONST	SEGMENT
?max_digits10@?$numeric_limits@J@std@@2HB DD 0bH	; std::numeric_limits<long>::max_digits10
CONST	ENDS
;	COMDAT ?digits10@?$numeric_limits@J@std@@2HB
CONST	SEGMENT
?digits10@?$numeric_limits@J@std@@2HB DD 09H		; std::numeric_limits<long>::digits10
CONST	ENDS
;	COMDAT ?digits@?$numeric_limits@J@std@@2HB
CONST	SEGMENT
?digits@?$numeric_limits@J@std@@2HB DD 01fH		; std::numeric_limits<long>::digits
CONST	ENDS
;	COMDAT ?is_signed@?$numeric_limits@J@std@@2_NB
CONST	SEGMENT
?is_signed@?$numeric_limits@J@std@@2_NB DB 01H		; std::numeric_limits<long>::is_signed
CONST	ENDS
;	COMDAT ?max_digits10@?$numeric_limits@I@std@@2HB
CONST	SEGMENT
?max_digits10@?$numeric_limits@I@std@@2HB DD 0bH	; std::numeric_limits<unsigned int>::max_digits10
CONST	ENDS
;	COMDAT ?digits10@?$numeric_limits@I@std@@2HB
CONST	SEGMENT
?digits10@?$numeric_limits@I@std@@2HB DD 09H		; std::numeric_limits<unsigned int>::digits10
CONST	ENDS
;	COMDAT ?digits@?$numeric_limits@I@std@@2HB
CONST	SEGMENT
?digits@?$numeric_limits@I@std@@2HB DD 020H		; std::numeric_limits<unsigned int>::digits
CONST	ENDS
;	COMDAT ?is_signed@?$numeric_limits@I@std@@2_NB
CONST	SEGMENT
?is_signed@?$numeric_limits@I@std@@2_NB DB 00H		; std::numeric_limits<unsigned int>::is_signed
CONST	ENDS
;	COMDAT ?max_digits10@?$numeric_limits@H@std@@2HB
CONST	SEGMENT
?max_digits10@?$numeric_limits@H@std@@2HB DD 0bH	; std::numeric_limits<int>::max_digits10
CONST	ENDS
;	COMDAT ?digits10@?$numeric_limits@H@std@@2HB
CONST	SEGMENT
?digits10@?$numeric_limits@H@std@@2HB DD 09H		; std::numeric_limits<int>::digits10
CONST	ENDS
;	COMDAT ?digits@?$numeric_limits@H@std@@2HB
CONST	SEGMENT
?digits@?$numeric_limits@H@std@@2HB DD 01fH		; std::numeric_limits<int>::digits
CONST	ENDS
;	COMDAT ?is_signed@?$numeric_limits@H@std@@2_NB
CONST	SEGMENT
?is_signed@?$numeric_limits@H@std@@2_NB DB 01H		; std::numeric_limits<int>::is_signed
CONST	ENDS
;	COMDAT ?max_digits10@?$numeric_limits@G@std@@2HB
CONST	SEGMENT
?max_digits10@?$numeric_limits@G@std@@2HB DD 06H	; std::numeric_limits<unsigned short>::max_digits10
CONST	ENDS
;	COMDAT ?digits10@?$numeric_limits@G@std@@2HB
CONST	SEGMENT
?digits10@?$numeric_limits@G@std@@2HB DD 04H		; std::numeric_limits<unsigned short>::digits10
CONST	ENDS
;	COMDAT ?digits@?$numeric_limits@G@std@@2HB
CONST	SEGMENT
?digits@?$numeric_limits@G@std@@2HB DD 010H		; std::numeric_limits<unsigned short>::digits
CONST	ENDS
;	COMDAT ?is_signed@?$numeric_limits@G@std@@2_NB
CONST	SEGMENT
?is_signed@?$numeric_limits@G@std@@2_NB DB 00H		; std::numeric_limits<unsigned short>::is_signed
CONST	ENDS
;	COMDAT ?max_digits10@?$numeric_limits@F@std@@2HB
CONST	SEGMENT
?max_digits10@?$numeric_limits@F@std@@2HB DD 06H	; std::numeric_limits<short>::max_digits10
CONST	ENDS
;	COMDAT ?digits10@?$numeric_limits@F@std@@2HB
CONST	SEGMENT
?digits10@?$numeric_limits@F@std@@2HB DD 04H		; std::numeric_limits<short>::digits10
CONST	ENDS
;	COMDAT ?digits@?$numeric_limits@F@std@@2HB
CONST	SEGMENT
?digits@?$numeric_limits@F@std@@2HB DD 0fH		; std::numeric_limits<short>::digits
CONST	ENDS
;	COMDAT ?is_signed@?$numeric_limits@F@std@@2_NB
CONST	SEGMENT
?is_signed@?$numeric_limits@F@std@@2_NB DB 01H		; std::numeric_limits<short>::is_signed
CONST	ENDS
;	COMDAT ?max_digits10@?$numeric_limits@E@std@@2HB
CONST	SEGMENT
?max_digits10@?$numeric_limits@E@std@@2HB DD 04H	; std::numeric_limits<unsigned char>::max_digits10
CONST	ENDS
;	COMDAT ?digits10@?$numeric_limits@E@std@@2HB
CONST	SEGMENT
?digits10@?$numeric_limits@E@std@@2HB DD 02H		; std::numeric_limits<unsigned char>::digits10
CONST	ENDS
;	COMDAT ?digits@?$numeric_limits@E@std@@2HB
CONST	SEGMENT
?digits@?$numeric_limits@E@std@@2HB DD 08H		; std::numeric_limits<unsigned char>::digits
CONST	ENDS
;	COMDAT ?is_signed@?$numeric_limits@E@std@@2_NB
CONST	SEGMENT
?is_signed@?$numeric_limits@E@std@@2_NB DB 00H		; std::numeric_limits<unsigned char>::is_signed
CONST	ENDS
;	COMDAT ?max_digits10@?$numeric_limits@C@std@@2HB
CONST	SEGMENT
?max_digits10@?$numeric_limits@C@std@@2HB DD 04H	; std::numeric_limits<signed char>::max_digits10
CONST	ENDS
;	COMDAT ?digits10@?$numeric_limits@C@std@@2HB
CONST	SEGMENT
?digits10@?$numeric_limits@C@std@@2HB DD 02H		; std::numeric_limits<signed char>::digits10
CONST	ENDS
;	COMDAT ?digits@?$numeric_limits@C@std@@2HB
CONST	SEGMENT
?digits@?$numeric_limits@C@std@@2HB DD 07H		; std::numeric_limits<signed char>::digits
CONST	ENDS
;	COMDAT ?is_signed@?$numeric_limits@C@std@@2_NB
CONST	SEGMENT
?is_signed@?$numeric_limits@C@std@@2_NB DB 01H		; std::numeric_limits<signed char>::is_signed
CONST	ENDS
;	COMDAT ?max_digits10@?$numeric_limits@_N@std@@2HB
CONST	SEGMENT
?max_digits10@?$numeric_limits@_N@std@@2HB DD 00H	; std::numeric_limits<bool>::max_digits10
CONST	ENDS
;	COMDAT ?digits10@?$numeric_limits@_N@std@@2HB
CONST	SEGMENT
?digits10@?$numeric_limits@_N@std@@2HB DD 00H		; std::numeric_limits<bool>::digits10
CONST	ENDS
;	COMDAT ?digits@?$numeric_limits@_N@std@@2HB
CONST	SEGMENT
?digits@?$numeric_limits@_N@std@@2HB DD 01H		; std::numeric_limits<bool>::digits
CONST	ENDS
;	COMDAT ?is_signed@?$numeric_limits@_N@std@@2_NB
CONST	SEGMENT
?is_signed@?$numeric_limits@_N@std@@2_NB DB 00H		; std::numeric_limits<bool>::is_signed
CONST	ENDS
;	COMDAT ?is_modulo@?$numeric_limits@_N@std@@2_NB
CONST	SEGMENT
?is_modulo@?$numeric_limits@_N@std@@2_NB DB 00H		; std::numeric_limits<bool>::is_modulo
CONST	ENDS
;	COMDAT ?max_digits10@?$numeric_limits@_W@std@@2HB
CONST	SEGMENT
?max_digits10@?$numeric_limits@_W@std@@2HB DD 06H	; std::numeric_limits<wchar_t>::max_digits10
CONST	ENDS
;	COMDAT ?digits10@?$numeric_limits@_W@std@@2HB
CONST	SEGMENT
?digits10@?$numeric_limits@_W@std@@2HB DD 04H		; std::numeric_limits<wchar_t>::digits10
CONST	ENDS
;	COMDAT ?digits@?$numeric_limits@_W@std@@2HB
CONST	SEGMENT
?digits@?$numeric_limits@_W@std@@2HB DD 010H		; std::numeric_limits<wchar_t>::digits
CONST	ENDS
;	COMDAT ?is_signed@?$numeric_limits@_W@std@@2_NB
CONST	SEGMENT
?is_signed@?$numeric_limits@_W@std@@2_NB DB 00H		; std::numeric_limits<wchar_t>::is_signed
CONST	ENDS
;	COMDAT ?max_digits10@?$numeric_limits@D@std@@2HB
CONST	SEGMENT
?max_digits10@?$numeric_limits@D@std@@2HB DD 04H	; std::numeric_limits<char>::max_digits10
CONST	ENDS
;	COMDAT ?digits10@?$numeric_limits@D@std@@2HB
CONST	SEGMENT
?digits10@?$numeric_limits@D@std@@2HB DD 02H		; std::numeric_limits<char>::digits10
CONST	ENDS
;	COMDAT ?digits@?$numeric_limits@D@std@@2HB
CONST	SEGMENT
?digits@?$numeric_limits@D@std@@2HB DD 07H		; std::numeric_limits<char>::digits
CONST	ENDS
;	COMDAT ?is_signed@?$numeric_limits@D@std@@2_NB
CONST	SEGMENT
?is_signed@?$numeric_limits@D@std@@2_NB DB 01H		; std::numeric_limits<char>::is_signed
CONST	ENDS
;	COMDAT ?radix@_Num_float_base@std@@2HB
CONST	SEGMENT
?radix@_Num_float_base@std@@2HB DD 02H			; std::_Num_float_base::radix
CONST	ENDS
;	COMDAT ?round_style@_Num_float_base@std@@2W4float_round_style@2@B
CONST	SEGMENT
?round_style@_Num_float_base@std@@2W4float_round_style@2@B DD 01H ; std::_Num_float_base::round_style
CONST	ENDS
;	COMDAT ?traps@_Num_float_base@std@@2_NB
CONST	SEGMENT
?traps@_Num_float_base@std@@2_NB DB 01H			; std::_Num_float_base::traps
CONST	ENDS
;	COMDAT ?tinyness_before@_Num_float_base@std@@2_NB
CONST	SEGMENT
?tinyness_before@_Num_float_base@std@@2_NB DB 01H	; std::_Num_float_base::tinyness_before
CONST	ENDS
;	COMDAT ?is_specialized@_Num_float_base@std@@2_NB
CONST	SEGMENT
?is_specialized@_Num_float_base@std@@2_NB DB 01H	; std::_Num_float_base::is_specialized
CONST	ENDS
;	COMDAT ?is_signed@_Num_float_base@std@@2_NB
CONST	SEGMENT
?is_signed@_Num_float_base@std@@2_NB DB 01H		; std::_Num_float_base::is_signed
CONST	ENDS
;	COMDAT ?is_modulo@_Num_float_base@std@@2_NB
CONST	SEGMENT
?is_modulo@_Num_float_base@std@@2_NB DB 00H		; std::_Num_float_base::is_modulo
CONST	ENDS
;	COMDAT ?is_integer@_Num_float_base@std@@2_NB
CONST	SEGMENT
?is_integer@_Num_float_base@std@@2_NB DB 00H		; std::_Num_float_base::is_integer
CONST	ENDS
;	COMDAT ?is_iec559@_Num_float_base@std@@2_NB
CONST	SEGMENT
?is_iec559@_Num_float_base@std@@2_NB DB 01H		; std::_Num_float_base::is_iec559
CONST	ENDS
;	COMDAT ?is_exact@_Num_float_base@std@@2_NB
CONST	SEGMENT
?is_exact@_Num_float_base@std@@2_NB DB 00H		; std::_Num_float_base::is_exact
CONST	ENDS
;	COMDAT ?is_bounded@_Num_float_base@std@@2_NB
CONST	SEGMENT
?is_bounded@_Num_float_base@std@@2_NB DB 01H		; std::_Num_float_base::is_bounded
CONST	ENDS
;	COMDAT ?has_signaling_NaN@_Num_float_base@std@@2_NB
CONST	SEGMENT
?has_signaling_NaN@_Num_float_base@std@@2_NB DB 01H	; std::_Num_float_base::has_signaling_NaN
CONST	ENDS
;	COMDAT ?has_quiet_NaN@_Num_float_base@std@@2_NB
CONST	SEGMENT
?has_quiet_NaN@_Num_float_base@std@@2_NB DB 01H		; std::_Num_float_base::has_quiet_NaN
CONST	ENDS
;	COMDAT ?has_infinity@_Num_float_base@std@@2_NB
CONST	SEGMENT
?has_infinity@_Num_float_base@std@@2_NB DB 01H		; std::_Num_float_base::has_infinity
CONST	ENDS
;	COMDAT ?has_denorm_loss@_Num_float_base@std@@2_NB
CONST	SEGMENT
?has_denorm_loss@_Num_float_base@std@@2_NB DB 01H	; std::_Num_float_base::has_denorm_loss
CONST	ENDS
;	COMDAT ?has_denorm@_Num_float_base@std@@2W4float_denorm_style@2@B
CONST	SEGMENT
?has_denorm@_Num_float_base@std@@2W4float_denorm_style@2@B DD 01H ; std::_Num_float_base::has_denorm
CONST	ENDS
;	COMDAT ?radix@_Num_int_base@std@@2HB
CONST	SEGMENT
?radix@_Num_int_base@std@@2HB DD 02H			; std::_Num_int_base::radix
CONST	ENDS
;	COMDAT ?is_specialized@_Num_int_base@std@@2_NB
CONST	SEGMENT
?is_specialized@_Num_int_base@std@@2_NB DB 01H		; std::_Num_int_base::is_specialized
CONST	ENDS
;	COMDAT ?is_modulo@_Num_int_base@std@@2_NB
CONST	SEGMENT
?is_modulo@_Num_int_base@std@@2_NB DB 01H		; std::_Num_int_base::is_modulo
CONST	ENDS
;	COMDAT ?is_integer@_Num_int_base@std@@2_NB
CONST	SEGMENT
?is_integer@_Num_int_base@std@@2_NB DB 01H		; std::_Num_int_base::is_integer
CONST	ENDS
;	COMDAT ?is_exact@_Num_int_base@std@@2_NB
CONST	SEGMENT
?is_exact@_Num_int_base@std@@2_NB DB 01H		; std::_Num_int_base::is_exact
CONST	ENDS
;	COMDAT ?is_bounded@_Num_int_base@std@@2_NB
CONST	SEGMENT
?is_bounded@_Num_int_base@std@@2_NB DB 01H		; std::_Num_int_base::is_bounded
CONST	ENDS
;	COMDAT ?radix@_Num_base@std@@2HB
CONST	SEGMENT
?radix@_Num_base@std@@2HB DD 00H			; std::_Num_base::radix
CONST	ENDS
;	COMDAT ?min_exponent10@_Num_base@std@@2HB
CONST	SEGMENT
?min_exponent10@_Num_base@std@@2HB DD 00H		; std::_Num_base::min_exponent10
CONST	ENDS
;	COMDAT ?min_exponent@_Num_base@std@@2HB
CONST	SEGMENT
?min_exponent@_Num_base@std@@2HB DD 00H			; std::_Num_base::min_exponent
CONST	ENDS
;	COMDAT ?max_exponent10@_Num_base@std@@2HB
CONST	SEGMENT
?max_exponent10@_Num_base@std@@2HB DD 00H		; std::_Num_base::max_exponent10
CONST	ENDS
;	COMDAT ?max_exponent@_Num_base@std@@2HB
CONST	SEGMENT
?max_exponent@_Num_base@std@@2HB DD 00H			; std::_Num_base::max_exponent
CONST	ENDS
;	COMDAT ?max_digits10@_Num_base@std@@2HB
CONST	SEGMENT
?max_digits10@_Num_base@std@@2HB DD 00H			; std::_Num_base::max_digits10
CONST	ENDS
;	COMDAT ?digits10@_Num_base@std@@2HB
CONST	SEGMENT
?digits10@_Num_base@std@@2HB DD 00H			; std::_Num_base::digits10
CONST	ENDS
;	COMDAT ?digits@_Num_base@std@@2HB
CONST	SEGMENT
?digits@_Num_base@std@@2HB DD 00H			; std::_Num_base::digits
CONST	ENDS
;	COMDAT ?round_style@_Num_base@std@@2W4float_round_style@2@B
CONST	SEGMENT
?round_style@_Num_base@std@@2W4float_round_style@2@B DD 00H ; std::_Num_base::round_style
CONST	ENDS
;	COMDAT ?traps@_Num_base@std@@2_NB
CONST	SEGMENT
?traps@_Num_base@std@@2_NB DB 00H			; std::_Num_base::traps
CONST	ENDS
;	COMDAT ?tinyness_before@_Num_base@std@@2_NB
CONST	SEGMENT
?tinyness_before@_Num_base@std@@2_NB DB 00H		; std::_Num_base::tinyness_before
CONST	ENDS
;	COMDAT ?is_specialized@_Num_base@std@@2_NB
CONST	SEGMENT
?is_specialized@_Num_base@std@@2_NB DB 00H		; std::_Num_base::is_specialized
CONST	ENDS
;	COMDAT ?is_signed@_Num_base@std@@2_NB
CONST	SEGMENT
?is_signed@_Num_base@std@@2_NB DB 00H			; std::_Num_base::is_signed
CONST	ENDS
;	COMDAT ?is_modulo@_Num_base@std@@2_NB
CONST	SEGMENT
?is_modulo@_Num_base@std@@2_NB DB 00H			; std::_Num_base::is_modulo
CONST	ENDS
;	COMDAT ?is_integer@_Num_base@std@@2_NB
CONST	SEGMENT
?is_integer@_Num_base@std@@2_NB DB 00H			; std::_Num_base::is_integer
CONST	ENDS
;	COMDAT ?is_iec559@_Num_base@std@@2_NB
CONST	SEGMENT
?is_iec559@_Num_base@std@@2_NB DB 00H			; std::_Num_base::is_iec559
CONST	ENDS
;	COMDAT ?is_exact@_Num_base@std@@2_NB
CONST	SEGMENT
?is_exact@_Num_base@std@@2_NB DB 00H			; std::_Num_base::is_exact
CONST	ENDS
;	COMDAT ?is_bounded@_Num_base@std@@2_NB
CONST	SEGMENT
?is_bounded@_Num_base@std@@2_NB DB 00H			; std::_Num_base::is_bounded
CONST	ENDS
;	COMDAT ?has_signaling_NaN@_Num_base@std@@2_NB
CONST	SEGMENT
?has_signaling_NaN@_Num_base@std@@2_NB DB 00H		; std::_Num_base::has_signaling_NaN
CONST	ENDS
;	COMDAT ?has_quiet_NaN@_Num_base@std@@2_NB
CONST	SEGMENT
?has_quiet_NaN@_Num_base@std@@2_NB DB 00H		; std::_Num_base::has_quiet_NaN
CONST	ENDS
;	COMDAT ?has_infinity@_Num_base@std@@2_NB
CONST	SEGMENT
?has_infinity@_Num_base@std@@2_NB DB 00H		; std::_Num_base::has_infinity
CONST	ENDS
;	COMDAT ?has_denorm_loss@_Num_base@std@@2_NB
CONST	SEGMENT
?has_denorm_loss@_Num_base@std@@2_NB DB 00H		; std::_Num_base::has_denorm_loss
CONST	ENDS
;	COMDAT ?has_denorm@_Num_base@std@@2W4float_denorm_style@2@B
CONST	SEGMENT
?has_denorm@_Num_base@std@@2W4float_denorm_style@2@B DD 00H ; std::_Num_base::has_denorm
CONST	ENDS
PUBLIC	??0?$vector@PEAUTimer@streamsdk@@V?$allocator@PEAUTimer@streamsdk@@@std@@@std@@QEAA@XZ ; std::vector<streamsdk::Timer * __ptr64,std::allocator<streamsdk::Timer * __ptr64> >::vector<streamsdk::Timer * __ptr64,std::allocator<streamsdk::Timer * __ptr64> >
PUBLIC	??0SDKCommon@streamsdk@@QEAA@XZ			; streamsdk::SDKCommon::SDKCommon
EXTRN	_RTC_Shutdown:PROC
EXTRN	_RTC_InitBase:PROC
pdata	SEGMENT
$pdata$??0SDKCommon@streamsdk@@QEAA@XZ DD imagerel $LN4
	DD	imagerel $LN4+51
	DD	imagerel $unwind$??0SDKCommon@streamsdk@@QEAA@XZ
pdata	ENDS
xdata	SEGMENT
$unwind$??0SDKCommon@streamsdk@@QEAA@XZ DD 021e01H
	DD	07006320aH
xdata	ENDS
;	COMDAT rtc$TMZ
; File c:\development\cellct\tomographic_imaging - current\sdkutil\sdkcommon.cpp
rtc$TMZ	SEGMENT
_RTC_Shutdown.rtc$TMZ DQ FLAT:_RTC_Shutdown
rtc$TMZ	ENDS
;	COMDAT rtc$IMZ
rtc$IMZ	SEGMENT
_RTC_InitBase.rtc$IMZ DQ FLAT:_RTC_InitBase
; Function compile flags: /Odtp /RTCsu
rtc$IMZ	ENDS
_TEXT	SEGMENT
this$ = 48
??0SDKCommon@streamsdk@@QEAA@XZ PROC			; streamsdk::SDKCommon::SDKCommon
; Line 8
$LN4:
	mov	QWORD PTR [rsp+8], rcx
	push	rdi
	sub	rsp, 32					; 00000020H
	mov	rdi, rsp
	mov	ecx, 8
	mov	eax, -858993460				; ccccccccH
	rep stosd
	mov	rcx, QWORD PTR [rsp+48]
	mov	rcx, QWORD PTR this$[rsp]
	call	??0?$vector@PEAUTimer@streamsdk@@V?$allocator@PEAUTimer@streamsdk@@@std@@@std@@QEAA@XZ ; std::vector<streamsdk::Timer * __ptr64,std::allocator<streamsdk::Timer * __ptr64> >::vector<streamsdk::Timer * __ptr64,std::allocator<streamsdk::Timer * __ptr64> >
; Line 10
	mov	rax, QWORD PTR this$[rsp]
	add	rsp, 32					; 00000020H
	pop	rdi
	ret	0
??0SDKCommon@streamsdk@@QEAA@XZ ENDP			; streamsdk::SDKCommon::SDKCommon
_TEXT	ENDS
PUBLIC	??1?$vector@PEAUTimer@streamsdk@@V?$allocator@PEAUTimer@streamsdk@@@std@@@std@@QEAA@XZ ; std::vector<streamsdk::Timer * __ptr64,std::allocator<streamsdk::Timer * __ptr64> >::~vector<streamsdk::Timer * __ptr64,std::allocator<streamsdk::Timer * __ptr64> >
PUBLIC	??_GTimer@streamsdk@@QEAAPEAXI@Z		; streamsdk::Timer::`scalar deleting destructor'
PUBLIC	?pop_back@?$vector@PEAUTimer@streamsdk@@V?$allocator@PEAUTimer@streamsdk@@@std@@@std@@QEAAXXZ ; std::vector<streamsdk::Timer * __ptr64,std::allocator<streamsdk::Timer * __ptr64> >::pop_back
PUBLIC	?back@?$vector@PEAUTimer@streamsdk@@V?$allocator@PEAUTimer@streamsdk@@@std@@@std@@QEAAAEAPEAUTimer@streamsdk@@XZ ; std::vector<streamsdk::Timer * __ptr64,std::allocator<streamsdk::Timer * __ptr64> >::back
PUBLIC	?empty@?$vector@PEAUTimer@streamsdk@@V?$allocator@PEAUTimer@streamsdk@@@std@@@std@@QEBA_NXZ ; std::vector<streamsdk::Timer * __ptr64,std::allocator<streamsdk::Timer * __ptr64> >::empty
PUBLIC	??1SDKCommon@streamsdk@@QEAA@XZ			; streamsdk::SDKCommon::~SDKCommon
EXTRN	__CxxFrameHandler3:PROC
pdata	SEGMENT
$pdata$??1SDKCommon@streamsdk@@QEAA@XZ DD imagerel $LN8
	DD	imagerel $LN8+161
	DD	imagerel $unwind$??1SDKCommon@streamsdk@@QEAA@XZ
pdata	ENDS
pdata	SEGMENT
$pdata$?dtor$0@?0???1SDKCommon@streamsdk@@QEAA@XZ@4HA DD imagerel ?dtor$0@?0???1SDKCommon@streamsdk@@QEAA@XZ@4HA
	DD	imagerel ?dtor$0@?0???1SDKCommon@streamsdk@@QEAA@XZ@4HA+35
	DD	imagerel $unwind$?dtor$0@?0???1SDKCommon@streamsdk@@QEAA@XZ@4HA
pdata	ENDS
CONST	SEGMENT
	ORG $+5
$cppxdata$??1SDKCommon@streamsdk@@QEAA@XZ DD 019930522H
	DD	01H
	DD	imagerel $stateUnwindMap$??1SDKCommon@streamsdk@@QEAA@XZ
	DD	00H
	DD	00H
	DD	03H
	DD	imagerel $ip2state$??1SDKCommon@streamsdk@@QEAA@XZ
	DD	038H
	DD	00H
	DD	01H
CONST	ENDS
xdata	SEGMENT
$stateUnwindMap$??1SDKCommon@streamsdk@@QEAA@XZ DD 0ffffffffH
	DD	imagerel ?dtor$0@?0???1SDKCommon@streamsdk@@QEAA@XZ@4HA
$unwind$??1SDKCommon@streamsdk@@QEAA@XZ DD 022711H
	DD	07006920aH
	DD	imagerel __CxxFrameHandler3
	DD	imagerel $cppxdata$??1SDKCommon@streamsdk@@QEAA@XZ
$unwind$?dtor$0@?0???1SDKCommon@streamsdk@@QEAA@XZ@4HA DD 031001H
	DD	0700c4210H
	DD	0500bH
$ip2state$??1SDKCommon@streamsdk@@QEAA@XZ DD imagerel ??1SDKCommon@streamsdk@@QEAA@XZ
	DD	0ffffffffH
	DD	imagerel ??1SDKCommon@streamsdk@@QEAA@XZ+39
	DD	00H
	DD	imagerel ??1SDKCommon@streamsdk@@QEAA@XZ+145
	DD	0ffffffffH
; Function compile flags: /Odtp /RTCsu
xdata	ENDS
_TEXT	SEGMENT
temp$95661 = 32
$T106869 = 40
$T106870 = 48
$T106876 = 56
tv76 = 64
this$ = 96
??1SDKCommon@streamsdk@@QEAA@XZ PROC			; streamsdk::SDKCommon::~SDKCommon
; Line 13
$LN8:
	mov	QWORD PTR [rsp+8], rcx
	push	rdi
	sub	rsp, 80					; 00000050H
	mov	rdi, rsp
	mov	ecx, 20
	mov	eax, -858993460				; ccccccccH
	rep stosd
	mov	rcx, QWORD PTR [rsp+96]
	mov	QWORD PTR $T106876[rsp], -2
$LN2@SDKCommon:
; Line 14
	mov	rcx, QWORD PTR this$[rsp]
	call	?empty@?$vector@PEAUTimer@streamsdk@@V?$allocator@PEAUTimer@streamsdk@@@std@@@std@@QEBA_NXZ ; std::vector<streamsdk::Timer * __ptr64,std::allocator<streamsdk::Timer * __ptr64> >::empty
	movzx	eax, al
	test	eax, eax
	jne	SHORT $LN1@SDKCommon
; Line 16
	mov	rcx, QWORD PTR this$[rsp]
	call	?back@?$vector@PEAUTimer@streamsdk@@V?$allocator@PEAUTimer@streamsdk@@@std@@@std@@QEAAAEAPEAUTimer@streamsdk@@XZ ; std::vector<streamsdk::Timer * __ptr64,std::allocator<streamsdk::Timer * __ptr64> >::back
	mov	rax, QWORD PTR [rax]
	mov	QWORD PTR temp$95661[rsp], rax
; Line 17
	mov	rcx, QWORD PTR this$[rsp]
	call	?pop_back@?$vector@PEAUTimer@streamsdk@@V?$allocator@PEAUTimer@streamsdk@@@std@@@std@@QEAAXXZ ; std::vector<streamsdk::Timer * __ptr64,std::allocator<streamsdk::Timer * __ptr64> >::pop_back
; Line 18
	mov	rax, QWORD PTR temp$95661[rsp]
	mov	QWORD PTR $T106870[rsp], rax
	mov	rax, QWORD PTR $T106870[rsp]
	mov	QWORD PTR $T106869[rsp], rax
	cmp	QWORD PTR $T106869[rsp], 0
	je	SHORT $LN5@SDKCommon
	mov	edx, 1
	mov	rcx, QWORD PTR $T106869[rsp]
	call	??_GTimer@streamsdk@@QEAAPEAXI@Z
	mov	QWORD PTR tv76[rsp], rax
	jmp	SHORT $LN6@SDKCommon
$LN5@SDKCommon:
	mov	QWORD PTR tv76[rsp], 0
$LN6@SDKCommon:
; Line 19
	jmp	SHORT $LN2@SDKCommon
$LN1@SDKCommon:
; Line 20
	mov	rcx, QWORD PTR this$[rsp]
	call	??1?$vector@PEAUTimer@streamsdk@@V?$allocator@PEAUTimer@streamsdk@@@std@@@std@@QEAA@XZ ; std::vector<streamsdk::Timer * __ptr64,std::allocator<streamsdk::Timer * __ptr64> >::~vector<streamsdk::Timer * __ptr64,std::allocator<streamsdk::Timer * __ptr64> >
	add	rsp, 80					; 00000050H
	pop	rdi
	ret	0
??1SDKCommon@streamsdk@@QEAA@XZ ENDP			; streamsdk::SDKCommon::~SDKCommon
; Function compile flags: /Odtp /RTCsu
_TEXT	ENDS
text$x	SEGMENT
temp$95661 = 32
$T106869 = 40
$T106870 = 48
$T106876 = 56
tv76 = 64
this$ = 96
?dtor$0@?0???1SDKCommon@streamsdk@@QEAA@XZ@4HA PROC	; `streamsdk::SDKCommon::~SDKCommon'::`1'::dtor$0
	mov	QWORD PTR [rsp+8], rcx
	mov	QWORD PTR [rsp+16], rdx
	push	rbp
	push	rdi
	sub	rsp, 40					; 00000028H
	mov	rbp, rdx
	mov	rcx, QWORD PTR this$[rbp]
	call	??1?$vector@PEAUTimer@streamsdk@@V?$allocator@PEAUTimer@streamsdk@@@std@@@std@@QEAA@XZ ; std::vector<streamsdk::Timer * __ptr64,std::allocator<streamsdk::Timer * __ptr64> >::~vector<streamsdk::Timer * __ptr64,std::allocator<streamsdk::Timer * __ptr64> >
	add	rsp, 40					; 00000028H
	pop	rdi
	pop	rbp
	ret	0
?dtor$0@?0???1SDKCommon@streamsdk@@QEAA@XZ@4HA ENDP	; `streamsdk::SDKCommon::~SDKCommon'::`1'::dtor$0
text$x	ENDS
PUBLIC	??1Timer@streamsdk@@QEAA@XZ			; streamsdk::Timer::~Timer
EXTRN	??3@YAXPEAX@Z:PROC				; operator delete
;	COMDAT pdata
pdata	SEGMENT
$pdata$??_GTimer@streamsdk@@QEAAPEAXI@Z DD imagerel $LN4
	DD	imagerel $LN4+76
	DD	imagerel $unwind$??_GTimer@streamsdk@@QEAAPEAXI@Z
pdata	ENDS
;	COMDAT xdata
xdata	SEGMENT
$unwind$??_GTimer@streamsdk@@QEAAPEAXI@Z DD 022201H
	DD	0700a320eH
; Function compile flags: /Odtp /RTCsu
xdata	ENDS
;	COMDAT ??_GTimer@streamsdk@@QEAAPEAXI@Z
_TEXT	SEGMENT
this$ = 48
__flags$ = 56
??_GTimer@streamsdk@@QEAAPEAXI@Z PROC			; streamsdk::Timer::`scalar deleting destructor', COMDAT
$LN4:
	mov	DWORD PTR [rsp+16], edx
	mov	QWORD PTR [rsp+8], rcx
	push	rdi
	sub	rsp, 32					; 00000020H
	mov	rdi, rsp
	mov	ecx, 8
	mov	eax, -858993460				; ccccccccH
	rep stosd
	mov	rcx, QWORD PTR [rsp+48]
	mov	rcx, QWORD PTR this$[rsp]
	call	??1Timer@streamsdk@@QEAA@XZ
	mov	eax, DWORD PTR __flags$[rsp]
	and	eax, 1
	test	eax, eax
	je	SHORT $LN1@scalar
	mov	rcx, QWORD PTR this$[rsp]
	call	??3@YAXPEAX@Z				; operator delete
$LN1@scalar:
	mov	rax, QWORD PTR this$[rsp]
	add	rsp, 32					; 00000020H
	pop	rdi
	ret	0
??_GTimer@streamsdk@@QEAAPEAXI@Z ENDP			; streamsdk::Timer::`scalar deleting destructor'
_TEXT	ENDS
PUBLIC	??1?$basic_string@DU?$char_traits@D@std@@V?$allocator@D@2@@std@@QEAA@XZ ; std::basic_string<char,std::char_traits<char>,std::allocator<char> >::~basic_string<char,std::char_traits<char>,std::allocator<char> >
;	COMDAT pdata
pdata	SEGMENT
$pdata$??1Timer@streamsdk@@QEAA@XZ DD imagerel $LN4
	DD	imagerel $LN4+46
	DD	imagerel $unwind$??1Timer@streamsdk@@QEAA@XZ
pdata	ENDS
;	COMDAT xdata
xdata	SEGMENT
$unwind$??1Timer@streamsdk@@QEAA@XZ DD 021e01H
	DD	07006320aH
; Function compile flags: /Odtp /RTCsu
xdata	ENDS
;	COMDAT ??1Timer@streamsdk@@QEAA@XZ
_TEXT	SEGMENT
this$ = 48
??1Timer@streamsdk@@QEAA@XZ PROC			; streamsdk::Timer::~Timer, COMDAT
$LN4:
	mov	QWORD PTR [rsp+8], rcx
	push	rdi
	sub	rsp, 32					; 00000020H
	mov	rdi, rsp
	mov	ecx, 8
	mov	eax, -858993460				; ccccccccH
	rep stosd
	mov	rcx, QWORD PTR [rsp+48]
	mov	rcx, QWORD PTR this$[rsp]
	call	??1?$basic_string@DU?$char_traits@D@std@@V?$allocator@D@2@@std@@QEAA@XZ ; std::basic_string<char,std::char_traits<char>,std::allocator<char> >::~basic_string<char,std::char_traits<char>,std::allocator<char> >
	add	rsp, 32					; 00000020H
	pop	rdi
	ret	0
??1Timer@streamsdk@@QEAA@XZ ENDP			; streamsdk::Timer::~Timer
_TEXT	ENDS
PUBLIC	?substr@?$basic_string@DU?$char_traits@D@std@@V?$allocator@D@2@@std@@QEBA?AV12@_K0@Z ; std::basic_string<char,std::char_traits<char>,std::allocator<char> >::substr
PUBLIC	?find_last_of@?$basic_string@DU?$char_traits@D@std@@V?$allocator@D@2@@std@@QEBA_KD_K@Z ; std::basic_string<char,std::char_traits<char>,std::allocator<char> >::find_last_of
PUBLIC	?npos@?$basic_string@DU?$char_traits@D@std@@V?$allocator@D@2@@std@@2_KB ; std::basic_string<char,std::char_traits<char>,std::allocator<char> >::npos
PUBLIC	_TI3?AV?$basic_string@DU?$char_traits@D@std@@V?$allocator@D@2@@std@@
PUBLIC	??0?$basic_string@DU?$char_traits@D@std@@V?$allocator@D@2@@std@@QEAA@PEBD@Z ; std::basic_string<char,std::char_traits<char>,std::allocator<char> >::basic_string<char,std::char_traits<char>,std::allocator<char> >
PUBLIC	__$ArrayPad$
PUBLIC	?getPath@SDKCommon@streamsdk@@QEAA?AV?$basic_string@DU?$char_traits@D@std@@V?$allocator@D@2@@std@@XZ ; streamsdk::SDKCommon::getPath
PUBLIC	_CTA3?AV?$basic_string@DU?$char_traits@D@std@@V?$allocator@D@2@@std@@
PUBLIC	_CT??_R0?AV?$basic_string@DU?$char_traits@D@std@@V?$allocator@D@2@@std@@@8??0?$basic_string@DU?$char_traits@D@std@@V?$allocator@D@2@@std@@QEAA@AEBV01@@Z48
PUBLIC	??_R0?AV?$basic_string@DU?$char_traits@D@std@@V?$allocator@D@2@@std@@@8 ; std::basic_string<char,std::char_traits<char>,std::allocator<char> > `RTTI Type Descriptor'
PUBLIC	??0?$basic_string@DU?$char_traits@D@std@@V?$allocator@D@2@@std@@QEAA@AEBV01@@Z ; std::basic_string<char,std::char_traits<char>,std::allocator<char> >::basic_string<char,std::char_traits<char>,std::allocator<char> >
PUBLIC	_CT??_R0?AV?$_String_val@DV?$allocator@D@std@@@std@@@8??0?$_String_val@DV?$allocator@D@std@@@std@@QEAA@AEBV01@@Z48
PUBLIC	??_R0?AV?$_String_val@DV?$allocator@D@std@@@std@@@8 ; std::_String_val<char,std::allocator<char> > `RTTI Type Descriptor'
PUBLIC	??0?$_String_val@DV?$allocator@D@std@@@std@@QEAA@AEBV01@@Z ; std::_String_val<char,std::allocator<char> >::_String_val<char,std::allocator<char> >
PUBLIC	_CT??_R0?AU_Container_base12@std@@@8??0_Container_base12@std@@QEAA@AEBU01@@Z8
PUBLIC	??_R0?AU_Container_base12@std@@@8		; std::_Container_base12 `RTTI Type Descriptor'
PUBLIC	??0_Container_base12@std@@QEAA@AEBU01@@Z	; std::_Container_base12::_Container_base12
EXTRN	__GSHandlerCheck_EH:PROC
EXTRN	__imp_GetModuleFileNameA:PROC
EXTRN	__security_cookie:QWORD
EXTRN	__security_check_cookie:PROC
EXTRN	_RTC_CheckStackVars:PROC
EXTRN	_CxxThrowException:PROC
EXTRN	??_7type_info@@6B@:BYTE				; type_info::`vftable'
pdata	SEGMENT
$pdata$?getPath@SDKCommon@streamsdk@@QEAA?AV?$basic_string@DU?$char_traits@D@std@@V?$allocator@D@2@@std@@XZ DD imagerel $LN7
	DD	imagerel $LN7+316
	DD	imagerel $unwind$?getPath@SDKCommon@streamsdk@@QEAA?AV?$basic_string@DU?$char_traits@D@std@@V?$allocator@D@2@@std@@XZ
pdata	ENDS
pdata	SEGMENT
$pdata$?dtor$0@?0??getPath@SDKCommon@streamsdk@@QEAA?AV?$basic_string@DU?$char_traits@D@std@@V?$allocator@D@2@@std@@XZ@4HA DD imagerel ?dtor$0@?0??getPath@SDKCommon@streamsdk@@QEAA?AV?$basic_string@DU?$char_traits@D@std@@V?$allocator@D@2@@std@@XZ@4HA
	DD	imagerel ?dtor$0@?0??getPath@SDKCommon@streamsdk@@QEAA?AV?$basic_string@DU?$char_traits@D@std@@V?$allocator@D@2@@std@@XZ@4HA+38
	DD	imagerel $unwind$?dtor$0@?0??getPath@SDKCommon@streamsdk@@QEAA?AV?$basic_string@DU?$char_traits@D@std@@V?$allocator@D@2@@std@@XZ@4HA
$pdata$?dtor$1@?0??getPath@SDKCommon@streamsdk@@QEAA?AV?$basic_string@DU?$char_traits@D@std@@V?$allocator@D@2@@std@@XZ@4HA DD imagerel ?dtor$1@?0??getPath@SDKCommon@streamsdk@@QEAA?AV?$basic_string@DU?$char_traits@D@std@@V?$allocator@D@2@@std@@XZ@4HA
	DD	imagerel ?dtor$1@?0??getPath@SDKCommon@streamsdk@@QEAA?AV?$basic_string@DU?$char_traits@D@std@@V?$allocator@D@2@@std@@XZ@4HA+58
	DD	imagerel $unwind$?dtor$1@?0??getPath@SDKCommon@streamsdk@@QEAA?AV?$basic_string@DU?$char_traits@D@std@@V?$allocator@D@2@@std@@XZ@4HA
pdata	ENDS
;	COMDAT ??_R0?AU_Container_base12@std@@@8
_DATA	SEGMENT
??_R0?AU_Container_base12@std@@@8 DQ FLAT:??_7type_info@@6B@ ; std::_Container_base12 `RTTI Type Descriptor'
	DQ	0000000000000000H
	DB	'.?AU_Container_base12@std@@', 00H
_DATA	ENDS
;	COMDAT _CT??_R0?AU_Container_base12@std@@@8??0_Container_base12@std@@QEAA@AEBU01@@Z8
xdata$x	SEGMENT
_CT??_R0?AU_Container_base12@std@@@8??0_Container_base12@std@@QEAA@AEBU01@@Z8 DD 00H
	DD	imagerel ??_R0?AU_Container_base12@std@@@8
	DD	00H
	DD	0ffffffffH
	ORG $+4
	DD	08H
	DD	imagerel ??0_Container_base12@std@@QEAA@AEBU01@@Z
xdata$x	ENDS
;	COMDAT ??_R0?AV?$_String_val@DV?$allocator@D@std@@@std@@@8
_DATA	SEGMENT
??_R0?AV?$_String_val@DV?$allocator@D@std@@@std@@@8 DQ FLAT:??_7type_info@@6B@ ; std::_String_val<char,std::allocator<char> > `RTTI Type Descriptor'
	DQ	0000000000000000H
	DB	'.?AV?$_String_val@DV?$allocator@D@std@@@std@@', 00H
_DATA	ENDS
;	COMDAT _CT??_R0?AV?$_String_val@DV?$allocator@D@std@@@std@@@8??0?$_String_val@DV?$allocator@D@std@@@std@@QEAA@AEBV01@@Z48
xdata$x	SEGMENT
_CT??_R0?AV?$_String_val@DV?$allocator@D@std@@@std@@@8??0?$_String_val@DV?$allocator@D@std@@@std@@QEAA@AEBV01@@Z48 DD 00H
	DD	imagerel ??_R0?AV?$_String_val@DV?$allocator@D@std@@@std@@@8
	DD	00H
	DD	0ffffffffH
	ORG $+4
	DD	030H
	DD	imagerel ??0?$_String_val@DV?$allocator@D@std@@@std@@QEAA@AEBV01@@Z
xdata$x	ENDS
;	COMDAT ??_R0?AV?$basic_string@DU?$char_traits@D@std@@V?$allocator@D@2@@std@@@8
_DATA	SEGMENT
??_R0?AV?$basic_string@DU?$char_traits@D@std@@V?$allocator@D@2@@std@@@8 DQ FLAT:??_7type_info@@6B@ ; std::basic_string<char,std::char_traits<char>,std::allocator<char> > `RTTI Type Descriptor'
	DQ	0000000000000000H
	DB	'.?AV?$basic_string@DU?$char_traits@D@std@@V?$allocator@D'
	DB	'@2@@std@@', 00H
_DATA	ENDS
;	COMDAT _CT??_R0?AV?$basic_string@DU?$char_traits@D@std@@V?$allocator@D@2@@std@@@8??0?$basic_string@DU?$char_traits@D@std@@V?$allocator@D@2@@std@@QEAA@AEBV01@@Z48
xdata$x	SEGMENT
_CT??_R0?AV?$basic_string@DU?$char_traits@D@std@@V?$allocator@D@2@@std@@@8??0?$basic_string@DU?$char_traits@D@std@@V?$allocator@D@2@@std@@QEAA@AEBV01@@Z48 DD 00H
	DD	imagerel ??_R0?AV?$basic_string@DU?$char_traits@D@std@@V?$allocator@D@2@@std@@@8
	DD	00H
	DD	0ffffffffH
	ORG $+4
	DD	030H
	DD	imagerel ??0?$basic_string@DU?$char_traits@D@std@@V?$allocator@D@2@@std@@QEAA@AEBV01@@Z
xdata$x	ENDS
;	COMDAT _CTA3?AV?$basic_string@DU?$char_traits@D@std@@V?$allocator@D@2@@std@@
xdata$x	SEGMENT
_CTA3?AV?$basic_string@DU?$char_traits@D@std@@V?$allocator@D@2@@std@@ DD 03H
	DD	imagerel _CT??_R0?AV?$basic_string@DU?$char_traits@D@std@@V?$allocator@D@2@@std@@@8??0?$basic_string@DU?$char_traits@D@std@@V?$allocator@D@2@@std@@QEAA@AEBV01@@Z48
	DD	imagerel _CT??_R0?AV?$_String_val@DV?$allocator@D@std@@@std@@@8??0?$_String_val@DV?$allocator@D@std@@@std@@QEAA@AEBV01@@Z48
	DD	imagerel _CT??_R0?AU_Container_base12@std@@@8??0_Container_base12@std@@QEAA@AEBU01@@Z8
xdata$x	ENDS
xdata	SEGMENT
$stateUnwindMap$?getPath@SDKCommon@streamsdk@@QEAA?AV?$basic_string@DU?$char_traits@D@std@@V?$allocator@D@2@@std@@XZ DD 0ffffffffH
	DD	imagerel ?dtor$1@?0??getPath@SDKCommon@streamsdk@@QEAA?AV?$basic_string@DU?$char_traits@D@std@@V?$allocator@D@2@@std@@XZ@4HA
	DD	00H
	DD	imagerel ?dtor$0@?0??getPath@SDKCommon@streamsdk@@QEAA?AV?$basic_string@DU?$char_traits@D@std@@V?$allocator@D@2@@std@@XZ@4HA
$unwind$?getPath@SDKCommon@streamsdk@@QEAA?AV?$basic_string@DU?$char_traits@D@std@@V?$allocator@D@2@@std@@XZ DD 034719H
	DD	03e0112H
	DD	0700bH
	DD	imagerel __GSHandlerCheck_EH
	DD	imagerel $cppxdata$?getPath@SDKCommon@streamsdk@@QEAA?AV?$basic_string@DU?$char_traits@D@std@@V?$allocator@D@2@@std@@XZ
	DD	01e2H
$unwind$?dtor$0@?0??getPath@SDKCommon@streamsdk@@QEAA?AV?$basic_string@DU?$char_traits@D@std@@V?$allocator@D@2@@std@@XZ@4HA DD 031001H
	DD	0700c4210H
	DD	0500bH
$unwind$?dtor$1@?0??getPath@SDKCommon@streamsdk@@QEAA?AV?$basic_string@DU?$char_traits@D@std@@V?$allocator@D@2@@std@@XZ@4HA DD 031001H
	DD	0700c4210H
	DD	0500bH
$ip2state$?getPath@SDKCommon@streamsdk@@QEAA?AV?$basic_string@DU?$char_traits@D@std@@V?$allocator@D@2@@std@@XZ DD imagerel ?getPath@SDKCommon@streamsdk@@QEAA?AV?$basic_string@DU?$char_traits@D@std@@V?$allocator@D@2@@std@@XZ
	DD	0ffffffffH
	DD	imagerel ?getPath@SDKCommon@streamsdk@@QEAA?AV?$basic_string@DU?$char_traits@D@std@@V?$allocator@D@2@@std@@XZ+164
	DD	01H
	DD	imagerel ?getPath@SDKCommon@streamsdk@@QEAA?AV?$basic_string@DU?$char_traits@D@std@@V?$allocator@D@2@@std@@XZ+248
	DD	00H
xdata	ENDS
;	COMDAT ?npos@?$basic_string@DU?$char_traits@D@std@@V?$allocator@D@2@@std@@2_KB
CONST	SEGMENT
?npos@?$basic_string@DU?$char_traits@D@std@@V?$allocator@D@2@@std@@2_KB DQ ffffffffffffffffH ; std::basic_string<char,std::char_traits<char>,std::allocator<char> >::npos
CONST	ENDS
;	COMDAT _TI3?AV?$basic_string@DU?$char_traits@D@std@@V?$allocator@D@2@@std@@
xdata$x	SEGMENT
_TI3?AV?$basic_string@DU?$char_traits@D@std@@V?$allocator@D@2@@std@@ DD 00H
	DD	imagerel ??1?$basic_string@DU?$char_traits@D@std@@V?$allocator@D@2@@std@@QEAA@XZ
	DD	00H
	DD	imagerel _CTA3?AV?$basic_string@DU?$char_traits@D@std@@V?$allocator@D@2@@std@@
xdata$x	ENDS
CONST	SEGMENT
?getPath@SDKCommon@streamsdk@@QEAA?AV?$basic_string@DU?$char_traits@D@std@@V?$allocator@D@2@@std@@XZ$rtcName$0 DB 062H ; streamsdk::SDKCommon::getPath
	DB	075H
	DB	066H
	DB	066H
	DB	065H
	DB	072H
	DB	00H
	ORG $+1
?getPath@SDKCommon@streamsdk@@QEAA?AV?$basic_string@DU?$char_traits@D@std@@V?$allocator@D@2@@std@@XZ$rtcName$1 DB 073H ; streamsdk::SDKCommon::getPath
	DB	074H
	DB	072H
	DB	00H
	ORG $+12
?getPath@SDKCommon@streamsdk@@QEAA?AV?$basic_string@DU?$char_traits@D@std@@V?$allocator@D@2@@std@@XZ$rtcVarDesc DD 0188H ; streamsdk::SDKCommon::getPath
	DD	030H
	DQ	FLAT:?getPath@SDKCommon@streamsdk@@QEAA?AV?$basic_string@DU?$char_traits@D@std@@V?$allocator@D@2@@std@@XZ$rtcName$1
	DD	030H
	DD	0104H
	DQ	FLAT:?getPath@SDKCommon@streamsdk@@QEAA?AV?$basic_string@DU?$char_traits@D@std@@V?$allocator@D@2@@std@@XZ$rtcName$0
	ORG $+96
?getPath@SDKCommon@streamsdk@@QEAA?AV?$basic_string@DU?$char_traits@D@std@@V?$allocator@D@2@@std@@XZ$rtcFrameData DD 02H ; streamsdk::SDKCommon::getPath
	DD	00H
	DQ	FLAT:?getPath@SDKCommon@streamsdk@@QEAA?AV?$basic_string@DU?$char_traits@D@std@@V?$allocator@D@2@@std@@XZ$rtcVarDesc
$cppxdata$?getPath@SDKCommon@streamsdk@@QEAA?AV?$basic_string@DU?$char_traits@D@std@@V?$allocator@D@2@@std@@XZ DD 019930522H
	DD	02H
	DD	imagerel $stateUnwindMap$?getPath@SDKCommon@streamsdk@@QEAA?AV?$basic_string@DU?$char_traits@D@std@@V?$allocator@D@2@@std@@XZ
	DD	00H
	DD	00H
	DD	03H
	DD	imagerel $ip2state$?getPath@SDKCommon@streamsdk@@QEAA?AV?$basic_string@DU?$char_traits@D@std@@V?$allocator@D@2@@std@@XZ
	DD	01d8H
	DD	00H
	DD	01H
; Function compile flags: /Odtp /RTCsu
CONST	ENDS
_TEXT	SEGMENT
buffer$ = 48
$T95685 = 328
str$ = 392
last$ = 452
$T106911 = 464
$T106914 = 472
__$ArrayPad$ = 480
this$ = 512
__$ReturnUdt$ = 520
?getPath@SDKCommon@streamsdk@@QEAA?AV?$basic_string@DU?$char_traits@D@std@@V?$allocator@D@2@@std@@XZ PROC ; streamsdk::SDKCommon::getPath
; Line 25
$LN7:
	mov	QWORD PTR [rsp+16], rdx
	mov	QWORD PTR [rsp+8], rcx
	push	rdi
	sub	rsp, 496				; 000001f0H
	mov	rdi, rsp
	mov	ecx, 124				; 0000007cH
	mov	eax, -858993460				; ccccccccH
	rep stosd
	mov	rcx, QWORD PTR [rsp+512]
	mov	QWORD PTR $T106914[rsp], -2
	mov	rax, QWORD PTR __security_cookie
	xor	rax, rsp
	mov	QWORD PTR __$ArrayPad$[rsp], rax
	mov	DWORD PTR $T106911[rsp], 0
; Line 32
	mov	r8d, 260				; 00000104H
	lea	rdx, QWORD PTR buffer$[rsp]
	xor	ecx, ecx
	call	QWORD PTR __imp_GetModuleFileNameA
	test	eax, eax
	jne	SHORT $LN1@getPath
; Line 33
	lea	rdx, OFFSET FLAT:$SG95686
	lea	rcx, QWORD PTR $T95685[rsp]
	call	??0?$basic_string@DU?$char_traits@D@std@@V?$allocator@D@2@@std@@QEAA@PEBD@Z ; std::basic_string<char,std::char_traits<char>,std::allocator<char> >::basic_string<char,std::char_traits<char>,std::allocator<char> >
	lea	rdx, OFFSET FLAT:_TI3?AV?$basic_string@DU?$char_traits@D@std@@V?$allocator@D@2@@std@@
	lea	rcx, QWORD PTR $T95685[rsp]
	call	_CxxThrowException
$LN1@getPath:
; Line 35
	lea	rdx, QWORD PTR buffer$[rsp]
	lea	rcx, QWORD PTR str$[rsp]
	call	??0?$basic_string@DU?$char_traits@D@std@@V?$allocator@D@2@@std@@QEAA@PEBD@Z ; std::basic_string<char,std::char_traits<char>,std::allocator<char> >::basic_string<char,std::char_traits<char>,std::allocator<char> >
	npad	1
; Line 37
	mov	r8, QWORD PTR ?npos@?$basic_string@DU?$char_traits@D@std@@V?$allocator@D@2@@std@@2_KB ; std::basic_string<char,std::char_traits<char>,std::allocator<char> >::npos
	mov	dl, 92					; 0000005cH
	lea	rcx, QWORD PTR str$[rsp]
	call	?find_last_of@?$basic_string@DU?$char_traits@D@std@@V?$allocator@D@2@@std@@QEBA_KD_K@Z ; std::basic_string<char,std::char_traits<char>,std::allocator<char> >::find_last_of
	mov	DWORD PTR last$[rsp], eax
; Line 48
	mov	eax, DWORD PTR last$[rsp]
	inc	eax
	cdqe
	mov	r9, rax
	xor	r8d, r8d
	mov	rdx, QWORD PTR __$ReturnUdt$[rsp]
	lea	rcx, QWORD PTR str$[rsp]
	call	?substr@?$basic_string@DU?$char_traits@D@std@@V?$allocator@D@2@@std@@QEBA?AV12@_K0@Z ; std::basic_string<char,std::char_traits<char>,std::allocator<char> >::substr
	mov	eax, DWORD PTR $T106911[rsp]
	or	eax, 1
	mov	DWORD PTR $T106911[rsp], eax
	lea	rcx, QWORD PTR str$[rsp]
	call	??1?$basic_string@DU?$char_traits@D@std@@V?$allocator@D@2@@std@@QEAA@XZ ; std::basic_string<char,std::char_traits<char>,std::allocator<char> >::~basic_string<char,std::char_traits<char>,std::allocator<char> >
	mov	rax, QWORD PTR __$ReturnUdt$[rsp]
$LN3@getPath:
; Line 49
	mov	rdi, rax
	mov	rcx, rsp
	lea	rdx, OFFSET FLAT:?getPath@SDKCommon@streamsdk@@QEAA?AV?$basic_string@DU?$char_traits@D@std@@V?$allocator@D@2@@std@@XZ$rtcFrameData
	call	_RTC_CheckStackVars
	mov	rax, rdi
	mov	rcx, QWORD PTR __$ArrayPad$[rsp]
	xor	rcx, rsp
	call	__security_check_cookie
	add	rsp, 496				; 000001f0H
	pop	rdi
	ret	0
	int	3
?getPath@SDKCommon@streamsdk@@QEAA?AV?$basic_string@DU?$char_traits@D@std@@V?$allocator@D@2@@std@@XZ ENDP ; streamsdk::SDKCommon::getPath
; Function compile flags: /Odtp /RTCsu
_TEXT	ENDS
text$x	SEGMENT
buffer$ = 48
$T95685 = 328
str$ = 392
last$ = 452
$T106911 = 464
$T106914 = 472
__$ArrayPad$ = 480
this$ = 512
__$ReturnUdt$ = 520
?dtor$0@?0??getPath@SDKCommon@streamsdk@@QEAA?AV?$basic_string@DU?$char_traits@D@std@@V?$allocator@D@2@@std@@XZ@4HA PROC ; `streamsdk::SDKCommon::getPath'::`1'::dtor$0
	mov	QWORD PTR [rsp+8], rcx
	mov	QWORD PTR [rsp+16], rdx
	push	rbp
	push	rdi
	sub	rsp, 40					; 00000028H
	mov	rbp, rdx
	lea	rcx, QWORD PTR str$[rbp]
	call	??1?$basic_string@DU?$char_traits@D@std@@V?$allocator@D@2@@std@@QEAA@XZ ; std::basic_string<char,std::char_traits<char>,std::allocator<char> >::~basic_string<char,std::char_traits<char>,std::allocator<char> >
	add	rsp, 40					; 00000028H
	pop	rdi
	pop	rbp
	ret	0
?dtor$0@?0??getPath@SDKCommon@streamsdk@@QEAA?AV?$basic_string@DU?$char_traits@D@std@@V?$allocator@D@2@@std@@XZ@4HA ENDP ; `streamsdk::SDKCommon::getPath'::`1'::dtor$0
; Function compile flags: /Odtp /RTCsu
buffer$ = 48
$T95685 = 328
str$ = 392
last$ = 452
$T106911 = 464
$T106914 = 472
__$ArrayPad$ = 480
this$ = 512
__$ReturnUdt$ = 520
?dtor$1@?0??getPath@SDKCommon@streamsdk@@QEAA?AV?$basic_string@DU?$char_traits@D@std@@V?$allocator@D@2@@std@@XZ@4HA PROC ; `streamsdk::SDKCommon::getPath'::`1'::dtor$1
	mov	QWORD PTR [rsp+8], rcx
	mov	QWORD PTR [rsp+16], rdx
	push	rbp
	push	rdi
	sub	rsp, 40					; 00000028H
	mov	rbp, rdx
	mov	eax, DWORD PTR $T106911[rbp]
	and	eax, 1
	test	eax, eax
	je	SHORT $LN6@dtor$1
	and	DWORD PTR $T106911[rbp], -2
	mov	rcx, QWORD PTR __$ReturnUdt$[rbp]
	call	??1?$basic_string@DU?$char_traits@D@std@@V?$allocator@D@2@@std@@QEAA@XZ ; std::basic_string<char,std::char_traits<char>,std::allocator<char> >::~basic_string<char,std::char_traits<char>,std::allocator<char> >
$LN6@dtor$1:
	add	rsp, 40					; 00000028H
	pop	rdi
	pop	rbp
	ret	0
?dtor$1@?0??getPath@SDKCommon@streamsdk@@QEAA?AV?$basic_string@DU?$char_traits@D@std@@V?$allocator@D@2@@std@@XZ@4HA ENDP ; `streamsdk::SDKCommon::getPath'::`1'::dtor$1
text$x	ENDS
;	COMDAT pdata
; File c:\program files (x86)\microsoft visual studio 10.0\vc\include\xutility
pdata	SEGMENT
$pdata$??0_Container_base12@std@@QEAA@AEBU01@@Z DD imagerel $LN3
	DD	imagerel $LN3+30
	DD	imagerel $unwind$??0_Container_base12@std@@QEAA@AEBU01@@Z
pdata	ENDS
;	COMDAT xdata
xdata	SEGMENT
$unwind$??0_Container_base12@std@@QEAA@AEBU01@@Z DD 010b01H
	DD	0700bH
; Function compile flags: /Odtp /RTCsu
xdata	ENDS
;	COMDAT ??0_Container_base12@std@@QEAA@AEBU01@@Z
_TEXT	SEGMENT
this$ = 16
__formal$ = 24
??0_Container_base12@std@@QEAA@AEBU01@@Z PROC		; std::_Container_base12::_Container_base12, COMDAT
; Line 82
$LN3:
	mov	QWORD PTR [rsp+16], rdx
	mov	QWORD PTR [rsp+8], rcx
	push	rdi
	mov	rax, QWORD PTR this$[rsp]
	mov	QWORD PTR [rax], 0
; Line 83
	mov	rax, QWORD PTR this$[rsp]
	pop	rdi
	ret	0
??0_Container_base12@std@@QEAA@AEBU01@@Z ENDP		; std::_Container_base12::_Container_base12
_TEXT	ENDS
PUBLIC	??0?$allocator@D@std@@QEAA@AEBV01@@Z		; std::allocator<char>::allocator<char>
PUBLIC	$T106945
;	COMDAT pdata
pdata	SEGMENT
$pdata$??0?$_String_val@DV?$allocator@D@std@@@std@@QEAA@AEBV01@@Z DD imagerel $LN4
	DD	imagerel $LN4+173
	DD	imagerel $unwind$??0?$_String_val@DV?$allocator@D@std@@@std@@QEAA@AEBV01@@Z
pdata	ENDS
;	COMDAT xdata
xdata	SEGMENT
$unwind$??0?$_String_val@DV?$allocator@D@std@@@std@@QEAA@AEBV01@@Z DD 032401H
	DD	0700c6210H
	DD	0600bH
; Function compile flags: /Odtp /RTCsu
xdata	ENDS
;	COMDAT ??0?$_String_val@DV?$allocator@D@std@@@std@@QEAA@AEBV01@@Z
_TEXT	SEGMENT
$T106945 = 32
this$ = 80
__that$ = 88
??0?$_String_val@DV?$allocator@D@std@@@std@@QEAA@AEBV01@@Z PROC ; std::_String_val<char,std::allocator<char> >::_String_val<char,std::allocator<char> >, COMDAT
$LN4:
	mov	QWORD PTR [rsp+16], rdx
	mov	QWORD PTR [rsp+8], rcx
	push	rsi
	push	rdi
	sub	rsp, 56					; 00000038H
	mov	rdi, rsp
	mov	ecx, 14
	mov	eax, -858993460				; ccccccccH
	rep stosd
	mov	rcx, QWORD PTR [rsp+80]
	mov	rdx, QWORD PTR __that$[rsp]
	mov	rcx, QWORD PTR this$[rsp]
	call	??0_Container_base12@std@@QEAA@AEBU01@@Z ; std::_Container_base12::_Container_base12
	lea	rax, QWORD PTR $T106945[rsp]
	mov	rcx, QWORD PTR __that$[rsp]
	mov	rdi, rax
	lea	rsi, QWORD PTR [rcx+8]
	mov	ecx, 16
	rep movsb
	mov	rax, QWORD PTR this$[rsp]
	lea	rcx, QWORD PTR $T106945[rsp]
	lea	rdi, QWORD PTR [rax+8]
	mov	rsi, rcx
	mov	ecx, 16
	rep movsb
	mov	rax, QWORD PTR this$[rsp]
	mov	rcx, QWORD PTR __that$[rsp]
	mov	rcx, QWORD PTR [rcx+24]
	mov	QWORD PTR [rax+24], rcx
	mov	rax, QWORD PTR this$[rsp]
	mov	rcx, QWORD PTR __that$[rsp]
	mov	rcx, QWORD PTR [rcx+32]
	mov	QWORD PTR [rax+32], rcx
	mov	rax, QWORD PTR __that$[rsp]
	add	rax, 40					; 00000028H
	mov	rcx, QWORD PTR this$[rsp]
	add	rcx, 40					; 00000028H
	mov	rdx, rax
	call	??0?$allocator@D@std@@QEAA@AEBV01@@Z	; std::allocator<char>::allocator<char>
	mov	rax, QWORD PTR this$[rsp]
	add	rsp, 56					; 00000038H
	pop	rdi
	pop	rsi
	ret	0
??0?$_String_val@DV?$allocator@D@std@@@std@@QEAA@AEBV01@@Z ENDP ; std::_String_val<char,std::allocator<char> >::_String_val<char,std::allocator<char> >
_TEXT	ENDS
PUBLIC	?getOpenCLErrorCodeStr@streamsdk@@YAPEBDV?$basic_string@DU?$char_traits@D@std@@V?$allocator@D@2@@std@@@Z ; streamsdk::getOpenCLErrorCodeStr
pdata	SEGMENT
$pdata$?getOpenCLErrorCodeStr@streamsdk@@YAPEBDV?$basic_string@DU?$char_traits@D@std@@V?$allocator@D@2@@std@@@Z DD imagerel $LN4
	DD	imagerel $LN4+84
	DD	imagerel $unwind$?getOpenCLErrorCodeStr@streamsdk@@YAPEBDV?$basic_string@DU?$char_traits@D@std@@V?$allocator@D@2@@std@@@Z
pdata	ENDS
xdata	SEGMENT
$unwind$?getOpenCLErrorCodeStr@streamsdk@@YAPEBDV?$basic_string@DU?$char_traits@D@std@@V?$allocator@D@2@@std@@@Z DD 021e01H
	DD	07006720aH
xdata	ENDS
CONST	SEGMENT
?getOpenCLErrorCodeStr@streamsdk@@YAPEBDV?$basic_string@DU?$char_traits@D@std@@V?$allocator@D@2@@std@@@Z$rtcName$0 DB 05fH ; streamsdk::getOpenCLErrorCodeStr
	DB	05fH
	DB	024H
	DB	041H
	DB	072H
	DB	072H
	DB	061H
	DB	079H
	DB	050H
	DB	061H
	DB	064H
	DB	00H
	ORG $+12
?getOpenCLErrorCodeStr@streamsdk@@YAPEBDV?$basic_string@DU?$char_traits@D@std@@V?$allocator@D@2@@std@@@Z$rtcVarDesc DD 028H ; streamsdk::getOpenCLErrorCodeStr
	DD	08H
	DQ	FLAT:?getOpenCLErrorCodeStr@streamsdk@@YAPEBDV?$basic_string@DU?$char_traits@D@std@@V?$allocator@D@2@@std@@@Z$rtcName$0
	ORG $+48
?getOpenCLErrorCodeStr@streamsdk@@YAPEBDV?$basic_string@DU?$char_traits@D@std@@V?$allocator@D@2@@std@@@Z$rtcFrameData DD 01H ; streamsdk::getOpenCLErrorCodeStr
	DD	00H
	DQ	FLAT:?getOpenCLErrorCodeStr@streamsdk@@YAPEBDV?$basic_string@DU?$char_traits@D@std@@V?$allocator@D@2@@std@@@Z$rtcVarDesc
; Function compile flags: /Odtp /RTCsu
CONST	ENDS
_TEXT	SEGMENT
$T106954 = 56
input$ = 80
?getOpenCLErrorCodeStr@streamsdk@@YAPEBDV?$basic_string@DU?$char_traits@D@std@@V?$allocator@D@2@@std@@@Z PROC ; streamsdk::getOpenCLErrorCodeStr
; File c:\development\cellct\tomographic_imaging - current\sdkutil\sdkcommon.cpp
; Line 178
$LN4:
	mov	QWORD PTR [rsp+8], rcx
	push	rdi
	sub	rsp, 64					; 00000040H
	mov	rdi, rsp
	mov	ecx, 16
	mov	eax, -858993460				; ccccccccH
	rep stosd
	mov	rcx, QWORD PTR [rsp+80]
; Line 179
	lea	rax, OFFSET FLAT:$SG95729
	mov	QWORD PTR $T106954[rsp], rax
	mov	rcx, QWORD PTR input$[rsp]
	call	??1?$basic_string@DU?$char_traits@D@std@@V?$allocator@D@2@@std@@QEAA@XZ ; std::basic_string<char,std::char_traits<char>,std::allocator<char> >::~basic_string<char,std::char_traits<char>,std::allocator<char> >
	mov	rax, QWORD PTR $T106954[rsp]
; Line 180
	mov	rdi, rax
	mov	rcx, rsp
	lea	rdx, OFFSET FLAT:?getOpenCLErrorCodeStr@streamsdk@@YAPEBDV?$basic_string@DU?$char_traits@D@std@@V?$allocator@D@2@@std@@@Z$rtcFrameData
	call	_RTC_CheckStackVars
	mov	rax, rdi
	add	rsp, 64					; 00000040H
	pop	rdi
	ret	0
?getOpenCLErrorCodeStr@streamsdk@@YAPEBDV?$basic_string@DU?$char_traits@D@std@@V?$allocator@D@2@@std@@@Z ENDP ; streamsdk::getOpenCLErrorCodeStr
_TEXT	ENDS
PUBLIC	?error@SDKCommon@streamsdk@@QEBAXPEBD@Z		; streamsdk::SDKCommon::error
PUBLIC	??6?$basic_ostream@DU?$char_traits@D@std@@@std@@QEAAAEAV01@I@Z ; std::basic_ostream<char,std::char_traits<char> >::operator<<
PUBLIC	??6?$basic_ostream@DU?$char_traits@D@std@@@std@@QEAAAEAV01@P6AAEAV01@AEAV01@@Z@Z ; std::basic_ostream<char,std::char_traits<char> >::operator<<
PUBLIC	?endl@std@@YAAEAV?$basic_ostream@DU?$char_traits@D@std@@@1@AEAV21@@Z ; std::endl
PUBLIC	??$?6U?$char_traits@D@std@@@std@@YAAEAV?$basic_ostream@DU?$char_traits@D@std@@@0@AEAV10@PEBD@Z ; std::operator<<<std::char_traits<char> >
PUBLIC	??$checkVal@H@SDKCommon@streamsdk@@QEBAHHHV?$basic_string@DU?$char_traits@D@std@@V?$allocator@D@2@@std@@_N@Z ; streamsdk::SDKCommon::checkVal<int>
PUBLIC	__$ArrayPad$
PUBLIC	?displayDevices@SDKCommon@streamsdk@@QEAAHPEAU_cl_platform_id@@_K@Z ; streamsdk::SDKCommon::displayDevices
EXTRN	__GSHandlerCheck:PROC
EXTRN	free:PROC
EXTRN	clGetDeviceInfo:PROC
EXTRN	malloc:PROC
EXTRN	clGetDeviceIDs:PROC
EXTRN	?cout@std@@3V?$basic_ostream@DU?$char_traits@D@std@@@1@A:BYTE ; std::cout
EXTRN	clGetPlatformInfo:PROC
pdata	SEGMENT
$pdata$?displayDevices@SDKCommon@streamsdk@@QEAAHPEAU_cl_platform_id@@_K@Z DD imagerel $LN15
	DD	imagerel $LN15+960
	DD	imagerel $unwind$?displayDevices@SDKCommon@streamsdk@@QEAAHPEAU_cl_platform_id@@_K@Z
pdata	ENDS
xdata	SEGMENT
$unwind$?displayDevices@SDKCommon@streamsdk@@QEAAHPEAU_cl_platform_id@@_K@Z DD 034019H
	DD	01380117H
	DD	07010H
	DD	imagerel __GSHandlerCheck
	DD	09b0H
xdata	ENDS
CONST	SEGMENT
?displayDevices@SDKCommon@streamsdk@@QEAAHPEAU_cl_platform_id@@_K@Z$rtcName$0 DB 070H ; streamsdk::SDKCommon::displayDevices
	DB	06cH
	DB	061H
	DB	074H
	DB	066H
	DB	06fH
	DB	072H
	DB	06dH
	DB	056H
	DB	065H
	DB	06eH
	DB	064H
	DB	06fH
	DB	072H
	DB	00H
	ORG $+1
?displayDevices@SDKCommon@streamsdk@@QEAAHPEAU_cl_platform_id@@_K@Z$rtcName$1 DB 064H ; streamsdk::SDKCommon::displayDevices
	DB	065H
	DB	076H
	DB	069H
	DB	063H
	DB	065H
	DB	043H
	DB	06fH
	DB	075H
	DB	06eH
	DB	074H
	DB	00H
	ORG $+4
?displayDevices@SDKCommon@streamsdk@@QEAAHPEAU_cl_platform_id@@_K@Z$rtcName$2 DB 064H ; streamsdk::SDKCommon::displayDevices
	DB	065H
	DB	076H
	DB	069H
	DB	063H
	DB	065H
	DB	04eH
	DB	061H
	DB	06dH
	DB	065H
	DB	00H
	ORG $+5
?displayDevices@SDKCommon@streamsdk@@QEAAHPEAU_cl_platform_id@@_K@Z$rtcVarDesc DD 04a0H ; streamsdk::SDKCommon::displayDevices
	DD	0400H
	DQ	FLAT:?displayDevices@SDKCommon@streamsdk@@QEAAHPEAU_cl_platform_id@@_K@Z$rtcName$2
	DD	0464H
	DD	04H
	DQ	FLAT:?displayDevices@SDKCommon@streamsdk@@QEAAHPEAU_cl_platform_id@@_K@Z$rtcName$1
	DD	050H
	DD	0400H
	DQ	FLAT:?displayDevices@SDKCommon@streamsdk@@QEAAHPEAU_cl_platform_id@@_K@Z$rtcName$0
	ORG $+144
?displayDevices@SDKCommon@streamsdk@@QEAAHPEAU_cl_platform_id@@_K@Z$rtcFrameData DD 03H ; streamsdk::SDKCommon::displayDevices
	DD	00H
	DQ	FLAT:?displayDevices@SDKCommon@streamsdk@@QEAAHPEAU_cl_platform_id@@_K@Z$rtcVarDesc
; Function compile flags: /Odtp /RTCsu
CONST	ENDS
_TEXT	SEGMENT
status$ = 48
platformVendor$ = 80
deviceCount$ = 1124
deviceIds$ = 1144
i$95929 = 1152
deviceName$95933 = 1184
$T106965 = 2224
$T106966 = 2272
$T106967 = 2280
$T106968 = 2328
$T106969 = 2336
$T106970 = 2384
$T106971 = 2392
$T106972 = 2440
tv225 = 2448
tv227 = 2456
tv229 = 2464
tv231 = 2472
__$ArrayPad$ = 2480
this$ = 2512
platform$ = 2520
deviceType$ = 2528
?displayDevices@SDKCommon@streamsdk@@QEAAHPEAU_cl_platform_id@@_K@Z PROC ; streamsdk::SDKCommon::displayDevices
; Line 337
$LN15:
	mov	QWORD PTR [rsp+24], r8
	mov	QWORD PTR [rsp+16], rdx
	mov	QWORD PTR [rsp+8], rcx
	push	rdi
	sub	rsp, 2496				; 000009c0H
	mov	rdi, rsp
	mov	ecx, 624				; 00000270H
	mov	eax, -858993460				; ccccccccH
	rep stosd
	mov	rcx, QWORD PTR [rsp+2512]
	mov	rax, QWORD PTR __security_cookie
	xor	rax, rsp
	mov	QWORD PTR __$ArrayPad$[rsp], rax
; Line 342
	mov	QWORD PTR [rsp+32], 0
	lea	r9, QWORD PTR platformVendor$[rsp]
	mov	r8d, 1024				; 00000400H
	mov	edx, 2307				; 00000903H
	mov	rcx, QWORD PTR platform$[rsp]
	call	clGetPlatformInfo
	mov	DWORD PTR status$[rsp], eax
; Line 343
	lea	rax, QWORD PTR $T106965[rsp]
	mov	QWORD PTR $T106966[rsp], rax
	lea	rdx, OFFSET FLAT:$SG95756
	mov	rcx, QWORD PTR $T106966[rsp]
	call	??0?$basic_string@DU?$char_traits@D@std@@V?$allocator@D@2@@std@@QEAA@PEBD@Z ; std::basic_string<char,std::char_traits<char>,std::allocator<char> >::basic_string<char,std::char_traits<char>,std::allocator<char> >
	mov	QWORD PTR tv225[rsp], rax
	mov	BYTE PTR [rsp+32], 1
	mov	r9, QWORD PTR tv225[rsp]
	xor	r8d, r8d
	mov	edx, DWORD PTR status$[rsp]
	mov	rcx, QWORD PTR this$[rsp]
	call	??$checkVal@H@SDKCommon@streamsdk@@QEBAHHHV?$basic_string@DU?$char_traits@D@std@@V?$allocator@D@2@@std@@_N@Z ; streamsdk::SDKCommon::checkVal<int>
	test	eax, eax
	jne	SHORT $LN8@displayDev
; Line 344
	xor	eax, eax
	jmp	$LN9@displayDev
$LN8@displayDev:
; Line 346
	lea	rdx, OFFSET FLAT:$SG95896
	lea	rcx, OFFSET FLAT:?cout@std@@3V?$basic_ostream@DU?$char_traits@D@std@@@1@A ; std::cout
	call	??$?6U?$char_traits@D@std@@@std@@YAAEAV?$basic_ostream@DU?$char_traits@D@std@@@0@AEAV10@PEBD@Z ; std::operator<<<std::char_traits<char> >
	lea	rdx, QWORD PTR platformVendor$[rsp]
	mov	rcx, rax
	call	??$?6U?$char_traits@D@std@@@std@@YAAEAV?$basic_ostream@DU?$char_traits@D@std@@@0@AEAV10@PEBD@Z ; std::operator<<<std::char_traits<char> >
	lea	rdx, OFFSET FLAT:?endl@std@@YAAEAV?$basic_ostream@DU?$char_traits@D@std@@@1@AEAV21@@Z ; std::endl
	mov	rcx, rax
	call	??6?$basic_ostream@DU?$char_traits@D@std@@@std@@QEAAAEAV01@P6AAEAV01@AEAV01@@Z@Z ; std::basic_ostream<char,std::char_traits<char> >::operator<<
; Line 349
	mov	DWORD PTR deviceCount$[rsp], 0
; Line 350
	lea	rax, QWORD PTR deviceCount$[rsp]
	mov	QWORD PTR [rsp+32], rax
	xor	r9d, r9d
	xor	r8d, r8d
	mov	rdx, QWORD PTR deviceType$[rsp]
	mov	rcx, QWORD PTR platform$[rsp]
	call	clGetDeviceIDs
	mov	DWORD PTR status$[rsp], eax
; Line 351
	lea	rax, QWORD PTR $T106967[rsp]
	mov	QWORD PTR $T106968[rsp], rax
	lea	rdx, OFFSET FLAT:$SG95900
	mov	rcx, QWORD PTR $T106968[rsp]
	call	??0?$basic_string@DU?$char_traits@D@std@@V?$allocator@D@2@@std@@QEAA@PEBD@Z ; std::basic_string<char,std::char_traits<char>,std::allocator<char> >::basic_string<char,std::char_traits<char>,std::allocator<char> >
	mov	QWORD PTR tv227[rsp], rax
	mov	BYTE PTR [rsp+32], 1
	mov	r9, QWORD PTR tv227[rsp]
	xor	r8d, r8d
	mov	edx, DWORD PTR status$[rsp]
	mov	rcx, QWORD PTR this$[rsp]
	call	??$checkVal@H@SDKCommon@streamsdk@@QEBAHHHV?$basic_string@DU?$char_traits@D@std@@V?$allocator@D@2@@std@@_N@Z ; streamsdk::SDKCommon::checkVal<int>
	test	eax, eax
	jne	SHORT $LN7@displayDev
; Line 352
	xor	eax, eax
	jmp	$LN9@displayDev
$LN7@displayDev:
; Line 354
	lea	rdx, OFFSET FLAT:$SG95920
	lea	rcx, OFFSET FLAT:?cout@std@@3V?$basic_ostream@DU?$char_traits@D@std@@@1@A ; std::cout
	call	??$?6U?$char_traits@D@std@@@std@@YAAEAV?$basic_ostream@DU?$char_traits@D@std@@@0@AEAV10@PEBD@Z ; std::operator<<<std::char_traits<char> >
	mov	edx, DWORD PTR deviceCount$[rsp]
	mov	rcx, rax
	call	??6?$basic_ostream@DU?$char_traits@D@std@@@std@@QEAAAEAV01@I@Z ; std::basic_ostream<char,std::char_traits<char> >::operator<<
; Line 356
	mov	eax, DWORD PTR deviceCount$[rsp]
	shl	rax, 3
	mov	rcx, rax
	call	malloc
	mov	QWORD PTR deviceIds$[rsp], rax
; Line 357
	cmp	QWORD PTR deviceIds$[rsp], 0
	jne	SHORT $LN6@displayDev
; Line 359
	lea	rdx, OFFSET FLAT:$SG95925
	mov	rcx, QWORD PTR this$[rsp]
	call	?error@SDKCommon@streamsdk@@QEBAXPEBD@Z	; streamsdk::SDKCommon::error
; Line 360
	xor	eax, eax
	jmp	$LN9@displayDev
$LN6@displayDev:
; Line 364
	mov	QWORD PTR [rsp+32], 0
	mov	r9, QWORD PTR deviceIds$[rsp]
	mov	r8d, DWORD PTR deviceCount$[rsp]
	mov	rdx, QWORD PTR deviceType$[rsp]
	mov	rcx, QWORD PTR platform$[rsp]
	call	clGetDeviceIDs
	mov	DWORD PTR status$[rsp], eax
; Line 365
	lea	rax, QWORD PTR $T106969[rsp]
	mov	QWORD PTR $T106970[rsp], rax
	lea	rdx, OFFSET FLAT:$SG95928
	mov	rcx, QWORD PTR $T106970[rsp]
	call	??0?$basic_string@DU?$char_traits@D@std@@V?$allocator@D@2@@std@@QEAA@PEBD@Z ; std::basic_string<char,std::char_traits<char>,std::allocator<char> >::basic_string<char,std::char_traits<char>,std::allocator<char> >
	mov	QWORD PTR tv229[rsp], rax
	mov	BYTE PTR [rsp+32], 1
	mov	r9, QWORD PTR tv229[rsp]
	xor	r8d, r8d
	mov	edx, DWORD PTR status$[rsp]
	mov	rcx, QWORD PTR this$[rsp]
	call	??$checkVal@H@SDKCommon@streamsdk@@QEBAHHHV?$basic_string@DU?$char_traits@D@std@@V?$allocator@D@2@@std@@_N@Z ; streamsdk::SDKCommon::checkVal<int>
	test	eax, eax
	jne	SHORT $LN5@displayDev
; Line 366
	xor	eax, eax
	jmp	$LN9@displayDev
$LN5@displayDev:
; Line 369
	mov	DWORD PTR i$95929[rsp], 0
	jmp	SHORT $LN4@displayDev
$LN3@displayDev:
	mov	eax, DWORD PTR i$95929[rsp]
	inc	eax
	mov	DWORD PTR i$95929[rsp], eax
$LN4@displayDev:
	mov	eax, DWORD PTR deviceCount$[rsp]
	cmp	DWORD PTR i$95929[rsp], eax
	jae	$LN2@displayDev
; Line 372
	mov	eax, DWORD PTR i$95929[rsp]
	mov	QWORD PTR [rsp+32], 0
	lea	r9, QWORD PTR deviceName$95933[rsp]
	mov	r8d, 1024				; 00000400H
	mov	edx, 4139				; 0000102bH
	mov	rcx, QWORD PTR deviceIds$[rsp]
	mov	rcx, QWORD PTR [rcx+rax*8]
	call	clGetDeviceInfo
	mov	DWORD PTR status$[rsp], eax
; Line 374
	lea	rax, QWORD PTR $T106971[rsp]
	mov	QWORD PTR $T106972[rsp], rax
	lea	rdx, OFFSET FLAT:$SG95936
	mov	rcx, QWORD PTR $T106972[rsp]
	call	??0?$basic_string@DU?$char_traits@D@std@@V?$allocator@D@2@@std@@QEAA@PEBD@Z ; std::basic_string<char,std::char_traits<char>,std::allocator<char> >::basic_string<char,std::char_traits<char>,std::allocator<char> >
	mov	QWORD PTR tv231[rsp], rax
	mov	BYTE PTR [rsp+32], 1
	mov	r9, QWORD PTR tv231[rsp]
	xor	r8d, r8d
	mov	edx, DWORD PTR status$[rsp]
	mov	rcx, QWORD PTR this$[rsp]
	call	??$checkVal@H@SDKCommon@streamsdk@@QEBAHHHV?$basic_string@DU?$char_traits@D@std@@V?$allocator@D@2@@std@@_N@Z ; streamsdk::SDKCommon::checkVal<int>
	test	eax, eax
	jne	SHORT $LN1@displayDev
; Line 375
	xor	eax, eax
	jmp	SHORT $LN9@displayDev
$LN1@displayDev:
; Line 377
	lea	rdx, OFFSET FLAT:$SG95942
	lea	rcx, OFFSET FLAT:?cout@std@@3V?$basic_ostream@DU?$char_traits@D@std@@@1@A ; std::cout
	call	??$?6U?$char_traits@D@std@@@std@@YAAEAV?$basic_ostream@DU?$char_traits@D@std@@@0@AEAV10@PEBD@Z ; std::operator<<<std::char_traits<char> >
	mov	edx, DWORD PTR i$95929[rsp]
	mov	rcx, rax
	call	??6?$basic_ostream@DU?$char_traits@D@std@@@std@@QEAAAEAV01@I@Z ; std::basic_ostream<char,std::char_traits<char> >::operator<<
	lea	rdx, OFFSET FLAT:$SG95941
	mov	rcx, rax
	call	??$?6U?$char_traits@D@std@@@std@@YAAEAV?$basic_ostream@DU?$char_traits@D@std@@@0@AEAV10@PEBD@Z ; std::operator<<<std::char_traits<char> >
	lea	rdx, QWORD PTR deviceName$95933[rsp]
	mov	rcx, rax
	call	??$?6U?$char_traits@D@std@@@std@@YAAEAV?$basic_ostream@DU?$char_traits@D@std@@@0@AEAV10@PEBD@Z ; std::operator<<<std::char_traits<char> >
	lea	rdx, OFFSET FLAT:?endl@std@@YAAEAV?$basic_ostream@DU?$char_traits@D@std@@@1@AEAV21@@Z ; std::endl
	mov	rcx, rax
	call	??6?$basic_ostream@DU?$char_traits@D@std@@@std@@QEAAAEAV01@P6AAEAV01@AEAV01@@Z@Z ; std::basic_ostream<char,std::char_traits<char> >::operator<<
; Line 378
	jmp	$LN3@displayDev
$LN2@displayDev:
; Line 380
	mov	rcx, QWORD PTR deviceIds$[rsp]
	call	free
; Line 382
	mov	eax, 1
$LN9@displayDev:
; Line 383
	mov	rdi, rax
	mov	rcx, rsp
	lea	rdx, OFFSET FLAT:?displayDevices@SDKCommon@streamsdk@@QEAAHPEAU_cl_platform_id@@_K@Z$rtcFrameData
	call	_RTC_CheckStackVars
	mov	rax, rdi
	mov	rcx, QWORD PTR __$ArrayPad$[rsp]
	xor	rcx, rsp
	call	__security_check_cookie
	add	rsp, 2496				; 000009c0H
	pop	rdi
	ret	0
?displayDevices@SDKCommon@streamsdk@@QEAAHPEAU_cl_platform_id@@_K@Z ENDP ; streamsdk::SDKCommon::displayDevices
_TEXT	ENDS
PUBLIC	?flush@?$basic_ostream@DU?$char_traits@D@std@@@std@@QEAAAEAV12@XZ ; std::basic_ostream<char,std::char_traits<char> >::flush
PUBLIC	?put@?$basic_ostream@DU?$char_traits@D@std@@@std@@QEAAAEAV12@D@Z ; std::basic_ostream<char,std::char_traits<char> >::put
;	COMDAT pdata
; File c:\program files (x86)\microsoft visual studio 10.0\vc\include\ostream
pdata	SEGMENT
$pdata$?endl@std@@YAAEAV?$basic_ostream@DU?$char_traits@D@std@@@1@AEAV21@@Z DD imagerel $LN3
	DD	imagerel $LN3+63
	DD	imagerel $unwind$?endl@std@@YAAEAV?$basic_ostream@DU?$char_traits@D@std@@@1@AEAV21@@Z
pdata	ENDS
;	COMDAT xdata
xdata	SEGMENT
$unwind$?endl@std@@YAAEAV?$basic_ostream@DU?$char_traits@D@std@@@1@AEAV21@@Z DD 021e01H
	DD	07006320aH
; Function compile flags: /Odtp /RTCsu
xdata	ENDS
;	COMDAT ?endl@std@@YAAEAV?$basic_ostream@DU?$char_traits@D@std@@@1@AEAV21@@Z
_TEXT	SEGMENT
_Ostr$ = 48
?endl@std@@YAAEAV?$basic_ostream@DU?$char_traits@D@std@@@1@AEAV21@@Z PROC ; std::endl, COMDAT
; Line 1004
$LN3:
	mov	QWORD PTR [rsp+8], rcx
	push	rdi
	sub	rsp, 32					; 00000020H
	mov	rdi, rsp
	mov	ecx, 8
	mov	eax, -858993460				; ccccccccH
	rep stosd
	mov	rcx, QWORD PTR [rsp+48]
; Line 1005
	mov	dl, 10
	mov	rcx, QWORD PTR _Ostr$[rsp]
	call	?put@?$basic_ostream@DU?$char_traits@D@std@@@std@@QEAAAEAV12@D@Z ; std::basic_ostream<char,std::char_traits<char> >::put
; Line 1006
	mov	rcx, QWORD PTR _Ostr$[rsp]
	call	?flush@?$basic_ostream@DU?$char_traits@D@std@@@std@@QEAAAEAV12@XZ ; std::basic_ostream<char,std::char_traits<char> >::flush
; Line 1007
	mov	rax, QWORD PTR _Ostr$[rsp]
; Line 1008
	add	rsp, 32					; 00000020H
	pop	rdi
	ret	0
?endl@std@@YAAEAV?$basic_ostream@DU?$char_traits@D@std@@@1@AEAV21@@Z ENDP ; std::endl
_TEXT	ENDS
PUBLIC	??6?$basic_ostream@DU?$char_traits@D@std@@@std@@QEAAAEAV01@H@Z ; std::basic_ostream<char,std::char_traits<char> >::operator<<
PUBLIC	?validateDeviceId@SDKCommon@streamsdk@@QEAAHHH@Z ; streamsdk::SDKCommon::validateDeviceId
pdata	SEGMENT
$pdata$?validateDeviceId@SDKCommon@streamsdk@@QEAAHHH@Z DD imagerel $LN4
	DD	imagerel $LN4+110
	DD	imagerel $unwind$?validateDeviceId@SDKCommon@streamsdk@@QEAAHHH@Z
pdata	ENDS
xdata	SEGMENT
$unwind$?validateDeviceId@SDKCommon@streamsdk@@QEAAHHH@Z DD 022701H
	DD	0700f3213H
; Function compile flags: /Odtp /RTCsu
xdata	ENDS
_TEXT	SEGMENT
this$ = 48
deviceId$ = 56
deviceCount$ = 64
?validateDeviceId@SDKCommon@streamsdk@@QEAAHHH@Z PROC	; streamsdk::SDKCommon::validateDeviceId
; File c:\development\cellct\tomographic_imaging - current\sdkutil\sdkcommon.cpp
; Line 388
$LN4:
	mov	DWORD PTR [rsp+24], r8d
	mov	DWORD PTR [rsp+16], edx
	mov	QWORD PTR [rsp+8], rcx
	push	rdi
	sub	rsp, 32					; 00000020H
	mov	rdi, rsp
	mov	ecx, 8
	mov	eax, -858993460				; ccccccccH
	rep stosd
	mov	rcx, QWORD PTR [rsp+48]
; Line 390
	mov	eax, DWORD PTR deviceCount$[rsp]
	cmp	DWORD PTR deviceId$[rsp], eax
	jl	SHORT $LN1@validateDe
; Line 392
	lea	rdx, OFFSET FLAT:$SG95965
	lea	rcx, OFFSET FLAT:?cout@std@@3V?$basic_ostream@DU?$char_traits@D@std@@@1@A ; std::cout
	call	??$?6U?$char_traits@D@std@@@std@@YAAEAV?$basic_ostream@DU?$char_traits@D@std@@@0@AEAV10@PEBD@Z ; std::operator<<<std::char_traits<char> >
	mov	edx, DWORD PTR deviceCount$[rsp]
	mov	rcx, rax
	call	??6?$basic_ostream@DU?$char_traits@D@std@@@std@@QEAAAEAV01@H@Z ; std::basic_ostream<char,std::char_traits<char> >::operator<<
	lea	rdx, OFFSET FLAT:?endl@std@@YAAEAV?$basic_ostream@DU?$char_traits@D@std@@@1@AEAV21@@Z ; std::endl
	mov	rcx, rax
	call	??6?$basic_ostream@DU?$char_traits@D@std@@@std@@QEAAAEAV01@P6AAEAV01@AEAV01@@Z@Z ; std::basic_ostream<char,std::char_traits<char> >::operator<<
; Line 393
	xor	eax, eax
	jmp	SHORT $LN2@validateDe
$LN1@validateDe:
; Line 396
	mov	eax, 1
$LN2@validateDe:
; Line 397
	add	rsp, 32					; 00000020H
	pop	rdi
	ret	0
?validateDeviceId@SDKCommon@streamsdk@@QEAAHHH@Z ENDP	; streamsdk::SDKCommon::validateDeviceId
_TEXT	ENDS
PUBLIC	__real@33d6bf95
PUBLIC	?fabs@@YAMM@Z					; fabs
PUBLIC	?compare@SDKCommon@streamsdk@@QEAA_NPEBM0HM@Z	; streamsdk::SDKCommon::compare
EXTRN	sqrtf:PROC
EXTRN	_fltused:DWORD
pdata	SEGMENT
$pdata$?compare@SDKCommon@streamsdk@@QEAA_NPEBM0HM@Z DD imagerel $LN9
	DD	imagerel $LN9+338
	DD	imagerel $unwind$?compare@SDKCommon@streamsdk@@QEAA_NPEBM0HM@Z
pdata	ENDS
xdata	SEGMENT
$unwind$?compare@SDKCommon@streamsdk@@QEAA_NPEBM0HM@Z DD 022d01H
	DD	070157219H
xdata	ENDS
;	COMDAT __real@33d6bf95
CONST	SEGMENT
__real@33d6bf95 DD 033d6bf95r			; 1e-007
; Function compile flags: /Odtp /RTCsu
CONST	ENDS
_TEXT	SEGMENT
error$ = 32
ref$ = 36
i$95975 = 40
diff$95979 = 44
normRef$ = 48
normError$ = 52
tv92 = 56
this$ = 80
refData$ = 88
data$ = 96
length$ = 104
epsilon$ = 112
?compare@SDKCommon@streamsdk@@QEAA_NPEBM0HM@Z PROC	; streamsdk::SDKCommon::compare
; Line 403
$LN9:
	mov	DWORD PTR [rsp+32], r9d
	mov	QWORD PTR [rsp+24], r8
	mov	QWORD PTR [rsp+16], rdx
	mov	QWORD PTR [rsp+8], rcx
	push	rdi
	sub	rsp, 64					; 00000040H
	mov	rdi, rsp
	mov	ecx, 16
	mov	eax, -858993460				; ccccccccH
	rep stosd
	mov	rcx, QWORD PTR [rsp+80]
; Line 404
	xorps	xmm0, xmm0
	movss	DWORD PTR error$[rsp], xmm0
; Line 405
	xorps	xmm0, xmm0
	movss	DWORD PTR ref$[rsp], xmm0
; Line 407
	mov	DWORD PTR i$95975[rsp], 1
	jmp	SHORT $LN4@compare
$LN3@compare:
	mov	eax, DWORD PTR i$95975[rsp]
	inc	eax
	mov	DWORD PTR i$95975[rsp], eax
$LN4@compare:
	mov	eax, DWORD PTR length$[rsp]
	cmp	DWORD PTR i$95975[rsp], eax
	jge	SHORT $LN2@compare
; Line 409
	movsxd	rax, DWORD PTR i$95975[rsp]
	movsxd	rcx, DWORD PTR i$95975[rsp]
	mov	rdx, QWORD PTR refData$[rsp]
	mov	r8, QWORD PTR data$[rsp]
	movss	xmm0, DWORD PTR [rdx+rax*4]
	subss	xmm0, DWORD PTR [r8+rcx*4]
	movss	DWORD PTR diff$95979[rsp], xmm0
; Line 410
	movss	xmm0, DWORD PTR diff$95979[rsp]
	mulss	xmm0, DWORD PTR diff$95979[rsp]
	movss	xmm1, DWORD PTR error$[rsp]
	addss	xmm1, xmm0
	movaps	xmm0, xmm1
	movss	DWORD PTR error$[rsp], xmm0
; Line 411
	movsxd	rax, DWORD PTR i$95975[rsp]
	movsxd	rcx, DWORD PTR i$95975[rsp]
	mov	rdx, QWORD PTR refData$[rsp]
	mov	r8, QWORD PTR refData$[rsp]
	movss	xmm0, DWORD PTR [rdx+rax*4]
	mulss	xmm0, DWORD PTR [r8+rcx*4]
	movss	xmm1, DWORD PTR ref$[rsp]
	addss	xmm1, xmm0
	movaps	xmm0, xmm1
	movss	DWORD PTR ref$[rsp], xmm0
; Line 412
	jmp	$LN3@compare
$LN2@compare:
; Line 414
	movss	xmm0, DWORD PTR ref$[rsp]
	call	sqrtf
	movss	DWORD PTR normRef$[rsp], xmm0
; Line 415
	movss	xmm0, DWORD PTR ref$[rsp]
	call	?fabs@@YAMM@Z				; fabs
	movss	xmm1, DWORD PTR __real@33d6bf95
	comiss	xmm1, xmm0
	jbe	SHORT $LN1@compare
; Line 416
	xor	al, al
	jmp	SHORT $LN5@compare
$LN1@compare:
; Line 418
	movss	xmm0, DWORD PTR error$[rsp]
	call	sqrtf
	movss	DWORD PTR normError$[rsp], xmm0
; Line 419
	movss	xmm0, DWORD PTR normError$[rsp]
	divss	xmm0, DWORD PTR normRef$[rsp]
	movss	DWORD PTR error$[rsp], xmm0
; Line 421
	movss	xmm0, DWORD PTR epsilon$[rsp]
	comiss	xmm0, DWORD PTR error$[rsp]
	jbe	SHORT $LN7@compare
	mov	DWORD PTR tv92[rsp], 1
	jmp	SHORT $LN8@compare
$LN7@compare:
	mov	DWORD PTR tv92[rsp], 0
$LN8@compare:
	movzx	eax, BYTE PTR tv92[rsp]
$LN5@compare:
; Line 422
	add	rsp, 64					; 00000040H
	pop	rdi
	ret	0
?compare@SDKCommon@streamsdk@@QEAA_NPEBM0HM@Z ENDP	; streamsdk::SDKCommon::compare
_TEXT	ENDS
PUBLIC	fabsf
;	COMDAT pdata
; File c:\program files (x86)\microsoft visual studio 10.0\vc\include\math.h
pdata	SEGMENT
$pdata$?fabs@@YAMM@Z DD imagerel $LN3
	DD	imagerel $LN3+43
	DD	imagerel $unwind$?fabs@@YAMM@Z
pdata	ENDS
;	COMDAT xdata
xdata	SEGMENT
$unwind$?fabs@@YAMM@Z DD 021a01H
	DD	07007520bH
; Function compile flags: /Odtp /RTCsu
xdata	ENDS
;	COMDAT ?fabs@@YAMM@Z
_TEXT	SEGMENT
_X$ = 64
?fabs@@YAMM@Z PROC					; fabs, COMDAT
; Line 518
$LN3:
	movss	DWORD PTR [rsp+8], xmm0
	push	rdi
	sub	rsp, 48					; 00000030H
	mov	rdi, rsp
	mov	ecx, 12
	mov	eax, -858993460				; ccccccccH
	rep stosd
	movss	xmm0, DWORD PTR _X$[rsp]
	call	fabsf
	add	rsp, 48					; 00000030H
	pop	rdi
	ret	0
?fabs@@YAMM@Z ENDP					; fabs
_TEXT	ENDS
EXTRN	fabs:PROC
;	COMDAT pdata
pdata	SEGMENT
$pdata$fabsf DD	imagerel $LN3
	DD	imagerel $LN3+50
	DD	imagerel $unwind$fabsf
pdata	ENDS
;	COMDAT xdata
xdata	SEGMENT
$unwind$fabsf DD 021a01H
	DD	07007520bH
; Function compile flags: /Odtp /RTCsu
xdata	ENDS
;	COMDAT fabsf
_TEXT	SEGMENT
_X$ = 64
fabsf	PROC						; COMDAT
; Line 395
$LN3:
	movss	DWORD PTR [rsp+8], xmm0
	push	rdi
	sub	rsp, 48					; 00000030H
	mov	rdi, rsp
	mov	ecx, 12
	mov	eax, -858993460				; ccccccccH
	rep stosd
	movd	xmm0, DWORD PTR _X$[rsp]
	cvtps2pd xmm0, xmm0
	call	fabs
	cvtsd2ss xmm0, xmm0
	add	rsp, 48					; 00000030H
	pop	rdi
	ret	0
fabsf	ENDP
_TEXT	ENDS
PUBLIC	__real@3e7ad7f29abcaf48
PUBLIC	?compare@SDKCommon@streamsdk@@QEAA_NPEBN0HN@Z	; streamsdk::SDKCommon::compare
EXTRN	sqrt:PROC
pdata	SEGMENT
$pdata$?compare@SDKCommon@streamsdk@@QEAA_NPEBN0HN@Z DD imagerel $LN9
	DD	imagerel $LN9+357
	DD	imagerel $unwind$?compare@SDKCommon@streamsdk@@QEAA_NPEBN0HN@Z
pdata	ENDS
xdata	SEGMENT
$unwind$?compare@SDKCommon@streamsdk@@QEAA_NPEBN0HN@Z DD 022d01H
	DD	07015b219H
xdata	ENDS
;	COMDAT __real@3e7ad7f29abcaf48
; File c:\development\cellct\tomographic_imaging - current\sdkutil\sdkcommon.cpp
CONST	SEGMENT
__real@3e7ad7f29abcaf48 DQ 03e7ad7f29abcaf48r	; 1e-007
; Function compile flags: /Odtp /RTCsu
CONST	ENDS
_TEXT	SEGMENT
error$ = 32
ref$ = 40
i$95995 = 48
diff$95999 = 56
normRef$ = 64
normError$ = 72
tv92 = 80
this$ = 112
refData$ = 120
data$ = 128
length$ = 136
epsilon$ = 144
?compare@SDKCommon@streamsdk@@QEAA_NPEBN0HN@Z PROC	; streamsdk::SDKCommon::compare
; Line 427
$LN9:
	mov	DWORD PTR [rsp+32], r9d
	mov	QWORD PTR [rsp+24], r8
	mov	QWORD PTR [rsp+16], rdx
	mov	QWORD PTR [rsp+8], rcx
	push	rdi
	sub	rsp, 96					; 00000060H
	mov	rdi, rsp
	mov	ecx, 24
	mov	eax, -858993460				; ccccccccH
	rep stosd
	mov	rcx, QWORD PTR [rsp+112]
; Line 428
	xorpd	xmm0, xmm0
	movsdx	QWORD PTR error$[rsp], xmm0
; Line 429
	xorpd	xmm0, xmm0
	movsdx	QWORD PTR ref$[rsp], xmm0
; Line 431
	mov	DWORD PTR i$95995[rsp], 1
	jmp	SHORT $LN4@compare@2
$LN3@compare@2:
	mov	eax, DWORD PTR i$95995[rsp]
	inc	eax
	mov	DWORD PTR i$95995[rsp], eax
$LN4@compare@2:
	mov	eax, DWORD PTR length$[rsp]
	cmp	DWORD PTR i$95995[rsp], eax
	jge	$LN2@compare@2
; Line 433
	movsxd	rax, DWORD PTR i$95995[rsp]
	movsxd	rcx, DWORD PTR i$95995[rsp]
	mov	rdx, QWORD PTR refData$[rsp]
	mov	r8, QWORD PTR data$[rsp]
	movsdx	xmm0, QWORD PTR [rdx+rax*8]
	subsd	xmm0, QWORD PTR [r8+rcx*8]
	movsdx	QWORD PTR diff$95999[rsp], xmm0
; Line 434
	movsdx	xmm0, QWORD PTR diff$95999[rsp]
	mulsd	xmm0, QWORD PTR diff$95999[rsp]
	movsdx	xmm1, QWORD PTR error$[rsp]
	addsd	xmm1, xmm0
	movapd	xmm0, xmm1
	movsdx	QWORD PTR error$[rsp], xmm0
; Line 435
	movsxd	rax, DWORD PTR i$95995[rsp]
	movsxd	rcx, DWORD PTR i$95995[rsp]
	mov	rdx, QWORD PTR refData$[rsp]
	mov	r8, QWORD PTR refData$[rsp]
	movsdx	xmm0, QWORD PTR [rdx+rax*8]
	mulsd	xmm0, QWORD PTR [r8+rcx*8]
	movsdx	xmm1, QWORD PTR ref$[rsp]
	addsd	xmm1, xmm0
	movapd	xmm0, xmm1
	movsdx	QWORD PTR ref$[rsp], xmm0
; Line 436
	jmp	$LN3@compare@2
$LN2@compare@2:
; Line 438
	movsdx	xmm0, QWORD PTR ref$[rsp]
	call	sqrt
	movsdx	QWORD PTR normRef$[rsp], xmm0
; Line 439
	movsdx	xmm0, QWORD PTR ref$[rsp]
	call	fabs
	movsdx	xmm1, QWORD PTR __real@3e7ad7f29abcaf48
	comisd	xmm1, xmm0
	jbe	SHORT $LN1@compare@2
; Line 440
	xor	al, al
	jmp	SHORT $LN5@compare@2
$LN1@compare@2:
; Line 442
	movsdx	xmm0, QWORD PTR error$[rsp]
	call	sqrt
	movsdx	QWORD PTR normError$[rsp], xmm0
; Line 443
	movsdx	xmm0, QWORD PTR normError$[rsp]
	divsd	xmm0, QWORD PTR normRef$[rsp]
	movsdx	QWORD PTR error$[rsp], xmm0
; Line 445
	movsdx	xmm0, QWORD PTR epsilon$[rsp]
	comisd	xmm0, QWORD PTR error$[rsp]
	jbe	SHORT $LN7@compare@2
	mov	DWORD PTR tv92[rsp], 1
	jmp	SHORT $LN8@compare@2
$LN7@compare@2:
	mov	DWORD PTR tv92[rsp], 0
$LN8@compare@2:
	movzx	eax, BYTE PTR tv92[rsp]
$LN5@compare@2:
; Line 446
	add	rsp, 96					; 00000060H
	pop	rdi
	ret	0
?compare@SDKCommon@streamsdk@@QEAA_NPEBN0HN@Z ENDP	; streamsdk::SDKCommon::compare
_TEXT	ENDS
PUBLIC	?getLocalThreads@SDKCommon@streamsdk@@QEAA_K_K0@Z ; streamsdk::SDKCommon::getLocalThreads
pdata	SEGMENT
$pdata$?getLocalThreads@SDKCommon@streamsdk@@QEAA_K_K0@Z DD imagerel $LN11
	DD	imagerel $LN11+160
	DD	imagerel $unwind$?getLocalThreads@SDKCommon@streamsdk@@QEAA_K_K0@Z
pdata	ENDS
xdata	SEGMENT
$unwind$?getLocalThreads@SDKCommon@streamsdk@@QEAA_K_K0@Z DD 022801H
	DD	070101214H
; Function compile flags: /Odtp /RTCsu
xdata	ENDS
_TEXT	SEGMENT
i$96014 = 0
this$ = 32
globalThreads$ = 40
maxWorkItemSize$ = 48
?getLocalThreads@SDKCommon@streamsdk@@QEAA_K_K0@Z PROC	; streamsdk::SDKCommon::getLocalThreads
; Line 451
$LN11:
	mov	QWORD PTR [rsp+24], r8
	mov	QWORD PTR [rsp+16], rdx
	mov	QWORD PTR [rsp+8], rcx
	push	rdi
	sub	rsp, 16
	mov	rdi, rsp
	mov	ecx, 4
	mov	eax, -858993460				; ccccccccH
	rep stosd
	mov	rcx, QWORD PTR [rsp+32]
; Line 452
	mov	rax, QWORD PTR globalThreads$[rsp]
	cmp	QWORD PTR maxWorkItemSize$[rsp], rax
	jae	SHORT $LN8@getLocalTh
; Line 454
	xor	edx, edx
	mov	rax, QWORD PTR globalThreads$[rsp]
	div	QWORD PTR maxWorkItemSize$[rsp]
	mov	rax, rdx
	test	rax, rax
	jne	SHORT $LN7@getLocalTh
; Line 455
	mov	rax, QWORD PTR maxWorkItemSize$[rsp]
	jmp	SHORT $LN9@getLocalTh
; Line 456
	jmp	SHORT $LN6@getLocalTh
$LN7@getLocalTh:
; Line 458
	mov	rax, QWORD PTR maxWorkItemSize$[rsp]
	dec	rax
	mov	QWORD PTR i$96014[rsp], rax
	jmp	SHORT $LN5@getLocalTh
$LN4@getLocalTh:
	mov	rax, QWORD PTR i$96014[rsp]
	dec	rax
	mov	QWORD PTR i$96014[rsp], rax
$LN5@getLocalTh:
	cmp	QWORD PTR i$96014[rsp], 0
	jbe	SHORT $LN3@getLocalTh
; Line 460
	xor	edx, edx
	mov	rax, QWORD PTR globalThreads$[rsp]
	div	QWORD PTR i$96014[rsp]
	mov	rax, rdx
	test	rax, rax
	jne	SHORT $LN2@getLocalTh
; Line 461
	mov	rax, QWORD PTR i$96014[rsp]
	jmp	SHORT $LN9@getLocalTh
$LN2@getLocalTh:
; Line 462
	jmp	SHORT $LN4@getLocalTh
$LN3@getLocalTh:
$LN6@getLocalTh:
; Line 465
	jmp	SHORT $LN1@getLocalTh
$LN8@getLocalTh:
; Line 467
	mov	rax, QWORD PTR globalThreads$[rsp]
	jmp	SHORT $LN9@getLocalTh
$LN1@getLocalTh:
; Line 470
	mov	eax, 1
$LN9@getLocalTh:
; Line 471
	add	rsp, 16
	pop	rdi
	ret	0
?getLocalThreads@SDKCommon@streamsdk@@QEAA_K_K0@Z ENDP	; streamsdk::SDKCommon::getLocalThreads
_TEXT	ENDS
PUBLIC	?size@?$vector@PEAUTimer@streamsdk@@V?$allocator@PEAUTimer@streamsdk@@@std@@@std@@QEBA_KXZ ; std::vector<streamsdk::Timer * __ptr64,std::allocator<streamsdk::Timer * __ptr64> >::size
PUBLIC	?push_back@?$vector@PEAUTimer@streamsdk@@V?$allocator@PEAUTimer@streamsdk@@@std@@@std@@QEAAXAEBQEAUTimer@streamsdk@@@Z ; std::vector<streamsdk::Timer * __ptr64,std::allocator<streamsdk::Timer * __ptr64> >::push_back
PUBLIC	??0Timer@streamsdk@@QEAA@XZ			; streamsdk::Timer::Timer
PUBLIC	?createTimer@SDKCommon@streamsdk@@QEAAHXZ	; streamsdk::SDKCommon::createTimer
EXTRN	__imp_QueryPerformanceFrequency:PROC
EXTRN	??2@YAPEAX_K@Z:PROC				; operator new
pdata	SEGMENT
$pdata$?createTimer@SDKCommon@streamsdk@@QEAAHXZ DD imagerel $LN6
	DD	imagerel $LN6+207
	DD	imagerel $unwind$?createTimer@SDKCommon@streamsdk@@QEAAHXZ
pdata	ENDS
pdata	SEGMENT
$pdata$?dtor$0@?0??createTimer@SDKCommon@streamsdk@@QEAAHXZ@4HA DD imagerel ?dtor$0@?0??createTimer@SDKCommon@streamsdk@@QEAAHXZ@4HA
	DD	imagerel ?dtor$0@?0??createTimer@SDKCommon@streamsdk@@QEAAHXZ@4HA+35
	DD	imagerel $unwind$?dtor$0@?0??createTimer@SDKCommon@streamsdk@@QEAAHXZ@4HA
pdata	ENDS
xdata	SEGMENT
$stateUnwindMap$?createTimer@SDKCommon@streamsdk@@QEAAHXZ DD 0ffffffffH
	DD	imagerel ?dtor$0@?0??createTimer@SDKCommon@streamsdk@@QEAAHXZ@4HA
$unwind$?createTimer@SDKCommon@streamsdk@@QEAAHXZ DD 022711H
	DD	07006b20aH
	DD	imagerel __CxxFrameHandler3
	DD	imagerel $cppxdata$?createTimer@SDKCommon@streamsdk@@QEAAHXZ
$unwind$?dtor$0@?0??createTimer@SDKCommon@streamsdk@@QEAAHXZ@4HA DD 031001H
	DD	0700c4210H
	DD	0500bH
$ip2state$?createTimer@SDKCommon@streamsdk@@QEAAHXZ DD imagerel ?createTimer@SDKCommon@streamsdk@@QEAAHXZ
	DD	0ffffffffH
	DD	imagerel ?createTimer@SDKCommon@streamsdk@@QEAAHXZ+54
	DD	00H
	DD	imagerel ?createTimer@SDKCommon@streamsdk@@QEAAHXZ+98
	DD	0ffffffffH
xdata	ENDS
CONST	SEGMENT
?createTimer@SDKCommon@streamsdk@@QEAAHXZ$rtcName$0 DB 06eH ; streamsdk::SDKCommon::createTimer
	DB	065H
	DB	077H
	DB	054H
	DB	069H
	DB	06dH
	DB	065H
	DB	072H
	DB	00H
	ORG $+7
?createTimer@SDKCommon@streamsdk@@QEAAHXZ$rtcVarDesc DD 028H ; streamsdk::SDKCommon::createTimer
	DD	08H
	DQ	FLAT:?createTimer@SDKCommon@streamsdk@@QEAAHXZ$rtcName$0
	ORG $+48
?createTimer@SDKCommon@streamsdk@@QEAAHXZ$rtcFrameData DD 01H ; streamsdk::SDKCommon::createTimer
	DD	00H
	DQ	FLAT:?createTimer@SDKCommon@streamsdk@@QEAAHXZ$rtcVarDesc
$cppxdata$?createTimer@SDKCommon@streamsdk@@QEAAHXZ DD 019930522H
	DD	01H
	DD	imagerel $stateUnwindMap$?createTimer@SDKCommon@streamsdk@@QEAAHXZ
	DD	00H
	DD	00H
	DD	03H
	DD	imagerel $ip2state$?createTimer@SDKCommon@streamsdk@@QEAAHXZ
	DD	048H
	DD	00H
	DD	01H
; Function compile flags: /Odtp /RTCsu
CONST	ENDS
_TEXT	SEGMENT
newTimer$ = 40
$T107041 = 56
$T107042 = 64
$T107048 = 72
tv71 = 80
this$ = 112
?createTimer@SDKCommon@streamsdk@@QEAAHXZ PROC		; streamsdk::SDKCommon::createTimer
; Line 474
$LN6:
	mov	QWORD PTR [rsp+8], rcx
	push	rdi
	sub	rsp, 96					; 00000060H
	mov	rdi, rsp
	mov	ecx, 24
	mov	eax, -858993460				; ccccccccH
	rep stosd
	mov	rcx, QWORD PTR [rsp+112]
	mov	QWORD PTR $T107048[rsp], -2
; Line 475
	mov	ecx, 72					; 00000048H
	call	??2@YAPEAX_K@Z				; operator new
	mov	QWORD PTR $T107042[rsp], rax
	cmp	QWORD PTR $T107042[rsp], 0
	je	SHORT $LN3@createTime
	mov	rcx, QWORD PTR $T107042[rsp]
	call	??0Timer@streamsdk@@QEAA@XZ
	mov	QWORD PTR tv71[rsp], rax
	jmp	SHORT $LN4@createTime
$LN3@createTime:
	mov	QWORD PTR tv71[rsp], 0
$LN4@createTime:
	mov	rax, QWORD PTR tv71[rsp]
	mov	QWORD PTR $T107041[rsp], rax
	mov	rax, QWORD PTR $T107041[rsp]
	mov	QWORD PTR newTimer$[rsp], rax
; Line 476
	mov	rax, QWORD PTR newTimer$[rsp]
	mov	QWORD PTR [rax+64], 0
; Line 477
	mov	rax, QWORD PTR newTimer$[rsp]
	mov	QWORD PTR [rax+56], 0
; Line 480
	mov	rax, QWORD PTR newTimer$[rsp]
	add	rax, 48					; 00000030H
	mov	rcx, rax
	call	QWORD PTR __imp_QueryPerformanceFrequency
; Line 486
	lea	rdx, QWORD PTR newTimer$[rsp]
	mov	rcx, QWORD PTR this$[rsp]
	call	?push_back@?$vector@PEAUTimer@streamsdk@@V?$allocator@PEAUTimer@streamsdk@@@std@@@std@@QEAAXAEBQEAUTimer@streamsdk@@@Z ; std::vector<streamsdk::Timer * __ptr64,std::allocator<streamsdk::Timer * __ptr64> >::push_back
; Line 513
	mov	rcx, QWORD PTR this$[rsp]
	call	?size@?$vector@PEAUTimer@streamsdk@@V?$allocator@PEAUTimer@streamsdk@@@std@@@std@@QEBA_KXZ ; std::vector<streamsdk::Timer * __ptr64,std::allocator<streamsdk::Timer * __ptr64> >::size
	dec	rax
; Line 514
	mov	rdi, rax
	mov	rcx, rsp
	lea	rdx, OFFSET FLAT:?createTimer@SDKCommon@streamsdk@@QEAAHXZ$rtcFrameData
	call	_RTC_CheckStackVars
	mov	rax, rdi
	add	rsp, 96					; 00000060H
	pop	rdi
	ret	0
?createTimer@SDKCommon@streamsdk@@QEAAHXZ ENDP		; streamsdk::SDKCommon::createTimer
; Function compile flags: /Odtp /RTCsu
_TEXT	ENDS
text$x	SEGMENT
newTimer$ = 40
$T107041 = 56
$T107042 = 64
$T107048 = 72
tv71 = 80
this$ = 112
?dtor$0@?0??createTimer@SDKCommon@streamsdk@@QEAAHXZ@4HA PROC ; `streamsdk::SDKCommon::createTimer'::`1'::dtor$0
	mov	QWORD PTR [rsp+8], rcx
	mov	QWORD PTR [rsp+16], rdx
	push	rbp
	push	rdi
	sub	rsp, 40					; 00000028H
	mov	rbp, rdx
	mov	rcx, QWORD PTR $T107042[rbp]
	call	??3@YAXPEAX@Z				; operator delete
	add	rsp, 40					; 00000028H
	pop	rdi
	pop	rbp
	ret	0
?dtor$0@?0??createTimer@SDKCommon@streamsdk@@QEAAHXZ@4HA ENDP ; `streamsdk::SDKCommon::createTimer'::`1'::dtor$0
text$x	ENDS
PUBLIC	??0?$basic_string@DU?$char_traits@D@std@@V?$allocator@D@2@@std@@QEAA@XZ ; std::basic_string<char,std::char_traits<char>,std::allocator<char> >::basic_string<char,std::char_traits<char>,std::allocator<char> >
;	COMDAT pdata
pdata	SEGMENT
$pdata$??0Timer@streamsdk@@QEAA@XZ DD imagerel $LN4
	DD	imagerel $LN4+51
	DD	imagerel $unwind$??0Timer@streamsdk@@QEAA@XZ
pdata	ENDS
;	COMDAT xdata
xdata	SEGMENT
$unwind$??0Timer@streamsdk@@QEAA@XZ DD 021e01H
	DD	07006320aH
; Function compile flags: /Odtp /RTCsu
xdata	ENDS
;	COMDAT ??0Timer@streamsdk@@QEAA@XZ
_TEXT	SEGMENT
this$ = 48
??0Timer@streamsdk@@QEAA@XZ PROC			; streamsdk::Timer::Timer, COMDAT
$LN4:
	mov	QWORD PTR [rsp+8], rcx
	push	rdi
	sub	rsp, 32					; 00000020H
	mov	rdi, rsp
	mov	ecx, 8
	mov	eax, -858993460				; ccccccccH
	rep stosd
	mov	rcx, QWORD PTR [rsp+48]
	mov	rcx, QWORD PTR this$[rsp]
	call	??0?$basic_string@DU?$char_traits@D@std@@V?$allocator@D@2@@std@@QEAA@XZ ; std::basic_string<char,std::char_traits<char>,std::allocator<char> >::basic_string<char,std::char_traits<char>,std::allocator<char> >
	mov	rax, QWORD PTR this$[rsp]
	add	rsp, 32					; 00000020H
	pop	rdi
	ret	0
??0Timer@streamsdk@@QEAA@XZ ENDP			; streamsdk::Timer::Timer
_TEXT	ENDS
PUBLIC	??A?$vector@PEAUTimer@streamsdk@@V?$allocator@PEAUTimer@streamsdk@@@std@@@std@@QEAAAEAPEAUTimer@streamsdk@@_K@Z ; std::vector<streamsdk::Timer * __ptr64,std::allocator<streamsdk::Timer * __ptr64> >::operator[]
PUBLIC	?resetTimer@SDKCommon@streamsdk@@QEAAHH@Z	; streamsdk::SDKCommon::resetTimer
pdata	SEGMENT
$pdata$?resetTimer@SDKCommon@streamsdk@@QEAAHH@Z DD imagerel $LN4
	DD	imagerel $LN4+140
	DD	imagerel $unwind$?resetTimer@SDKCommon@streamsdk@@QEAAHH@Z
pdata	ENDS
xdata	SEGMENT
$unwind$?resetTimer@SDKCommon@streamsdk@@QEAAHH@Z DD 022201H
	DD	0700a320eH
; Function compile flags: /Odtp /RTCsu
xdata	ENDS
_TEXT	SEGMENT
this$ = 48
handle$ = 56
?resetTimer@SDKCommon@streamsdk@@QEAAHH@Z PROC		; streamsdk::SDKCommon::resetTimer
; Line 517
$LN4:
	mov	DWORD PTR [rsp+16], edx
	mov	QWORD PTR [rsp+8], rcx
	push	rdi
	sub	rsp, 32					; 00000020H
	mov	rdi, rsp
	mov	ecx, 8
	mov	eax, -858993460				; ccccccccH
	rep stosd
	mov	rcx, QWORD PTR [rsp+48]
; Line 518
	mov	rcx, QWORD PTR this$[rsp]
	call	?size@?$vector@PEAUTimer@streamsdk@@V?$allocator@PEAUTimer@streamsdk@@@std@@@std@@QEBA_KXZ ; std::vector<streamsdk::Timer * __ptr64,std::allocator<streamsdk::Timer * __ptr64> >::size
	cmp	DWORD PTR handle$[rsp], eax
	jl	SHORT $LN1@resetTimer
; Line 520
	lea	rdx, OFFSET FLAT:$SG96038
	mov	rcx, QWORD PTR this$[rsp]
	call	?error@SDKCommon@streamsdk@@QEBAXPEBD@Z	; streamsdk::SDKCommon::error
; Line 521
	xor	eax, eax
	jmp	SHORT $LN2@resetTimer
$LN1@resetTimer:
; Line 524
	movsxd	rax, DWORD PTR handle$[rsp]
	mov	rdx, rax
	mov	rcx, QWORD PTR this$[rsp]
	call	??A?$vector@PEAUTimer@streamsdk@@V?$allocator@PEAUTimer@streamsdk@@@std@@@std@@QEAAAEAPEAUTimer@streamsdk@@_K@Z ; std::vector<streamsdk::Timer * __ptr64,std::allocator<streamsdk::Timer * __ptr64> >::operator[]
	mov	rax, QWORD PTR [rax]
	mov	QWORD PTR [rax+64], 0
; Line 525
	movsxd	rax, DWORD PTR handle$[rsp]
	mov	rdx, rax
	mov	rcx, QWORD PTR this$[rsp]
	call	??A?$vector@PEAUTimer@streamsdk@@V?$allocator@PEAUTimer@streamsdk@@@std@@@std@@QEAAAEAPEAUTimer@streamsdk@@_K@Z ; std::vector<streamsdk::Timer * __ptr64,std::allocator<streamsdk::Timer * __ptr64> >::operator[]
	mov	rax, QWORD PTR [rax]
	mov	QWORD PTR [rax+56], 0
; Line 526
	mov	eax, 1
$LN2@resetTimer:
; Line 527
	add	rsp, 32					; 00000020H
	pop	rdi
	ret	0
?resetTimer@SDKCommon@streamsdk@@QEAAHH@Z ENDP		; streamsdk::SDKCommon::resetTimer
_TEXT	ENDS
PUBLIC	?startTimer@SDKCommon@streamsdk@@QEAAHH@Z	; streamsdk::SDKCommon::startTimer
EXTRN	__imp_QueryPerformanceCounter:PROC
pdata	SEGMENT
$pdata$?startTimer@SDKCommon@streamsdk@@QEAAHH@Z DD imagerel $LN4
	DD	imagerel $LN4+116
	DD	imagerel $unwind$?startTimer@SDKCommon@streamsdk@@QEAAHH@Z
pdata	ENDS
xdata	SEGMENT
$unwind$?startTimer@SDKCommon@streamsdk@@QEAAHH@Z DD 022201H
	DD	0700a320eH
; Function compile flags: /Odtp /RTCsu
xdata	ENDS
_TEXT	SEGMENT
this$ = 48
handle$ = 56
?startTimer@SDKCommon@streamsdk@@QEAAHH@Z PROC		; streamsdk::SDKCommon::startTimer
; Line 530
$LN4:
	mov	DWORD PTR [rsp+16], edx
	mov	QWORD PTR [rsp+8], rcx
	push	rdi
	sub	rsp, 32					; 00000020H
	mov	rdi, rsp
	mov	ecx, 8
	mov	eax, -858993460				; ccccccccH
	rep stosd
	mov	rcx, QWORD PTR [rsp+48]
; Line 531
	mov	rcx, QWORD PTR this$[rsp]
	call	?size@?$vector@PEAUTimer@streamsdk@@V?$allocator@PEAUTimer@streamsdk@@@std@@@std@@QEBA_KXZ ; std::vector<streamsdk::Timer * __ptr64,std::allocator<streamsdk::Timer * __ptr64> >::size
	cmp	DWORD PTR handle$[rsp], eax
	jl	SHORT $LN1@startTimer
; Line 533
	lea	rdx, OFFSET FLAT:$SG96045
	mov	rcx, QWORD PTR this$[rsp]
	call	?error@SDKCommon@streamsdk@@QEBAXPEBD@Z	; streamsdk::SDKCommon::error
; Line 534
	xor	eax, eax
	jmp	SHORT $LN2@startTimer
$LN1@startTimer:
; Line 538
	movsxd	rax, DWORD PTR handle$[rsp]
	mov	rdx, rax
	mov	rcx, QWORD PTR this$[rsp]
	call	??A?$vector@PEAUTimer@streamsdk@@V?$allocator@PEAUTimer@streamsdk@@@std@@@std@@QEAAAEAPEAUTimer@streamsdk@@_K@Z ; std::vector<streamsdk::Timer * __ptr64,std::allocator<streamsdk::Timer * __ptr64> >::operator[]
	mov	rax, QWORD PTR [rax]
	add	rax, 64					; 00000040H
	mov	rcx, rax
	call	QWORD PTR __imp_QueryPerformanceCounter
; Line 545
	mov	eax, 1
$LN2@startTimer:
; Line 546
	add	rsp, 32					; 00000020H
	pop	rdi
	ret	0
?startTimer@SDKCommon@streamsdk@@QEAAHH@Z ENDP		; streamsdk::SDKCommon::startTimer
_TEXT	ENDS
PUBLIC	?stopTimer@SDKCommon@streamsdk@@QEAAHH@Z	; streamsdk::SDKCommon::stopTimer
pdata	SEGMENT
$pdata$?stopTimer@SDKCommon@streamsdk@@QEAAHH@Z DD imagerel $LN4
	DD	imagerel $LN4+247
	DD	imagerel $unwind$?stopTimer@SDKCommon@streamsdk@@QEAAHH@Z
pdata	ENDS
xdata	SEGMENT
$unwind$?stopTimer@SDKCommon@streamsdk@@QEAAHH@Z DD 022201H
	DD	0700a720eH
xdata	ENDS
CONST	SEGMENT
?stopTimer@SDKCommon@streamsdk@@QEAAHH@Z$rtcName$0 DB 06eH ; streamsdk::SDKCommon::stopTimer
	DB	00H
	ORG $+6
?stopTimer@SDKCommon@streamsdk@@QEAAHH@Z$rtcVarDesc DD 028H ; streamsdk::SDKCommon::stopTimer
	DD	08H
	DQ	FLAT:?stopTimer@SDKCommon@streamsdk@@QEAAHH@Z$rtcName$0
	ORG $+48
?stopTimer@SDKCommon@streamsdk@@QEAAHH@Z$rtcFrameData DD 01H ; streamsdk::SDKCommon::stopTimer
	DD	00H
	DQ	FLAT:?stopTimer@SDKCommon@streamsdk@@QEAAHH@Z$rtcVarDesc
; Function compile flags: /Odtp /RTCsu
CONST	ENDS
_TEXT	SEGMENT
n$ = 40
tv87 = 56
this$ = 80
handle$ = 88
?stopTimer@SDKCommon@streamsdk@@QEAAHH@Z PROC		; streamsdk::SDKCommon::stopTimer
; Line 549
$LN4:
	mov	DWORD PTR [rsp+16], edx
	mov	QWORD PTR [rsp+8], rcx
	push	rdi
	sub	rsp, 64					; 00000040H
	mov	rdi, rsp
	mov	ecx, 16
	mov	eax, -858993460				; ccccccccH
	rep stosd
	mov	rcx, QWORD PTR [rsp+80]
; Line 550
	mov	QWORD PTR n$[rsp], 0
; Line 552
	mov	rcx, QWORD PTR this$[rsp]
	call	?size@?$vector@PEAUTimer@streamsdk@@V?$allocator@PEAUTimer@streamsdk@@@std@@@std@@QEBA_KXZ ; std::vector<streamsdk::Timer * __ptr64,std::allocator<streamsdk::Timer * __ptr64> >::size
	cmp	DWORD PTR handle$[rsp], eax
	jl	SHORT $LN1@stopTimer
; Line 554
	lea	rdx, OFFSET FLAT:$SG96054
	mov	rcx, QWORD PTR this$[rsp]
	call	?error@SDKCommon@streamsdk@@QEBAXPEBD@Z	; streamsdk::SDKCommon::error
; Line 555
	xor	eax, eax
	jmp	$LN2@stopTimer
$LN1@stopTimer:
; Line 559
	lea	rcx, QWORD PTR n$[rsp]
	call	QWORD PTR __imp_QueryPerformanceCounter
; Line 566
	movsxd	rax, DWORD PTR handle$[rsp]
	mov	rdx, rax
	mov	rcx, QWORD PTR this$[rsp]
	call	??A?$vector@PEAUTimer@streamsdk@@V?$allocator@PEAUTimer@streamsdk@@@std@@@std@@QEAAAEAPEAUTimer@streamsdk@@_K@Z ; std::vector<streamsdk::Timer * __ptr64,std::allocator<streamsdk::Timer * __ptr64> >::operator[]
	mov	rax, QWORD PTR [rax]
	mov	rax, QWORD PTR [rax+64]
	mov	rcx, QWORD PTR n$[rsp]
	sub	rcx, rax
	mov	rax, rcx
	mov	QWORD PTR n$[rsp], rax
; Line 567
	movsxd	rax, DWORD PTR handle$[rsp]
	mov	rdx, rax
	mov	rcx, QWORD PTR this$[rsp]
	call	??A?$vector@PEAUTimer@streamsdk@@V?$allocator@PEAUTimer@streamsdk@@@std@@@std@@QEAAAEAPEAUTimer@streamsdk@@_K@Z ; std::vector<streamsdk::Timer * __ptr64,std::allocator<streamsdk::Timer * __ptr64> >::operator[]
	mov	rax, QWORD PTR [rax]
	mov	QWORD PTR [rax+64], 0
; Line 568
	movsxd	rax, DWORD PTR handle$[rsp]
	mov	rdx, rax
	mov	rcx, QWORD PTR this$[rsp]
	call	??A?$vector@PEAUTimer@streamsdk@@V?$allocator@PEAUTimer@streamsdk@@@std@@@std@@QEAAAEAPEAUTimer@streamsdk@@_K@Z ; std::vector<streamsdk::Timer * __ptr64,std::allocator<streamsdk::Timer * __ptr64> >::operator[]
	mov	rax, QWORD PTR [rax]
	add	rax, 56					; 00000038H
	mov	QWORD PTR tv87[rsp], rax
	mov	rax, QWORD PTR tv87[rsp]
	mov	rax, QWORD PTR [rax]
	add	rax, QWORD PTR n$[rsp]
	mov	rcx, QWORD PTR tv87[rsp]
	mov	QWORD PTR [rcx], rax
; Line 570
	mov	eax, 1
$LN2@stopTimer:
; Line 571
	mov	rdi, rax
	mov	rcx, rsp
	lea	rdx, OFFSET FLAT:?stopTimer@SDKCommon@streamsdk@@QEAAHH@Z$rtcFrameData
	call	_RTC_CheckStackVars
	mov	rax, rdi
	add	rsp, 64					; 00000040H
	pop	rdi
	ret	0
?stopTimer@SDKCommon@streamsdk@@QEAAHH@Z ENDP		; streamsdk::SDKCommon::stopTimer
_TEXT	ENDS
PUBLIC	?readTimer@SDKCommon@streamsdk@@QEAANH@Z	; streamsdk::SDKCommon::readTimer
pdata	SEGMENT
$pdata$?readTimer@SDKCommon@streamsdk@@QEAANH@Z DD imagerel $LN4
	DD	imagerel $LN4+173
	DD	imagerel $unwind$?readTimer@SDKCommon@streamsdk@@QEAANH@Z
pdata	ENDS
xdata	SEGMENT
$unwind$?readTimer@SDKCommon@streamsdk@@QEAANH@Z DD 022201H
	DD	0700a720eH
; Function compile flags: /Odtp /RTCsu
xdata	ENDS
_TEXT	SEGMENT
reading$ = 48
this$ = 80
handle$ = 88
?readTimer@SDKCommon@streamsdk@@QEAANH@Z PROC		; streamsdk::SDKCommon::readTimer
; Line 574
$LN4:
	mov	DWORD PTR [rsp+16], edx
	mov	QWORD PTR [rsp+8], rcx
	push	rdi
	sub	rsp, 64					; 00000040H
	mov	rdi, rsp
	mov	ecx, 16
	mov	eax, -858993460				; ccccccccH
	rep stosd
	mov	rcx, QWORD PTR [rsp+80]
; Line 575
	mov	rcx, QWORD PTR this$[rsp]
	call	?size@?$vector@PEAUTimer@streamsdk@@V?$allocator@PEAUTimer@streamsdk@@@std@@@std@@QEBA_KXZ ; std::vector<streamsdk::Timer * __ptr64,std::allocator<streamsdk::Timer * __ptr64> >::size
	cmp	DWORD PTR handle$[rsp], eax
	jl	SHORT $LN1@readTimer
; Line 577
	lea	rdx, OFFSET FLAT:$SG96062
	mov	rcx, QWORD PTR this$[rsp]
	call	?error@SDKCommon@streamsdk@@QEBAXPEBD@Z	; streamsdk::SDKCommon::error
; Line 578
	xorpd	xmm0, xmm0
	jmp	SHORT $LN2@readTimer
$LN1@readTimer:
; Line 581
	movsxd	rax, DWORD PTR handle$[rsp]
	mov	rdx, rax
	mov	rcx, QWORD PTR this$[rsp]
	call	??A?$vector@PEAUTimer@streamsdk@@V?$allocator@PEAUTimer@streamsdk@@@std@@@std@@QEAAAEAPEAUTimer@streamsdk@@_K@Z ; std::vector<streamsdk::Timer * __ptr64,std::allocator<streamsdk::Timer * __ptr64> >::operator[]
	mov	rax, QWORD PTR [rax]
	pxor	xmm0, xmm0
	cvtsi2sd xmm0, QWORD PTR [rax+56]
	movsdx	QWORD PTR reading$[rsp], xmm0
; Line 582
	movsxd	rax, DWORD PTR handle$[rsp]
	mov	rdx, rax
	mov	rcx, QWORD PTR this$[rsp]
	call	??A?$vector@PEAUTimer@streamsdk@@V?$allocator@PEAUTimer@streamsdk@@@std@@@std@@QEAAAEAPEAUTimer@streamsdk@@_K@Z ; std::vector<streamsdk::Timer * __ptr64,std::allocator<streamsdk::Timer * __ptr64> >::operator[]
	mov	rax, QWORD PTR [rax]
	pxor	xmm0, xmm0
	cvtsi2sd xmm0, QWORD PTR [rax+48]
	movsdx	xmm1, QWORD PTR reading$[rsp]
	divsd	xmm1, xmm0
	movapd	xmm0, xmm1
	movsdx	QWORD PTR reading$[rsp], xmm0
; Line 584
	movsdx	xmm0, QWORD PTR reading$[rsp]
$LN2@readTimer:
; Line 585
	add	rsp, 64					; 00000040H
	pop	rdi
	ret	0
?readTimer@SDKCommon@streamsdk@@QEAANH@Z ENDP		; streamsdk::SDKCommon::readTimer
_TEXT	ENDS
PUBLIC	??$?6DU?$char_traits@D@std@@V?$allocator@D@1@@std@@YAAEAV?$basic_ostream@DU?$char_traits@D@std@@@0@AEAV10@AEBV?$basic_string@DU?$char_traits@D@std@@V?$allocator@D@2@@0@@Z ; std::operator<<<char,std::char_traits<char>,std::allocator<char> >
PUBLIC	??6?$basic_ostream@DU?$char_traits@D@std@@@std@@QEAAAEAV01@P6AAEAVios_base@1@AEAV21@@Z@Z ; std::basic_ostream<char,std::char_traits<char> >::operator<<
PUBLIC	?left@std@@YAAEAVios_base@1@AEAV21@@Z		; std::left
PUBLIC	??$?6DU?$char_traits@D@std@@_J@std@@YAAEAV?$basic_ostream@DU?$char_traits@D@std@@@0@AEAV10@AEBU?$_Smanip@_J@0@@Z ; std::operator<<<char,std::char_traits<char>,__int64>
PUBLIC	?find_first_of@?$basic_string@DU?$char_traits@D@std@@V?$allocator@D@2@@std@@QEBA_KAEBV12@_K@Z ; std::basic_string<char,std::char_traits<char>,std::allocator<char> >::find_first_of
PUBLIC	?find_first_not_of@?$basic_string@DU?$char_traits@D@std@@V?$allocator@D@2@@std@@QEBA_KAEBV12@_K@Z ; std::basic_string<char,std::char_traits<char>,std::allocator<char> >::find_first_not_of
PUBLIC	__$ArrayPad$
PUBLIC	?printTable@SDKCommon@streamsdk@@QEAAXPEAUTable@2@@Z ; streamsdk::SDKCommon::printTable
EXTRN	?setw@std@@YA?AU?$_Smanip@_J@1@_J@Z:PROC	; std::setw
pdata	SEGMENT
$pdata$?printTable@SDKCommon@streamsdk@@QEAAXPEAUTable@2@@Z DD imagerel $LN9
	DD	imagerel $LN9+545
	DD	imagerel $unwind$?printTable@SDKCommon@streamsdk@@QEAAXPEAUTable@2@@Z
pdata	ENDS
pdata	SEGMENT
$pdata$?dtor$0@?0??printTable@SDKCommon@streamsdk@@QEAAXPEAUTable@2@@Z@4HA DD imagerel ?dtor$0@?0??printTable@SDKCommon@streamsdk@@QEAAXPEAUTable@2@@Z@4HA
	DD	imagerel ?dtor$0@?0??printTable@SDKCommon@streamsdk@@QEAAXPEAUTable@2@@Z@4HA+35
	DD	imagerel $unwind$?dtor$0@?0??printTable@SDKCommon@streamsdk@@QEAAXPEAUTable@2@@Z@4HA
pdata	ENDS
CONST	SEGMENT
$cppxdata$?printTable@SDKCommon@streamsdk@@QEAAXPEAUTable@2@@Z DD 019930522H
	DD	01H
	DD	imagerel $stateUnwindMap$?printTable@SDKCommon@streamsdk@@QEAAXPEAUTable@2@@Z
	DD	00H
	DD	00H
	DD	03H
	DD	imagerel $ip2state$?printTable@SDKCommon@streamsdk@@QEAAXPEAUTable@2@@Z
	DD	080H
	DD	00H
	DD	01H
CONST	ENDS
xdata	SEGMENT
$stateUnwindMap$?printTable@SDKCommon@streamsdk@@QEAAXPEAUTable@2@@Z DD 0ffffffffH
	DD	imagerel ?dtor$0@?0??printTable@SDKCommon@streamsdk@@QEAAXPEAUTable@2@@Z@4HA
$unwind$?printTable@SDKCommon@streamsdk@@QEAAXPEAUTable@2@@Z DD 034719H
	DD	0140112H
	DD	0700bH
	DD	imagerel __GSHandlerCheck_EH
	DD	imagerel $cppxdata$?printTable@SDKCommon@streamsdk@@QEAAXPEAUTable@2@@Z
	DD	09aH
$unwind$?dtor$0@?0??printTable@SDKCommon@streamsdk@@QEAAXPEAUTable@2@@Z@4HA DD 031001H
	DD	0700c4210H
	DD	0500bH
$ip2state$?printTable@SDKCommon@streamsdk@@QEAAXPEAUTable@2@@Z DD imagerel ?printTable@SDKCommon@streamsdk@@QEAAXPEAUTable@2@@Z
	DD	0ffffffffH
	DD	imagerel ?printTable@SDKCommon@streamsdk@@QEAAXPEAUTable@2@@Z+299
	DD	00H
	DD	imagerel ?printTable@SDKCommon@streamsdk@@QEAAXPEAUTable@2@@Z+371
	DD	0ffffffffH
; Function compile flags: /Odtp /RTCsu
xdata	ENDS
_TEXT	SEGMENT
count$ = 32
curIndex$ = 40
nextIndex$ = 48
$T96143 = 56
$T107092 = 112
$T107096 = 128
tv154 = 136
tv153 = 144
__$ArrayPad$ = 152
this$ = 176
t$ = 184
?printTable@SDKCommon@streamsdk@@QEAAXPEAUTable@2@@Z PROC ; streamsdk::SDKCommon::printTable
; Line 588
$LN9:
	mov	QWORD PTR [rsp+16], rdx
	mov	QWORD PTR [rsp+8], rcx
	push	rdi
	sub	rsp, 160				; 000000a0H
	mov	rdi, rsp
	mov	ecx, 40					; 00000028H
	mov	eax, -858993460				; ccccccccH
	rep stosd
	mov	rcx, QWORD PTR [rsp+176]
	mov	QWORD PTR $T107096[rsp], -2
	mov	rax, QWORD PTR __security_cookie
	xor	rax, rsp
	mov	QWORD PTR __$ArrayPad$[rsp], rax
; Line 589
	cmp	QWORD PTR t$[rsp], 0
	jne	SHORT $LN5@printTable
; Line 591
	lea	rdx, OFFSET FLAT:$SG96069
	mov	rcx, QWORD PTR this$[rsp]
	call	?error@SDKCommon@streamsdk@@QEBAXPEBD@Z	; streamsdk::SDKCommon::error
; Line 592
	jmp	$LN6@printTable
$LN5@printTable:
; Line 595
	mov	DWORD PTR count$[rsp], 0
; Line 597
	mov	rax, QWORD PTR t$[rsp]
	add	rax, 16
	mov	rcx, QWORD PTR t$[rsp]
	add	rcx, 64					; 00000040H
	xor	r8d, r8d
	mov	rdx, rax
	call	?find_first_not_of@?$basic_string@DU?$char_traits@D@std@@V?$allocator@D@2@@std@@QEBA_KAEBV12@_K@Z ; std::basic_string<char,std::char_traits<char>,std::allocator<char> >::find_first_not_of
	mov	QWORD PTR curIndex$[rsp], rax
; Line 600
	mov	rax, QWORD PTR t$[rsp]
	add	rax, 16
	mov	rcx, QWORD PTR t$[rsp]
	add	rcx, 64					; 00000040H
	mov	r8, QWORD PTR curIndex$[rsp]
	mov	rdx, rax
	call	?find_first_of@?$basic_string@DU?$char_traits@D@std@@V?$allocator@D@2@@std@@QEBA_KAEBV12@_K@Z ; std::basic_string<char,std::char_traits<char>,std::allocator<char> >::find_first_of
	mov	QWORD PTR nextIndex$[rsp], rax
$LN4@printTable:
; Line 602
	mov	rax, QWORD PTR nextIndex$[rsp]
	cmp	QWORD PTR ?npos@?$basic_string@DU?$char_traits@D@std@@V?$allocator@D@2@@std@@2_KB, rax ; std::basic_string<char,std::char_traits<char>,std::allocator<char> >::npos
	jne	SHORT $LN2@printTable
	mov	rax, QWORD PTR curIndex$[rsp]
	cmp	QWORD PTR ?npos@?$basic_string@DU?$char_traits@D@std@@V?$allocator@D@2@@std@@2_KB, rax ; std::basic_string<char,std::char_traits<char>,std::allocator<char> >::npos
	je	$LN6@printTable
$LN2@printTable:
; Line 607
	mov	rax, QWORD PTR curIndex$[rsp]
	mov	rcx, QWORD PTR nextIndex$[rsp]
	sub	rcx, rax
	mov	rax, rcx
	mov	rcx, QWORD PTR t$[rsp]
	add	rcx, 64					; 00000040H
	mov	r9, rax
	mov	r8, QWORD PTR curIndex$[rsp]
	lea	rdx, QWORD PTR $T96143[rsp]
	call	?substr@?$basic_string@DU?$char_traits@D@std@@V?$allocator@D@2@@std@@QEBA?AV12@_K0@Z ; std::basic_string<char,std::char_traits<char>,std::allocator<char> >::substr
	mov	QWORD PTR tv154[rsp], rax
	mov	rax, QWORD PTR tv154[rsp]
	mov	QWORD PTR tv153[rsp], rax
	mov	rax, QWORD PTR t$[rsp]
	movsxd	rax, DWORD PTR [rax+8]
	mov	rdx, rax
	lea	rcx, QWORD PTR $T107092[rsp]
	call	?setw@std@@YA?AU?$_Smanip@_J@1@_J@Z	; std::setw
	mov	rdx, rax
	lea	rcx, OFFSET FLAT:?cout@std@@3V?$basic_ostream@DU?$char_traits@D@std@@@1@A ; std::cout
	call	??$?6DU?$char_traits@D@std@@_J@std@@YAAEAV?$basic_ostream@DU?$char_traits@D@std@@@0@AEAV10@AEBU?$_Smanip@_J@0@@Z ; std::operator<<<char,std::char_traits<char>,__int64>
	lea	rdx, OFFSET FLAT:?left@std@@YAAEAVios_base@1@AEAV21@@Z ; std::left
	mov	rcx, rax
	call	??6?$basic_ostream@DU?$char_traits@D@std@@@std@@QEAAAEAV01@P6AAEAVios_base@1@AEAV21@@Z@Z ; std::basic_ostream<char,std::char_traits<char> >::operator<<
	mov	rdx, QWORD PTR tv153[rsp]
	mov	rcx, rax
	call	??$?6DU?$char_traits@D@std@@V?$allocator@D@1@@std@@YAAEAV?$basic_ostream@DU?$char_traits@D@std@@@0@AEAV10@AEBV?$basic_string@DU?$char_traits@D@std@@V?$allocator@D@2@@0@@Z ; std::operator<<<char,std::char_traits<char>,std::allocator<char> >
	npad	1
	lea	rcx, QWORD PTR $T96143[rsp]
	call	??1?$basic_string@DU?$char_traits@D@std@@V?$allocator@D@2@@std@@QEAA@XZ ; std::basic_string<char,std::char_traits<char>,std::allocator<char> >::~basic_string<char,std::char_traits<char>,std::allocator<char> >
; Line 609
	mov	rax, QWORD PTR t$[rsp]
	add	rax, 16
	mov	rcx, QWORD PTR t$[rsp]
	add	rcx, 64					; 00000040H
	mov	r8, QWORD PTR nextIndex$[rsp]
	mov	rdx, rax
	call	?find_first_not_of@?$basic_string@DU?$char_traits@D@std@@V?$allocator@D@2@@std@@QEBA_KAEBV12@_K@Z ; std::basic_string<char,std::char_traits<char>,std::allocator<char> >::find_first_not_of
	mov	QWORD PTR curIndex$[rsp], rax
; Line 611
	mov	rax, QWORD PTR t$[rsp]
	add	rax, 16
	mov	rcx, QWORD PTR t$[rsp]
	add	rcx, 64					; 00000040H
	mov	r8, QWORD PTR curIndex$[rsp]
	mov	rdx, rax
	call	?find_first_of@?$basic_string@DU?$char_traits@D@std@@V?$allocator@D@2@@std@@QEBA_KAEBV12@_K@Z ; std::basic_string<char,std::char_traits<char>,std::allocator<char> >::find_first_of
	mov	QWORD PTR nextIndex$[rsp], rax
; Line 613
	mov	eax, DWORD PTR count$[rsp]
	inc	eax
	mov	DWORD PTR count$[rsp], eax
; Line 615
	mov	eax, DWORD PTR count$[rsp]
	cdq
	mov	rcx, QWORD PTR t$[rsp]
	idiv	DWORD PTR [rcx]
	mov	eax, edx
	test	eax, eax
	jne	SHORT $LN1@printTable
; Line 616
	lea	rdx, OFFSET FLAT:$SG96178
	lea	rcx, OFFSET FLAT:?cout@std@@3V?$basic_ostream@DU?$char_traits@D@std@@@1@A ; std::cout
	call	??$?6U?$char_traits@D@std@@@std@@YAAEAV?$basic_ostream@DU?$char_traits@D@std@@@0@AEAV10@PEBD@Z ; std::operator<<<std::char_traits<char> >
$LN1@printTable:
; Line 617
	jmp	$LN4@printTable
$LN6@printTable:
; Line 618
	mov	rcx, QWORD PTR __$ArrayPad$[rsp]
	xor	rcx, rsp
	call	__security_check_cookie
	add	rsp, 160				; 000000a0H
	pop	rdi
	ret	0
?printTable@SDKCommon@streamsdk@@QEAAXPEAUTable@2@@Z ENDP ; streamsdk::SDKCommon::printTable
; Function compile flags: /Odtp /RTCsu
_TEXT	ENDS
text$x	SEGMENT
count$ = 32
curIndex$ = 40
nextIndex$ = 48
$T96143 = 56
$T107092 = 112
$T107096 = 128
tv154 = 136
tv153 = 144
__$ArrayPad$ = 152
this$ = 176
t$ = 184
?dtor$0@?0??printTable@SDKCommon@streamsdk@@QEAAXPEAUTable@2@@Z@4HA PROC ; `streamsdk::SDKCommon::printTable'::`1'::dtor$0
	mov	QWORD PTR [rsp+8], rcx
	mov	QWORD PTR [rsp+16], rdx
	push	rbp
	push	rdi
	sub	rsp, 40					; 00000028H
	mov	rbp, rdx
	lea	rcx, QWORD PTR $T96143[rbp]
	call	??1?$basic_string@DU?$char_traits@D@std@@V?$allocator@D@2@@std@@QEAA@XZ ; std::basic_string<char,std::char_traits<char>,std::allocator<char> >::~basic_string<char,std::char_traits<char>,std::allocator<char> >
	add	rsp, 40					; 00000028H
	pop	rdi
	pop	rbp
	ret	0
?dtor$0@?0??printTable@SDKCommon@streamsdk@@QEAAXPEAUTable@2@@Z@4HA ENDP ; `streamsdk::SDKCommon::printTable'::`1'::dtor$0
text$x	ENDS
PUBLIC	?setf@ios_base@std@@QEAAHHH@Z			; std::ios_base::setf
;	COMDAT pdata
; File c:\program files (x86)\microsoft visual studio 10.0\vc\include\ios
pdata	SEGMENT
$pdata$?left@std@@YAAEAVios_base@1@AEAV21@@Z DD imagerel $LN3
	DD	imagerel $LN3+62
	DD	imagerel $unwind$?left@std@@YAAEAVios_base@1@AEAV21@@Z
pdata	ENDS
;	COMDAT xdata
xdata	SEGMENT
$unwind$?left@std@@YAAEAVios_base@1@AEAV21@@Z DD 021e01H
	DD	07006320aH
; Function compile flags: /Odtp /RTCsu
xdata	ENDS
;	COMDAT ?left@std@@YAAEAVios_base@1@AEAV21@@Z
_TEXT	SEGMENT
_Iosbase$ = 48
?left@std@@YAAEAVios_base@1@AEAV21@@Z PROC		; std::left, COMDAT
; Line 247
$LN3:
	mov	QWORD PTR [rsp+8], rcx
	push	rdi
	sub	rsp, 32					; 00000020H
	mov	rdi, rsp
	mov	ecx, 8
	mov	eax, -858993460				; ccccccccH
	rep stosd
	mov	rcx, QWORD PTR [rsp+48]
; Line 248
	mov	r8d, 448				; 000001c0H
	mov	edx, 64					; 00000040H
	mov	rcx, QWORD PTR _Iosbase$[rsp]
	call	?setf@ios_base@std@@QEAAHHH@Z		; std::ios_base::setf
; Line 249
	mov	rax, QWORD PTR _Iosbase$[rsp]
; Line 250
	add	rsp, 32					; 00000020H
	pop	rdi
	ret	0
?left@std@@YAAEAVios_base@1@AEAV21@@Z ENDP		; std::left
_TEXT	ENDS
;	COMDAT pdata
; File c:\program files (x86)\microsoft visual studio 10.0\vc\include\xiosbase
pdata	SEGMENT
$pdata$?setf@ios_base@std@@QEAAHHH@Z DD imagerel $LN3
	DD	imagerel $LN3+105
	DD	imagerel $unwind$?setf@ios_base@std@@QEAAHHH@Z
pdata	ENDS
;	COMDAT xdata
xdata	SEGMENT
$unwind$?setf@ios_base@std@@QEAAHHH@Z DD 022701H
	DD	0700f1213H
; Function compile flags: /Odtp /RTCsu
xdata	ENDS
;	COMDAT ?setf@ios_base@std@@QEAAHHH@Z
_TEXT	SEGMENT
_Oldfmtflags$ = 0
this$ = 32
_Newfmtflags$ = 40
_Mask$ = 48
?setf@ios_base@std@@QEAAHHH@Z PROC			; std::ios_base::setf, COMDAT
; Line 414
$LN3:
	mov	DWORD PTR [rsp+24], r8d
	mov	DWORD PTR [rsp+16], edx
	mov	QWORD PTR [rsp+8], rcx
	push	rdi
	sub	rsp, 16
	mov	rdi, rsp
	mov	ecx, 4
	mov	eax, -858993460				; ccccccccH
	rep stosd
	mov	rcx, QWORD PTR [rsp+32]
; Line 415
	mov	rax, QWORD PTR this$[rsp]
	mov	eax, DWORD PTR [rax+24]
	mov	DWORD PTR _Oldfmtflags$[rsp], eax
; Line 417
	mov	eax, DWORD PTR _Mask$[rsp]
	not	eax
	mov	rcx, QWORD PTR this$[rsp]
	mov	ecx, DWORD PTR [rcx+24]
	and	ecx, eax
	mov	eax, ecx
	mov	ecx, DWORD PTR _Mask$[rsp]
	mov	edx, DWORD PTR _Newfmtflags$[rsp]
	and	edx, ecx
	mov	ecx, edx
	and	ecx, 65535				; 0000ffffH
	or	eax, ecx
	mov	rcx, QWORD PTR this$[rsp]
	mov	DWORD PTR [rcx+24], eax
; Line 418
	mov	eax, DWORD PTR _Oldfmtflags$[rsp]
; Line 419
	add	rsp, 16
	pop	rdi
	ret	0
?setf@ios_base@std@@QEAAHHH@Z ENDP			; std::ios_base::setf
_TEXT	ENDS
PUBLIC	??4?$basic_string@DU?$char_traits@D@std@@V?$allocator@D@2@@std@@QEAAAEAV01@PEBD@Z ; std::basic_string<char,std::char_traits<char>,std::allocator<char> >::operator=
PUBLIC	??A?$basic_string@DU?$char_traits@D@std@@V?$allocator@D@2@@std@@QEAAAEAD_K@Z ; std::basic_string<char,std::char_traits<char>,std::allocator<char> >::operator[]
PUBLIC	?read@?$basic_istream@DU?$char_traits@D@std@@@std@@QEAAAEAV12@PEAD_J@Z ; std::basic_istream<char,std::char_traits<char> >::read
PUBLIC	??_D?$basic_fstream@DU?$char_traits@D@std@@@std@@QEAAXXZ ; std::basic_fstream<char,std::char_traits<char> >::`vbase destructor'
PUBLIC	?close@?$basic_fstream@DU?$char_traits@D@std@@@std@@QEAAXXZ ; std::basic_fstream<char,std::char_traits<char> >::close
PUBLIC	??B?$fpos@H@std@@QEBA_JXZ			; std::fpos<int>::operator __int64
PUBLIC	?tellg@?$basic_istream@DU?$char_traits@D@std@@@std@@QEAA?AV?$fpos@H@2@XZ ; std::basic_istream<char,std::char_traits<char> >::tellg
PUBLIC	?seekg@?$basic_istream@DU?$char_traits@D@std@@@std@@QEAAAEAV12@_JH@Z ; std::basic_istream<char,std::char_traits<char> >::seekg
PUBLIC	?is_open@?$basic_fstream@DU?$char_traits@D@std@@@std@@QEBA_NXZ ; std::basic_fstream<char,std::char_traits<char> >::is_open
PUBLIC	??0?$basic_fstream@DU?$char_traits@D@std@@@std@@QEAA@PEBDHH@Z ; std::basic_fstream<char,std::char_traits<char> >::basic_fstream<char,std::char_traits<char> >
PUBLIC	?c_str@?$basic_string@DU?$char_traits@D@std@@V?$allocator@D@2@@std@@QEBAPEBDXZ ; std::basic_string<char,std::char_traits<char>,std::allocator<char> >::c_str
PUBLIC	?fileToString@SDKCommon@streamsdk@@QEAA_NAEAV?$basic_string@DU?$char_traits@D@std@@V?$allocator@D@2@@std@@0@Z ; streamsdk::SDKCommon::fileToString
EXTRN	??_U@YAPEAX_K@Z:PROC				; operator new[]
pdata	SEGMENT
$pdata$?fileToString@SDKCommon@streamsdk@@QEAA_NAEAV?$basic_string@DU?$char_traits@D@std@@V?$allocator@D@2@@std@@0@Z DD imagerel $LN7
	DD	imagerel $LN7+503
	DD	imagerel $unwind$?fileToString@SDKCommon@streamsdk@@QEAA_NAEAV?$basic_string@DU?$char_traits@D@std@@V?$allocator@D@2@@std@@0@Z
pdata	ENDS
pdata	SEGMENT
$pdata$?dtor$0@?0??fileToString@SDKCommon@streamsdk@@QEAA_NAEAV?$basic_string@DU?$char_traits@D@std@@V?$allocator@D@2@@std@@0@Z@4HA DD imagerel ?dtor$0@?0??fileToString@SDKCommon@streamsdk@@QEAA_NAEAV?$basic_string@DU?$char_traits@D@std@@V?$allocator@D@2@@std@@0@Z@4HA
	DD	imagerel ?dtor$0@?0??fileToString@SDKCommon@streamsdk@@QEAA_NAEAV?$basic_string@DU?$char_traits@D@std@@V?$allocator@D@2@@std@@0@Z@4HA+35
	DD	imagerel $unwind$?dtor$0@?0??fileToString@SDKCommon@streamsdk@@QEAA_NAEAV?$basic_string@DU?$char_traits@D@std@@V?$allocator@D@2@@std@@0@Z@4HA
pdata	ENDS
xdata	SEGMENT
$stateUnwindMap$?fileToString@SDKCommon@streamsdk@@QEAA_NAEAV?$basic_string@DU?$char_traits@D@std@@V?$allocator@D@2@@std@@0@Z DD 0ffffffffH
	DD	imagerel ?dtor$0@?0??fileToString@SDKCommon@streamsdk@@QEAA_NAEAV?$basic_string@DU?$char_traits@D@std@@V?$allocator@D@2@@std@@0@Z@4HA
$unwind$?fileToString@SDKCommon@streamsdk@@QEAA_NAEAV?$basic_string@DU?$char_traits@D@std@@V?$allocator@D@2@@std@@0@Z DD 033a11H
	DD	0360117H
	DD	07010H
	DD	imagerel __CxxFrameHandler3
	DD	imagerel $cppxdata$?fileToString@SDKCommon@streamsdk@@QEAA_NAEAV?$basic_string@DU?$char_traits@D@std@@V?$allocator@D@2@@std@@0@Z
$unwind$?dtor$0@?0??fileToString@SDKCommon@streamsdk@@QEAA_NAEAV?$basic_string@DU?$char_traits@D@std@@V?$allocator@D@2@@std@@0@Z@4HA DD 031001H
	DD	0700c4210H
	DD	0500bH
$ip2state$?fileToString@SDKCommon@streamsdk@@QEAA_NAEAV?$basic_string@DU?$char_traits@D@std@@V?$allocator@D@2@@std@@0@Z DD imagerel ?fileToString@SDKCommon@streamsdk@@QEAA_NAEAV?$basic_string@DU?$char_traits@D@std@@V?$allocator@D@2@@std@@0@Z
	DD	0ffffffffH
	DD	imagerel ?fileToString@SDKCommon@streamsdk@@QEAA_NAEAV?$basic_string@DU?$char_traits@D@std@@V?$allocator@D@2@@std@@0@Z+105
	DD	00H
	DD	imagerel ?fileToString@SDKCommon@streamsdk@@QEAA_NAEAV?$basic_string@DU?$char_traits@D@std@@V?$allocator@D@2@@std@@0@Z+269
	DD	0ffffffffH
	DD	imagerel ?fileToString@SDKCommon@streamsdk@@QEAA_NAEAV?$basic_string@DU?$char_traits@D@std@@V?$allocator@D@2@@std@@0@Z+292
	DD	00H
	DD	imagerel ?fileToString@SDKCommon@streamsdk@@QEAA_NAEAV?$basic_string@DU?$char_traits@D@std@@V?$allocator@D@2@@std@@0@Z+372
	DD	0ffffffffH
	DD	imagerel ?fileToString@SDKCommon@streamsdk@@QEAA_NAEAV?$basic_string@DU?$char_traits@D@std@@V?$allocator@D@2@@std@@0@Z+394
	DD	00H
	DD	imagerel ?fileToString@SDKCommon@streamsdk@@QEAA_NAEAV?$basic_string@DU?$char_traits@D@std@@V?$allocator@D@2@@std@@0@Z+442
	DD	0ffffffffH
xdata	ENDS
CONST	SEGMENT
?fileToString@SDKCommon@streamsdk@@QEAA_NAEAV?$basic_string@DU?$char_traits@D@std@@V?$allocator@D@2@@std@@0@Z$rtcName$0 DB 066H ; streamsdk::SDKCommon::fileToString
	DB	00H
	ORG $+6
?fileToString@SDKCommon@streamsdk@@QEAA_NAEAV?$basic_string@DU?$char_traits@D@std@@V?$allocator@D@2@@std@@0@Z$rtcVarDesc DD 050H ; streamsdk::SDKCommon::fileToString
	DD	0118H
	DQ	FLAT:?fileToString@SDKCommon@streamsdk@@QEAA_NAEAV?$basic_string@DU?$char_traits@D@std@@V?$allocator@D@2@@std@@0@Z$rtcName$0
	ORG $+48
?fileToString@SDKCommon@streamsdk@@QEAA_NAEAV?$basic_string@DU?$char_traits@D@std@@V?$allocator@D@2@@std@@0@Z$rtcFrameData DD 01H ; streamsdk::SDKCommon::fileToString
	DD	00H
	DQ	FLAT:?fileToString@SDKCommon@streamsdk@@QEAA_NAEAV?$basic_string@DU?$char_traits@D@std@@V?$allocator@D@2@@std@@0@Z$rtcVarDesc
$cppxdata$?fileToString@SDKCommon@streamsdk@@QEAA_NAEAV?$basic_string@DU?$char_traits@D@std@@V?$allocator@D@2@@std@@0@Z DD 019930522H
	DD	01H
	DD	imagerel $stateUnwindMap$?fileToString@SDKCommon@streamsdk@@QEAA_NAEAV?$basic_string@DU?$char_traits@D@std@@V?$allocator@D@2@@std@@0@Z
	DD	00H
	DD	00H
	DD	07H
	DD	imagerel $ip2state$?fileToString@SDKCommon@streamsdk@@QEAA_NAEAV?$basic_string@DU?$char_traits@D@std@@V?$allocator@D@2@@std@@0@Z
	DD	01a8H
	DD	00H
	DD	01H
; Function compile flags: /Odtp /RTCsu
CONST	ENDS
_TEXT	SEGMENT
size$ = 48
buf$ = 56
f$ = 80
sizeFile$96462 = 376
$T107120 = 384
$T107121 = 408
$T107122 = 416
$T107123 = 417
$T107124 = 418
$T107128 = 424
this$ = 448
fileName$ = 456
str$ = 464
?fileToString@SDKCommon@streamsdk@@QEAA_NAEAV?$basic_string@DU?$char_traits@D@std@@V?$allocator@D@2@@std@@0@Z PROC ; streamsdk::SDKCommon::fileToString
; File c:\development\cellct\tomographic_imaging - current\sdkutil\sdkcommon.cpp
; Line 622
$LN7:
	mov	QWORD PTR [rsp+24], r8
	mov	QWORD PTR [rsp+16], rdx
	mov	QWORD PTR [rsp+8], rcx
	push	rdi
	sub	rsp, 432				; 000001b0H
	mov	rdi, rsp
	mov	ecx, 108				; 0000006cH
	mov	eax, -858993460				; ccccccccH
	rep stosd
	mov	rcx, QWORD PTR [rsp+448]
	mov	QWORD PTR $T107128[rsp], -2
; Line 627
	mov	rcx, QWORD PTR fileName$[rsp]
	call	?c_str@?$basic_string@DU?$char_traits@D@std@@V?$allocator@D@2@@std@@QEBAPEBDXZ ; std::basic_string<char,std::char_traits<char>,std::allocator<char> >::c_str
	mov	DWORD PTR [rsp+32], 1
	mov	r9d, 64					; 00000040H
	mov	r8d, 33					; 00000021H
	mov	rdx, rax
	lea	rcx, QWORD PTR f$[rsp]
	call	??0?$basic_fstream@DU?$char_traits@D@std@@@std@@QEAA@PEBDHH@Z ; std::basic_fstream<char,std::char_traits<char> >::basic_fstream<char,std::char_traits<char> >
	npad	1
; Line 630
	lea	rcx, QWORD PTR f$[rsp]
	call	?is_open@?$basic_fstream@DU?$char_traits@D@std@@@std@@QEBA_NXZ ; std::basic_fstream<char,std::char_traits<char> >::is_open
	movzx	eax, al
	test	eax, eax
	je	$LN3@fileToStri
; Line 635
	mov	r8d, 2
	xor	edx, edx
	lea	rcx, QWORD PTR f$[rsp]
	call	?seekg@?$basic_istream@DU?$char_traits@D@std@@@std@@QEAAAEAV12@_JH@Z ; std::basic_istream<char,std::char_traits<char> >::seekg
; Line 636
	lea	rdx, QWORD PTR $T107120[rsp]
	lea	rcx, QWORD PTR f$[rsp]
	call	?tellg@?$basic_istream@DU?$char_traits@D@std@@@std@@QEAA?AV?$fpos@H@2@XZ ; std::basic_istream<char,std::char_traits<char> >::tellg
	mov	rcx, rax
	call	??B?$fpos@H@std@@QEBA_JXZ		; std::fpos<int>::operator __int64
	mov	QWORD PTR sizeFile$96462[rsp], rax
	mov	rax, QWORD PTR sizeFile$96462[rsp]
	mov	QWORD PTR size$[rsp], rax
; Line 637
	xor	r8d, r8d
	xor	edx, edx
	lea	rcx, QWORD PTR f$[rsp]
	call	?seekg@?$basic_istream@DU?$char_traits@D@std@@@std@@QEAAAEAV12@_JH@Z ; std::basic_istream<char,std::char_traits<char> >::seekg
; Line 639
	mov	rax, QWORD PTR size$[rsp]
	inc	rax
	mov	rcx, rax
	call	??_U@YAPEAX_K@Z				; operator new[]
	mov	QWORD PTR $T107121[rsp], rax
	mov	rax, QWORD PTR $T107121[rsp]
	mov	QWORD PTR buf$[rsp], rax
; Line 640
	cmp	QWORD PTR buf$[rsp], 0
	jne	SHORT $LN2@fileToStri
; Line 641
	lea	rcx, QWORD PTR f$[rsp]
	call	?close@?$basic_fstream@DU?$char_traits@D@std@@@std@@QEAAXXZ ; std::basic_fstream<char,std::char_traits<char> >::close
; Line 642
	mov	BYTE PTR $T107122[rsp], 0
	lea	rcx, QWORD PTR f$[rsp]
	call	??_D?$basic_fstream@DU?$char_traits@D@std@@@std@@QEAAXXZ
	movzx	eax, BYTE PTR $T107122[rsp]
	jmp	$LN4@fileToStri
$LN2@fileToStri:
; Line 646
	mov	r8, QWORD PTR sizeFile$96462[rsp]
	mov	rdx, QWORD PTR buf$[rsp]
	lea	rcx, QWORD PTR f$[rsp]
	call	?read@?$basic_istream@DU?$char_traits@D@std@@@std@@QEAAAEAV12@PEAD_J@Z ; std::basic_istream<char,std::char_traits<char> >::read
; Line 647
	lea	rcx, QWORD PTR f$[rsp]
	call	?close@?$basic_fstream@DU?$char_traits@D@std@@@std@@QEAAXXZ ; std::basic_fstream<char,std::char_traits<char> >::close
; Line 648
	mov	rdx, QWORD PTR size$[rsp]
	mov	rcx, QWORD PTR str$[rsp]
	call	??A?$basic_string@DU?$char_traits@D@std@@V?$allocator@D@2@@std@@QEAAAEAD_K@Z ; std::basic_string<char,std::char_traits<char>,std::allocator<char> >::operator[]
	mov	BYTE PTR [rax], 0
; Line 650
	mov	rdx, QWORD PTR buf$[rsp]
	mov	rcx, QWORD PTR str$[rsp]
	call	??4?$basic_string@DU?$char_traits@D@std@@V?$allocator@D@2@@std@@QEAAAEAV01@PEBD@Z ; std::basic_string<char,std::char_traits<char>,std::allocator<char> >::operator=
; Line 652
	mov	BYTE PTR $T107123[rsp], 1
	lea	rcx, QWORD PTR f$[rsp]
	call	??_D?$basic_fstream@DU?$char_traits@D@std@@@std@@QEAAXXZ
	movzx	eax, BYTE PTR $T107123[rsp]
	jmp	SHORT $LN4@fileToStri
; Line 654
	jmp	SHORT $LN1@fileToStri
$LN3@fileToStri:
; Line 656
	lea	rdx, OFFSET FLAT:$SG96511
	mov	rcx, QWORD PTR this$[rsp]
	call	?error@SDKCommon@streamsdk@@QEBAXPEBD@Z	; streamsdk::SDKCommon::error
; Line 657
	lea	rdx, OFFSET FLAT:$SG96512
	mov	rcx, QWORD PTR str$[rsp]
	call	??4?$basic_string@DU?$char_traits@D@std@@V?$allocator@D@2@@std@@QEAAAEAV01@PEBD@Z ; std::basic_string<char,std::char_traits<char>,std::allocator<char> >::operator=
; Line 658
	mov	BYTE PTR $T107124[rsp], 0
	lea	rcx, QWORD PTR f$[rsp]
	call	??_D?$basic_fstream@DU?$char_traits@D@std@@@std@@QEAAXXZ
	movzx	eax, BYTE PTR $T107124[rsp]
	jmp	SHORT $LN4@fileToStri
$LN1@fileToStri:
; Line 660
	lea	rcx, QWORD PTR f$[rsp]
	call	??_D?$basic_fstream@DU?$char_traits@D@std@@@std@@QEAAXXZ
	npad	1
$LN4@fileToStri:
	mov	rdi, rax
	mov	rcx, rsp
	lea	rdx, OFFSET FLAT:?fileToString@SDKCommon@streamsdk@@QEAA_NAEAV?$basic_string@DU?$char_traits@D@std@@V?$allocator@D@2@@std@@0@Z$rtcFrameData
	call	_RTC_CheckStackVars
	mov	rax, rdi
	add	rsp, 432				; 000001b0H
	pop	rdi
	ret	0
?fileToString@SDKCommon@streamsdk@@QEAA_NAEAV?$basic_string@DU?$char_traits@D@std@@V?$allocator@D@2@@std@@0@Z ENDP ; streamsdk::SDKCommon::fileToString
; Function compile flags: /Odtp /RTCsu
_TEXT	ENDS
text$x	SEGMENT
size$ = 48
buf$ = 56
f$ = 80
sizeFile$96462 = 376
$T107120 = 384
$T107121 = 408
$T107122 = 416
$T107123 = 417
$T107124 = 418
$T107128 = 424
this$ = 448
fileName$ = 456
str$ = 464
?dtor$0@?0??fileToString@SDKCommon@streamsdk@@QEAA_NAEAV?$basic_string@DU?$char_traits@D@std@@V?$allocator@D@2@@std@@0@Z@4HA PROC ; `streamsdk::SDKCommon::fileToString'::`1'::dtor$0
	mov	QWORD PTR [rsp+8], rcx
	mov	QWORD PTR [rsp+16], rdx
	push	rbp
	push	rdi
	sub	rsp, 40					; 00000028H
	mov	rbp, rdx
	lea	rcx, QWORD PTR f$[rbp]
	call	??_D?$basic_fstream@DU?$char_traits@D@std@@@std@@QEAAXXZ
	add	rsp, 40					; 00000028H
	pop	rdi
	pop	rbp
	ret	0
?dtor$0@?0??fileToString@SDKCommon@streamsdk@@QEAA_NAEAV?$basic_string@DU?$char_traits@D@std@@V?$allocator@D@2@@std@@0@Z@4HA ENDP ; `streamsdk::SDKCommon::fileToString'::`1'::dtor$0
text$x	ENDS
PUBLIC	??1?$basic_ios@DU?$char_traits@D@std@@@std@@UEAA@XZ ; std::basic_ios<char,std::char_traits<char> >::~basic_ios<char,std::char_traits<char> >
PUBLIC	??1?$basic_fstream@DU?$char_traits@D@std@@@std@@UEAA@XZ ; std::basic_fstream<char,std::char_traits<char> >::~basic_fstream<char,std::char_traits<char> >
;	COMDAT pdata
pdata	SEGMENT
$pdata$??_D?$basic_fstream@DU?$char_traits@D@std@@@std@@QEAAXXZ DD imagerel $LN3
	DD	imagerel $LN3+74
	DD	imagerel $unwind$??_D?$basic_fstream@DU?$char_traits@D@std@@@std@@QEAAXXZ
pdata	ENDS
;	COMDAT xdata
xdata	SEGMENT
$unwind$??_D?$basic_fstream@DU?$char_traits@D@std@@@std@@QEAAXXZ DD 021e01H
	DD	07006320aH
; Function compile flags: /Odtp /RTCsu
xdata	ENDS
;	COMDAT ??_D?$basic_fstream@DU?$char_traits@D@std@@@std@@QEAAXXZ
_TEXT	SEGMENT
this$ = 48
??_D?$basic_fstream@DU?$char_traits@D@std@@@std@@QEAAXXZ PROC ; std::basic_fstream<char,std::char_traits<char> >::`vbase destructor', COMDAT
$LN3:
	mov	QWORD PTR [rsp+8], rcx
	push	rdi
	sub	rsp, 32					; 00000020H
	mov	rdi, rsp
	mov	ecx, 8
	mov	eax, -858993460				; ccccccccH
	rep stosd
	mov	rcx, QWORD PTR [rsp+48]
	mov	rax, QWORD PTR this$[rsp]
	add	rax, 184				; 000000b8H
	mov	rcx, rax
	call	??1?$basic_fstream@DU?$char_traits@D@std@@@std@@UEAA@XZ ; std::basic_fstream<char,std::char_traits<char> >::~basic_fstream<char,std::char_traits<char> >
	mov	rax, QWORD PTR this$[rsp]
	add	rax, 184				; 000000b8H
	mov	rcx, rax
	call	??1?$basic_ios@DU?$char_traits@D@std@@@std@@UEAA@XZ ; std::basic_ios<char,std::char_traits<char> >::~basic_ios<char,std::char_traits<char> >
	add	rsp, 32					; 00000020H
	pop	rdi
	ret	0
??_D?$basic_fstream@DU?$char_traits@D@std@@@std@@QEAAXXZ ENDP ; std::basic_fstream<char,std::char_traits<char> >::`vbase destructor'
_TEXT	ENDS
pdata	SEGMENT
$pdata$?error@SDKCommon@streamsdk@@QEBAXPEBD@Z DD imagerel $LN3
	DD	imagerel $LN3+88
	DD	imagerel $unwind$?error@SDKCommon@streamsdk@@QEBAXPEBD@Z
pdata	ENDS
xdata	SEGMENT
$unwind$?error@SDKCommon@streamsdk@@QEBAXPEBD@Z DD 022301H
	DD	0700b320fH
; Function compile flags: /Odtp /RTCsu
xdata	ENDS
_TEXT	SEGMENT
this$ = 48
errorMsg$ = 56
?error@SDKCommon@streamsdk@@QEBAXPEBD@Z PROC		; streamsdk::SDKCommon::error
; Line 664
$LN3:
	mov	QWORD PTR [rsp+16], rdx
	mov	QWORD PTR [rsp+8], rcx
	push	rdi
	sub	rsp, 32					; 00000020H
	mov	rdi, rsp
	mov	ecx, 8
	mov	eax, -858993460				; ccccccccH
	rep stosd
	mov	rcx, QWORD PTR [rsp+48]
; Line 665
	lea	rdx, OFFSET FLAT:$SG96521
	lea	rcx, OFFSET FLAT:?cout@std@@3V?$basic_ostream@DU?$char_traits@D@std@@@1@A ; std::cout
	call	??$?6U?$char_traits@D@std@@@std@@YAAEAV?$basic_ostream@DU?$char_traits@D@std@@@0@AEAV10@PEBD@Z ; std::operator<<<std::char_traits<char> >
	mov	rdx, QWORD PTR errorMsg$[rsp]
	mov	rcx, rax
	call	??$?6U?$char_traits@D@std@@@std@@YAAEAV?$basic_ostream@DU?$char_traits@D@std@@@0@AEAV10@PEBD@Z ; std::operator<<<std::char_traits<char> >
	lea	rdx, OFFSET FLAT:$SG96520
	mov	rcx, rax
	call	??$?6U?$char_traits@D@std@@@std@@YAAEAV?$basic_ostream@DU?$char_traits@D@std@@@0@AEAV10@PEBD@Z ; std::operator<<<std::char_traits<char> >
; Line 666
	add	rsp, 32					; 00000020H
	pop	rdi
	ret	0
?error@SDKCommon@streamsdk@@QEBAXPEBD@Z ENDP		; streamsdk::SDKCommon::error
_TEXT	ENDS
PUBLIC	?error@SDKCommon@streamsdk@@QEBAXV?$basic_string@DU?$char_traits@D@std@@V?$allocator@D@2@@std@@@Z ; streamsdk::SDKCommon::error
pdata	SEGMENT
$pdata$?error@SDKCommon@streamsdk@@QEBAXV?$basic_string@DU?$char_traits@D@std@@V?$allocator@D@2@@std@@@Z DD imagerel $LN4
	DD	imagerel $LN4+123
	DD	imagerel $unwind$?error@SDKCommon@streamsdk@@QEBAXV?$basic_string@DU?$char_traits@D@std@@V?$allocator@D@2@@std@@@Z
pdata	ENDS
pdata	SEGMENT
$pdata$?dtor$0@?0??error@SDKCommon@streamsdk@@QEBAXV?$basic_string@DU?$char_traits@D@std@@V?$allocator@D@2@@std@@@Z@4HA DD imagerel ?dtor$0@?0??error@SDKCommon@streamsdk@@QEBAXV?$basic_string@DU?$char_traits@D@std@@V?$allocator@D@2@@std@@@Z@4HA
	DD	imagerel ?dtor$0@?0??error@SDKCommon@streamsdk@@QEBAXV?$basic_string@DU?$char_traits@D@std@@V?$allocator@D@2@@std@@@Z@4HA+35
	DD	imagerel $unwind$?dtor$0@?0??error@SDKCommon@streamsdk@@QEBAXV?$basic_string@DU?$char_traits@D@std@@V?$allocator@D@2@@std@@@Z@4HA
pdata	ENDS
xdata	SEGMENT
$stateUnwindMap$?error@SDKCommon@streamsdk@@QEBAXV?$basic_string@DU?$char_traits@D@std@@V?$allocator@D@2@@std@@@Z DD 0ffffffffH
	DD	imagerel ?dtor$0@?0??error@SDKCommon@streamsdk@@QEBAXV?$basic_string@DU?$char_traits@D@std@@V?$allocator@D@2@@std@@@Z@4HA
$unwind$?error@SDKCommon@streamsdk@@QEBAXV?$basic_string@DU?$char_traits@D@std@@V?$allocator@D@2@@std@@@Z DD 022c11H
	DD	0700b720fH
	DD	imagerel __CxxFrameHandler3
	DD	imagerel $cppxdata$?error@SDKCommon@streamsdk@@QEBAXV?$basic_string@DU?$char_traits@D@std@@V?$allocator@D@2@@std@@@Z
$unwind$?dtor$0@?0??error@SDKCommon@streamsdk@@QEBAXV?$basic_string@DU?$char_traits@D@std@@V?$allocator@D@2@@std@@@Z@4HA DD 031001H
	DD	0700c4210H
	DD	0500bH
$ip2state$?error@SDKCommon@streamsdk@@QEBAXV?$basic_string@DU?$char_traits@D@std@@V?$allocator@D@2@@std@@@Z DD imagerel ?error@SDKCommon@streamsdk@@QEBAXV?$basic_string@DU?$char_traits@D@std@@V?$allocator@D@2@@std@@@Z
	DD	0ffffffffH
	DD	imagerel ?error@SDKCommon@streamsdk@@QEBAXV?$basic_string@DU?$char_traits@D@std@@V?$allocator@D@2@@std@@@Z+44
	DD	00H
	DD	imagerel ?error@SDKCommon@streamsdk@@QEBAXV?$basic_string@DU?$char_traits@D@std@@V?$allocator@D@2@@std@@@Z+92
	DD	0ffffffffH
xdata	ENDS
CONST	SEGMENT
?error@SDKCommon@streamsdk@@QEBAXV?$basic_string@DU?$char_traits@D@std@@V?$allocator@D@2@@std@@@Z$rtcName$0 DB 05fH ; streamsdk::SDKCommon::error
	DB	05fH
	DB	024H
	DB	041H
	DB	072H
	DB	072H
	DB	061H
	DB	079H
	DB	050H
	DB	061H
	DB	064H
	DB	00H
	ORG $+12
?error@SDKCommon@streamsdk@@QEBAXV?$basic_string@DU?$char_traits@D@std@@V?$allocator@D@2@@std@@@Z$rtcVarDesc DD 028H ; streamsdk::SDKCommon::error
	DD	08H
	DQ	FLAT:?error@SDKCommon@streamsdk@@QEBAXV?$basic_string@DU?$char_traits@D@std@@V?$allocator@D@2@@std@@@Z$rtcName$0
	ORG $+48
?error@SDKCommon@streamsdk@@QEBAXV?$basic_string@DU?$char_traits@D@std@@V?$allocator@D@2@@std@@@Z$rtcFrameData DD 01H ; streamsdk::SDKCommon::error
	DD	00H
	DQ	FLAT:?error@SDKCommon@streamsdk@@QEBAXV?$basic_string@DU?$char_traits@D@std@@V?$allocator@D@2@@std@@@Z$rtcVarDesc
$cppxdata$?error@SDKCommon@streamsdk@@QEBAXV?$basic_string@DU?$char_traits@D@std@@V?$allocator@D@2@@std@@@Z DD 019930522H
	DD	01H
	DD	imagerel $stateUnwindMap$?error@SDKCommon@streamsdk@@QEBAXV?$basic_string@DU?$char_traits@D@std@@V?$allocator@D@2@@std@@@Z
	DD	00H
	DD	00H
	DD	03H
	DD	imagerel $ip2state$?error@SDKCommon@streamsdk@@QEBAXV?$basic_string@DU?$char_traits@D@std@@V?$allocator@D@2@@std@@@Z
	DD	038H
	DD	00H
	DD	01H
; Function compile flags: /Odtp /RTCsu
CONST	ENDS
_TEXT	SEGMENT
$T107156 = 56
this$ = 80
errorMsg$ = 88
?error@SDKCommon@streamsdk@@QEBAXV?$basic_string@DU?$char_traits@D@std@@V?$allocator@D@2@@std@@@Z PROC ; streamsdk::SDKCommon::error
; Line 670
$LN4:
	mov	QWORD PTR [rsp+16], rdx
	mov	QWORD PTR [rsp+8], rcx
	push	rdi
	sub	rsp, 64					; 00000040H
	mov	rdi, rsp
	mov	ecx, 16
	mov	eax, -858993460				; ccccccccH
	rep stosd
	mov	rcx, QWORD PTR [rsp+80]
	mov	QWORD PTR $T107156[rsp], -2
; Line 671
	lea	rdx, OFFSET FLAT:$SG96527
	lea	rcx, OFFSET FLAT:?cout@std@@3V?$basic_ostream@DU?$char_traits@D@std@@@1@A ; std::cout
	call	??$?6U?$char_traits@D@std@@@std@@YAAEAV?$basic_ostream@DU?$char_traits@D@std@@@0@AEAV10@PEBD@Z ; std::operator<<<std::char_traits<char> >
	mov	rdx, QWORD PTR errorMsg$[rsp]
	mov	rcx, rax
	call	??$?6DU?$char_traits@D@std@@V?$allocator@D@1@@std@@YAAEAV?$basic_ostream@DU?$char_traits@D@std@@@0@AEAV10@AEBV?$basic_string@DU?$char_traits@D@std@@V?$allocator@D@2@@0@@Z ; std::operator<<<char,std::char_traits<char>,std::allocator<char> >
	lea	rdx, OFFSET FLAT:$SG96526
	mov	rcx, rax
	call	??$?6U?$char_traits@D@std@@@std@@YAAEAV?$basic_ostream@DU?$char_traits@D@std@@@0@AEAV10@PEBD@Z ; std::operator<<<std::char_traits<char> >
	npad	1
; Line 672
	mov	rcx, QWORD PTR errorMsg$[rsp]
	call	??1?$basic_string@DU?$char_traits@D@std@@V?$allocator@D@2@@std@@QEAA@XZ ; std::basic_string<char,std::char_traits<char>,std::allocator<char> >::~basic_string<char,std::char_traits<char>,std::allocator<char> >
	mov	rcx, rsp
	lea	rdx, OFFSET FLAT:?error@SDKCommon@streamsdk@@QEBAXV?$basic_string@DU?$char_traits@D@std@@V?$allocator@D@2@@std@@@Z$rtcFrameData
	call	_RTC_CheckStackVars
	add	rsp, 64					; 00000040H
	pop	rdi
	ret	0
?error@SDKCommon@streamsdk@@QEBAXV?$basic_string@DU?$char_traits@D@std@@V?$allocator@D@2@@std@@@Z ENDP ; streamsdk::SDKCommon::error
; Function compile flags: /Odtp /RTCsu
_TEXT	ENDS
text$x	SEGMENT
$T107156 = 56
this$ = 80
errorMsg$ = 88
?dtor$0@?0??error@SDKCommon@streamsdk@@QEBAXV?$basic_string@DU?$char_traits@D@std@@V?$allocator@D@2@@std@@@Z@4HA PROC ; `streamsdk::SDKCommon::error'::`1'::dtor$0
	mov	QWORD PTR [rsp+8], rcx
	mov	QWORD PTR [rsp+16], rdx
	push	rbp
	push	rdi
	sub	rsp, 40					; 00000028H
	mov	rbp, rdx
	mov	rcx, QWORD PTR errorMsg$[rbp]
	call	??1?$basic_string@DU?$char_traits@D@std@@V?$allocator@D@2@@std@@QEAA@XZ ; std::basic_string<char,std::char_traits<char>,std::allocator<char> >::~basic_string<char,std::char_traits<char>,std::allocator<char> >
	add	rsp, 40					; 00000028H
	pop	rdi
	pop	rbp
	ret	0
?dtor$0@?0??error@SDKCommon@streamsdk@@QEBAXV?$basic_string@DU?$char_traits@D@std@@V?$allocator@D@2@@std@@@Z@4HA ENDP ; `streamsdk::SDKCommon::error'::`1'::dtor$0
text$x	ENDS
PUBLIC	?expectedError@SDKCommon@streamsdk@@QEBAXPEBD@Z	; streamsdk::SDKCommon::expectedError
pdata	SEGMENT
$pdata$?expectedError@SDKCommon@streamsdk@@QEBAXPEBD@Z DD imagerel $LN3
	DD	imagerel $LN3+88
	DD	imagerel $unwind$?expectedError@SDKCommon@streamsdk@@QEBAXPEBD@Z
pdata	ENDS
xdata	SEGMENT
$unwind$?expectedError@SDKCommon@streamsdk@@QEBAXPEBD@Z DD 022301H
	DD	0700b320fH
; Function compile flags: /Odtp /RTCsu
xdata	ENDS
_TEXT	SEGMENT
this$ = 48
errorMsg$ = 56
?expectedError@SDKCommon@streamsdk@@QEBAXPEBD@Z PROC	; streamsdk::SDKCommon::expectedError
; Line 676
$LN3:
	mov	QWORD PTR [rsp+16], rdx
	mov	QWORD PTR [rsp+8], rcx
	push	rdi
	sub	rsp, 32					; 00000020H
	mov	rdi, rsp
	mov	ecx, 8
	mov	eax, -858993460				; ccccccccH
	rep stosd
	mov	rcx, QWORD PTR [rsp+48]
; Line 677
	lea	rdx, OFFSET FLAT:$SG96533
	lea	rcx, OFFSET FLAT:?cout@std@@3V?$basic_ostream@DU?$char_traits@D@std@@@1@A ; std::cout
	call	??$?6U?$char_traits@D@std@@@std@@YAAEAV?$basic_ostream@DU?$char_traits@D@std@@@0@AEAV10@PEBD@Z ; std::operator<<<std::char_traits<char> >
	mov	rdx, QWORD PTR errorMsg$[rsp]
	mov	rcx, rax
	call	??$?6U?$char_traits@D@std@@@std@@YAAEAV?$basic_ostream@DU?$char_traits@D@std@@@0@AEAV10@PEBD@Z ; std::operator<<<std::char_traits<char> >
	lea	rdx, OFFSET FLAT:$SG96532
	mov	rcx, rax
	call	??$?6U?$char_traits@D@std@@@std@@YAAEAV?$basic_ostream@DU?$char_traits@D@std@@@0@AEAV10@PEBD@Z ; std::operator<<<std::char_traits<char> >
; Line 678
	add	rsp, 32					; 00000020H
	pop	rdi
	ret	0
?expectedError@SDKCommon@streamsdk@@QEBAXPEBD@Z ENDP	; streamsdk::SDKCommon::expectedError
_TEXT	ENDS
PUBLIC	?expectedError@SDKCommon@streamsdk@@QEBAXV?$basic_string@DU?$char_traits@D@std@@V?$allocator@D@2@@std@@@Z ; streamsdk::SDKCommon::expectedError
pdata	SEGMENT
$pdata$?expectedError@SDKCommon@streamsdk@@QEBAXV?$basic_string@DU?$char_traits@D@std@@V?$allocator@D@2@@std@@@Z DD imagerel $LN4
	DD	imagerel $LN4+123
	DD	imagerel $unwind$?expectedError@SDKCommon@streamsdk@@QEBAXV?$basic_string@DU?$char_traits@D@std@@V?$allocator@D@2@@std@@@Z
pdata	ENDS
pdata	SEGMENT
$pdata$?dtor$0@?0??expectedError@SDKCommon@streamsdk@@QEBAXV?$basic_string@DU?$char_traits@D@std@@V?$allocator@D@2@@std@@@Z@4HA DD imagerel ?dtor$0@?0??expectedError@SDKCommon@streamsdk@@QEBAXV?$basic_string@DU?$char_traits@D@std@@V?$allocator@D@2@@std@@@Z@4HA
	DD	imagerel ?dtor$0@?0??expectedError@SDKCommon@streamsdk@@QEBAXV?$basic_string@DU?$char_traits@D@std@@V?$allocator@D@2@@std@@@Z@4HA+35
	DD	imagerel $unwind$?dtor$0@?0??expectedError@SDKCommon@streamsdk@@QEBAXV?$basic_string@DU?$char_traits@D@std@@V?$allocator@D@2@@std@@@Z@4HA
pdata	ENDS
xdata	SEGMENT
$stateUnwindMap$?expectedError@SDKCommon@streamsdk@@QEBAXV?$basic_string@DU?$char_traits@D@std@@V?$allocator@D@2@@std@@@Z DD 0ffffffffH
	DD	imagerel ?dtor$0@?0??expectedError@SDKCommon@streamsdk@@QEBAXV?$basic_string@DU?$char_traits@D@std@@V?$allocator@D@2@@std@@@Z@4HA
$unwind$?expectedError@SDKCommon@streamsdk@@QEBAXV?$basic_string@DU?$char_traits@D@std@@V?$allocator@D@2@@std@@@Z DD 022c11H
	DD	0700b720fH
	DD	imagerel __CxxFrameHandler3
	DD	imagerel $cppxdata$?expectedError@SDKCommon@streamsdk@@QEBAXV?$basic_string@DU?$char_traits@D@std@@V?$allocator@D@2@@std@@@Z
$unwind$?dtor$0@?0??expectedError@SDKCommon@streamsdk@@QEBAXV?$basic_string@DU?$char_traits@D@std@@V?$allocator@D@2@@std@@@Z@4HA DD 031001H
	DD	0700c4210H
	DD	0500bH
$ip2state$?expectedError@SDKCommon@streamsdk@@QEBAXV?$basic_string@DU?$char_traits@D@std@@V?$allocator@D@2@@std@@@Z DD imagerel ?expectedError@SDKCommon@streamsdk@@QEBAXV?$basic_string@DU?$char_traits@D@std@@V?$allocator@D@2@@std@@@Z
	DD	0ffffffffH
	DD	imagerel ?expectedError@SDKCommon@streamsdk@@QEBAXV?$basic_string@DU?$char_traits@D@std@@V?$allocator@D@2@@std@@@Z+44
	DD	00H
	DD	imagerel ?expectedError@SDKCommon@streamsdk@@QEBAXV?$basic_string@DU?$char_traits@D@std@@V?$allocator@D@2@@std@@@Z+92
	DD	0ffffffffH
xdata	ENDS
CONST	SEGMENT
?expectedError@SDKCommon@streamsdk@@QEBAXV?$basic_string@DU?$char_traits@D@std@@V?$allocator@D@2@@std@@@Z$rtcName$0 DB 05fH ; streamsdk::SDKCommon::expectedError
	DB	05fH
	DB	024H
	DB	041H
	DB	072H
	DB	072H
	DB	061H
	DB	079H
	DB	050H
	DB	061H
	DB	064H
	DB	00H
	ORG $+12
?expectedError@SDKCommon@streamsdk@@QEBAXV?$basic_string@DU?$char_traits@D@std@@V?$allocator@D@2@@std@@@Z$rtcVarDesc DD 028H ; streamsdk::SDKCommon::expectedError
	DD	08H
	DQ	FLAT:?expectedError@SDKCommon@streamsdk@@QEBAXV?$basic_string@DU?$char_traits@D@std@@V?$allocator@D@2@@std@@@Z$rtcName$0
	ORG $+48
?expectedError@SDKCommon@streamsdk@@QEBAXV?$basic_string@DU?$char_traits@D@std@@V?$allocator@D@2@@std@@@Z$rtcFrameData DD 01H ; streamsdk::SDKCommon::expectedError
	DD	00H
	DQ	FLAT:?expectedError@SDKCommon@streamsdk@@QEBAXV?$basic_string@DU?$char_traits@D@std@@V?$allocator@D@2@@std@@@Z$rtcVarDesc
$cppxdata$?expectedError@SDKCommon@streamsdk@@QEBAXV?$basic_string@DU?$char_traits@D@std@@V?$allocator@D@2@@std@@@Z DD 019930522H
	DD	01H
	DD	imagerel $stateUnwindMap$?expectedError@SDKCommon@streamsdk@@QEBAXV?$basic_string@DU?$char_traits@D@std@@V?$allocator@D@2@@std@@@Z
	DD	00H
	DD	00H
	DD	03H
	DD	imagerel $ip2state$?expectedError@SDKCommon@streamsdk@@QEBAXV?$basic_string@DU?$char_traits@D@std@@V?$allocator@D@2@@std@@@Z
	DD	038H
	DD	00H
	DD	01H
; Function compile flags: /Odtp /RTCsu
CONST	ENDS
_TEXT	SEGMENT
$T107177 = 56
this$ = 80
errorMsg$ = 88
?expectedError@SDKCommon@streamsdk@@QEBAXV?$basic_string@DU?$char_traits@D@std@@V?$allocator@D@2@@std@@@Z PROC ; streamsdk::SDKCommon::expectedError
; Line 682
$LN4:
	mov	QWORD PTR [rsp+16], rdx
	mov	QWORD PTR [rsp+8], rcx
	push	rdi
	sub	rsp, 64					; 00000040H
	mov	rdi, rsp
	mov	ecx, 16
	mov	eax, -858993460				; ccccccccH
	rep stosd
	mov	rcx, QWORD PTR [rsp+80]
	mov	QWORD PTR $T107177[rsp], -2
; Line 683
	lea	rdx, OFFSET FLAT:$SG96539
	lea	rcx, OFFSET FLAT:?cout@std@@3V?$basic_ostream@DU?$char_traits@D@std@@@1@A ; std::cout
	call	??$?6U?$char_traits@D@std@@@std@@YAAEAV?$basic_ostream@DU?$char_traits@D@std@@@0@AEAV10@PEBD@Z ; std::operator<<<std::char_traits<char> >
	mov	rdx, QWORD PTR errorMsg$[rsp]
	mov	rcx, rax
	call	??$?6DU?$char_traits@D@std@@V?$allocator@D@1@@std@@YAAEAV?$basic_ostream@DU?$char_traits@D@std@@@0@AEAV10@AEBV?$basic_string@DU?$char_traits@D@std@@V?$allocator@D@2@@0@@Z ; std::operator<<<char,std::char_traits<char>,std::allocator<char> >
	lea	rdx, OFFSET FLAT:$SG96538
	mov	rcx, rax
	call	??$?6U?$char_traits@D@std@@@std@@YAAEAV?$basic_ostream@DU?$char_traits@D@std@@@0@AEAV10@PEBD@Z ; std::operator<<<std::char_traits<char> >
	npad	1
; Line 684
	mov	rcx, QWORD PTR errorMsg$[rsp]
	call	??1?$basic_string@DU?$char_traits@D@std@@V?$allocator@D@2@@std@@QEAA@XZ ; std::basic_string<char,std::char_traits<char>,std::allocator<char> >::~basic_string<char,std::char_traits<char>,std::allocator<char> >
	mov	rcx, rsp
	lea	rdx, OFFSET FLAT:?expectedError@SDKCommon@streamsdk@@QEBAXV?$basic_string@DU?$char_traits@D@std@@V?$allocator@D@2@@std@@@Z$rtcFrameData
	call	_RTC_CheckStackVars
	add	rsp, 64					; 00000040H
	pop	rdi
	ret	0
?expectedError@SDKCommon@streamsdk@@QEBAXV?$basic_string@DU?$char_traits@D@std@@V?$allocator@D@2@@std@@@Z ENDP ; streamsdk::SDKCommon::expectedError
; Function compile flags: /Odtp /RTCsu
_TEXT	ENDS
text$x	SEGMENT
$T107177 = 56
this$ = 80
errorMsg$ = 88
?dtor$0@?0??expectedError@SDKCommon@streamsdk@@QEBAXV?$basic_string@DU?$char_traits@D@std@@V?$allocator@D@2@@std@@@Z@4HA PROC ; `streamsdk::SDKCommon::expectedError'::`1'::dtor$0
	mov	QWORD PTR [rsp+8], rcx
	mov	QWORD PTR [rsp+16], rdx
	push	rbp
	push	rdi
	sub	rsp, 40					; 00000028H
	mov	rbp, rdx
	mov	rcx, QWORD PTR errorMsg$[rbp]
	call	??1?$basic_string@DU?$char_traits@D@std@@V?$allocator@D@2@@std@@QEAA@XZ ; std::basic_string<char,std::char_traits<char>,std::allocator<char> >::~basic_string<char,std::char_traits<char>,std::allocator<char> >
	add	rsp, 40					; 00000028H
	pop	rdi
	pop	rbp
	ret	0
?dtor$0@?0??expectedError@SDKCommon@streamsdk@@QEBAXV?$basic_string@DU?$char_traits@D@std@@V?$allocator@D@2@@std@@@Z@4HA ENDP ; `streamsdk::SDKCommon::expectedError'::`1'::dtor$0
text$x	ENDS
PUBLIC	??1?$_String_val@DV?$allocator@D@std@@@std@@QEAA@XZ ; std::_String_val<char,std::allocator<char> >::~_String_val<char,std::allocator<char> >
PUBLIC	?assign@?$basic_string@DU?$char_traits@D@std@@V?$allocator@D@2@@std@@QEAAAEAV12@AEBV12@_K1@Z ; std::basic_string<char,std::char_traits<char>,std::allocator<char> >::assign
PUBLIC	?_Tidy@?$basic_string@DU?$char_traits@D@std@@V?$allocator@D@2@@std@@QEAAX_N_K@Z ; std::basic_string<char,std::char_traits<char>,std::allocator<char> >::_Tidy
PUBLIC	??0?$_String_val@DV?$allocator@D@std@@@std@@QEAA@V?$allocator@D@1@@Z ; std::_String_val<char,std::allocator<char> >::_String_val<char,std::allocator<char> >
;	COMDAT pdata
; File c:\program files (x86)\microsoft visual studio 10.0\vc\include\xstring
pdata	SEGMENT
$pdata$??0?$basic_string@DU?$char_traits@D@std@@V?$allocator@D@2@@std@@QEAA@AEBV01@@Z DD imagerel $LN4
	DD	imagerel $LN4+142
	DD	imagerel $unwind$??0?$basic_string@DU?$char_traits@D@std@@V?$allocator@D@2@@std@@QEAA@AEBV01@@Z
pdata	ENDS
;	COMDAT pdata
pdata	SEGMENT
$pdata$?dtor$0@?0???0?$basic_string@DU?$char_traits@D@std@@V?$allocator@D@2@@std@@QEAA@AEBV01@@Z@4HA DD imagerel ?dtor$0@?0???0?$basic_string@DU?$char_traits@D@std@@V?$allocator@D@2@@std@@QEAA@AEBV01@@Z@4HA
	DD	imagerel ?dtor$0@?0???0?$basic_string@DU?$char_traits@D@std@@V?$allocator@D@2@@std@@QEAA@AEBV01@@Z@4HA+35
	DD	imagerel $unwind$?dtor$0@?0???0?$basic_string@DU?$char_traits@D@std@@V?$allocator@D@2@@std@@QEAA@AEBV01@@Z@4HA
pdata	ENDS
;	COMDAT xdata
xdata	SEGMENT
$ip2state$??0?$basic_string@DU?$char_traits@D@std@@V?$allocator@D@2@@std@@QEAA@AEBV01@@Z DD imagerel ??0?$basic_string@DU?$char_traits@D@std@@V?$allocator@D@2@@std@@QEAA@AEBV01@@Z
	DD	0ffffffffH
	DD	imagerel ??0?$basic_string@DU?$char_traits@D@std@@V?$allocator@D@2@@std@@QEAA@AEBV01@@Z+90
	DD	00H
	DD	imagerel ??0?$basic_string@DU?$char_traits@D@std@@V?$allocator@D@2@@std@@QEAA@AEBV01@@Z+131
	DD	0ffffffffH
xdata	ENDS
;	COMDAT xdata
xdata	SEGMENT
$unwind$?dtor$0@?0???0?$basic_string@DU?$char_traits@D@std@@V?$allocator@D@2@@std@@QEAA@AEBV01@@Z@4HA DD 031001H
	DD	0700c4210H
	DD	0500bH
xdata	ENDS
;	COMDAT xdata
xdata	SEGMENT
$unwind$??0?$basic_string@DU?$char_traits@D@std@@V?$allocator@D@2@@std@@QEAA@AEBV01@@Z DD 022c11H
	DD	0700b720fH
	DD	imagerel __CxxFrameHandler3
	DD	imagerel $cppxdata$??0?$basic_string@DU?$char_traits@D@std@@V?$allocator@D@2@@std@@QEAA@AEBV01@@Z
xdata	ENDS
;	COMDAT CONST
CONST	SEGMENT
$cppxdata$??0?$basic_string@DU?$char_traits@D@std@@V?$allocator@D@2@@std@@QEAA@AEBV01@@Z DD 019930522H
	DD	01H
	DD	imagerel $stateUnwindMap$??0?$basic_string@DU?$char_traits@D@std@@V?$allocator@D@2@@std@@QEAA@AEBV01@@Z
	DD	00H
	DD	00H
	DD	03H
	DD	imagerel $ip2state$??0?$basic_string@DU?$char_traits@D@std@@V?$allocator@D@2@@std@@QEAA@AEBV01@@Z
	DD	030H
	DD	00H
	DD	01H
CONST	ENDS
;	COMDAT xdata
xdata	SEGMENT
$stateUnwindMap$??0?$basic_string@DU?$char_traits@D@std@@V?$allocator@D@2@@std@@QEAA@AEBV01@@Z DD 0ffffffffH
	DD	imagerel ?dtor$0@?0???0?$basic_string@DU?$char_traits@D@std@@V?$allocator@D@2@@std@@QEAA@AEBV01@@Z@4HA
; Function compile flags: /Odtp /RTCsu
xdata	ENDS
;	COMDAT ??0?$basic_string@DU?$char_traits@D@std@@V?$allocator@D@2@@std@@QEAA@AEBV01@@Z
_TEXT	SEGMENT
$T107190 = 32
$T107191 = 40
$T107197 = 48
this$ = 80
_Right$ = 88
??0?$basic_string@DU?$char_traits@D@std@@V?$allocator@D@2@@std@@QEAA@AEBV01@@Z PROC ; std::basic_string<char,std::char_traits<char>,std::allocator<char> >::basic_string<char,std::char_traits<char>,std::allocator<char> >, COMDAT
; Line 543
$LN4:
	mov	QWORD PTR [rsp+16], rdx
	mov	QWORD PTR [rsp+8], rcx
	push	rdi
	sub	rsp, 64					; 00000040H
	mov	rdi, rsp
	mov	ecx, 16
	mov	eax, -858993460				; ccccccccH
	rep stosd
	mov	rcx, QWORD PTR [rsp+80]
	mov	QWORD PTR $T107197[rsp], -2
	lea	rax, QWORD PTR $T107190[rsp]
	mov	QWORD PTR $T107191[rsp], rax
	mov	rax, QWORD PTR _Right$[rsp]
	add	rax, 40					; 00000028H
	mov	rdx, rax
	mov	rcx, QWORD PTR $T107191[rsp]
	call	??0?$allocator@D@std@@QEAA@AEBV01@@Z	; std::allocator<char>::allocator<char>
	mov	rdx, rax
	mov	rcx, QWORD PTR this$[rsp]
	call	??0?$_String_val@DV?$allocator@D@std@@@std@@QEAA@V?$allocator@D@1@@Z ; std::_String_val<char,std::allocator<char> >::_String_val<char,std::allocator<char> >
	npad	1
; Line 544
	xor	r8d, r8d
	xor	edx, edx
	mov	rcx, QWORD PTR this$[rsp]
	call	?_Tidy@?$basic_string@DU?$char_traits@D@std@@V?$allocator@D@2@@std@@QEAAX_N_K@Z ; std::basic_string<char,std::char_traits<char>,std::allocator<char> >::_Tidy
; Line 545
	mov	r9, QWORD PTR ?npos@?$basic_string@DU?$char_traits@D@std@@V?$allocator@D@2@@std@@2_KB ; std::basic_string<char,std::char_traits<char>,std::allocator<char> >::npos
	xor	r8d, r8d
	mov	rdx, QWORD PTR _Right$[rsp]
	mov	rcx, QWORD PTR this$[rsp]
	call	?assign@?$basic_string@DU?$char_traits@D@std@@V?$allocator@D@2@@std@@QEAAAEAV12@AEBV12@_K1@Z ; std::basic_string<char,std::char_traits<char>,std::allocator<char> >::assign
	npad	1
; Line 546
	mov	rax, QWORD PTR this$[rsp]
	add	rsp, 64					; 00000040H
	pop	rdi
	ret	0
??0?$basic_string@DU?$char_traits@D@std@@V?$allocator@D@2@@std@@QEAA@AEBV01@@Z ENDP ; std::basic_string<char,std::char_traits<char>,std::allocator<char> >::basic_string<char,std::char_traits<char>,std::allocator<char> >
; Function compile flags: /Odtp /RTCsu
_TEXT	ENDS
;	COMDAT text$x
text$x	SEGMENT
$T107190 = 32
$T107191 = 40
$T107197 = 48
this$ = 80
_Right$ = 88
?dtor$0@?0???0?$basic_string@DU?$char_traits@D@std@@V?$allocator@D@2@@std@@QEAA@AEBV01@@Z@4HA PROC ; `std::basic_string<char,std::char_traits<char>,std::allocator<char> >::basic_string<char,std::char_traits<char>,std::allocator<char> >'::`1'::dtor$0
	mov	QWORD PTR [rsp+8], rcx
	mov	QWORD PTR [rsp+16], rdx
	push	rbp
	push	rdi
	sub	rsp, 40					; 00000028H
	mov	rbp, rdx
	mov	rcx, QWORD PTR this$[rbp]
	call	??1?$_String_val@DV?$allocator@D@std@@@std@@QEAA@XZ ; std::_String_val<char,std::allocator<char> >::~_String_val<char,std::allocator<char> >
	add	rsp, 40					; 00000028H
	pop	rdi
	pop	rbp
	ret	0
?dtor$0@?0???0?$basic_string@DU?$char_traits@D@std@@V?$allocator@D@2@@std@@QEAA@AEBV01@@Z@4HA ENDP ; `std::basic_string<char,std::char_traits<char>,std::allocator<char> >::basic_string<char,std::char_traits<char>,std::allocator<char> >'::`1'::dtor$0
text$x	ENDS
PUBLIC	??0?$allocator@D@std@@QEAA@XZ			; std::allocator<char>::allocator<char>
;	COMDAT pdata
pdata	SEGMENT
$pdata$??0?$basic_string@DU?$char_traits@D@std@@V?$allocator@D@2@@std@@QEAA@XZ DD imagerel $LN4
	DD	imagerel $LN4+100
	DD	imagerel $unwind$??0?$basic_string@DU?$char_traits@D@std@@V?$allocator@D@2@@std@@QEAA@XZ
pdata	ENDS
;	COMDAT pdata
pdata	SEGMENT
$pdata$?dtor$0@?0???0?$basic_string@DU?$char_traits@D@std@@V?$allocator@D@2@@std@@QEAA@XZ@4HA DD imagerel ?dtor$0@?0???0?$basic_string@DU?$char_traits@D@std@@V?$allocator@D@2@@std@@QEAA@XZ@4HA
	DD	imagerel ?dtor$0@?0???0?$basic_string@DU?$char_traits@D@std@@V?$allocator@D@2@@std@@QEAA@XZ@4HA+35
	DD	imagerel $unwind$?dtor$0@?0???0?$basic_string@DU?$char_traits@D@std@@V?$allocator@D@2@@std@@QEAA@XZ@4HA
pdata	ENDS
;	COMDAT xdata
xdata	SEGMENT
$ip2state$??0?$basic_string@DU?$char_traits@D@std@@V?$allocator@D@2@@std@@QEAA@XZ DD imagerel ??0?$basic_string@DU?$char_traits@D@std@@V?$allocator@D@2@@std@@QEAA@XZ
	DD	0ffffffffH
	DD	imagerel ??0?$basic_string@DU?$char_traits@D@std@@V?$allocator@D@2@@std@@QEAA@XZ+73
	DD	00H
	DD	imagerel ??0?$basic_string@DU?$char_traits@D@std@@V?$allocator@D@2@@std@@QEAA@XZ+89
	DD	0ffffffffH
xdata	ENDS
;	COMDAT xdata
xdata	SEGMENT
$unwind$?dtor$0@?0???0?$basic_string@DU?$char_traits@D@std@@V?$allocator@D@2@@std@@QEAA@XZ@4HA DD 031001H
	DD	0700c4210H
	DD	0500bH
xdata	ENDS
;	COMDAT xdata
xdata	SEGMENT
$unwind$??0?$basic_string@DU?$char_traits@D@std@@V?$allocator@D@2@@std@@QEAA@XZ DD 022711H
	DD	07006720aH
	DD	imagerel __CxxFrameHandler3
	DD	imagerel $cppxdata$??0?$basic_string@DU?$char_traits@D@std@@V?$allocator@D@2@@std@@QEAA@XZ
xdata	ENDS
;	COMDAT CONST
CONST	SEGMENT
$cppxdata$??0?$basic_string@DU?$char_traits@D@std@@V?$allocator@D@2@@std@@QEAA@XZ DD 019930522H
	DD	01H
	DD	imagerel $stateUnwindMap$??0?$basic_string@DU?$char_traits@D@std@@V?$allocator@D@2@@std@@QEAA@XZ
	DD	00H
	DD	00H
	DD	03H
	DD	imagerel $ip2state$??0?$basic_string@DU?$char_traits@D@std@@V?$allocator@D@2@@std@@QEAA@XZ
	DD	030H
	DD	00H
	DD	01H
CONST	ENDS
;	COMDAT xdata
xdata	SEGMENT
$stateUnwindMap$??0?$basic_string@DU?$char_traits@D@std@@V?$allocator@D@2@@std@@QEAA@XZ DD 0ffffffffH
	DD	imagerel ?dtor$0@?0???0?$basic_string@DU?$char_traits@D@std@@V?$allocator@D@2@@std@@QEAA@XZ@4HA
; Function compile flags: /Odtp /RTCsu
xdata	ENDS
;	COMDAT ??0?$basic_string@DU?$char_traits@D@std@@V?$allocator@D@2@@std@@QEAA@XZ
_TEXT	SEGMENT
$T107215 = 32
$T107216 = 40
$T107222 = 48
this$ = 80
??0?$basic_string@DU?$char_traits@D@std@@V?$allocator@D@2@@std@@QEAA@XZ PROC ; std::basic_string<char,std::char_traits<char>,std::allocator<char> >::basic_string<char,std::char_traits<char>,std::allocator<char> >, COMDAT
; Line 550
$LN4:
	mov	QWORD PTR [rsp+8], rcx
	push	rdi
	sub	rsp, 64					; 00000040H
	mov	rdi, rsp
	mov	ecx, 16
	mov	eax, -858993460				; ccccccccH
	rep stosd
	mov	rcx, QWORD PTR [rsp+80]
	mov	QWORD PTR $T107222[rsp], -2
	lea	rax, QWORD PTR $T107215[rsp]
	mov	QWORD PTR $T107216[rsp], rax
	mov	rcx, QWORD PTR $T107216[rsp]
	call	??0?$allocator@D@std@@QEAA@XZ		; std::allocator<char>::allocator<char>
	mov	rdx, rax
	mov	rcx, QWORD PTR this$[rsp]
	call	??0?$_String_val@DV?$allocator@D@std@@@std@@QEAA@V?$allocator@D@1@@Z ; std::_String_val<char,std::allocator<char> >::_String_val<char,std::allocator<char> >
	npad	1
; Line 551
	xor	r8d, r8d
	xor	edx, edx
	mov	rcx, QWORD PTR this$[rsp]
	call	?_Tidy@?$basic_string@DU?$char_traits@D@std@@V?$allocator@D@2@@std@@QEAAX_N_K@Z ; std::basic_string<char,std::char_traits<char>,std::allocator<char> >::_Tidy
	npad	1
; Line 552
	mov	rax, QWORD PTR this$[rsp]
	add	rsp, 64					; 00000040H
	pop	rdi
	ret	0
??0?$basic_string@DU?$char_traits@D@std@@V?$allocator@D@2@@std@@QEAA@XZ ENDP ; std::basic_string<char,std::char_traits<char>,std::allocator<char> >::basic_string<char,std::char_traits<char>,std::allocator<char> >
; Function compile flags: /Odtp /RTCsu
_TEXT	ENDS
;	COMDAT text$x
text$x	SEGMENT
$T107215 = 32
$T107216 = 40
$T107222 = 48
this$ = 80
?dtor$0@?0???0?$basic_string@DU?$char_traits@D@std@@V?$allocator@D@2@@std@@QEAA@XZ@4HA PROC ; `std::basic_string<char,std::char_traits<char>,std::allocator<char> >::basic_string<char,std::char_traits<char>,std::allocator<char> >'::`1'::dtor$0
	mov	QWORD PTR [rsp+8], rcx
	mov	QWORD PTR [rsp+16], rdx
	push	rbp
	push	rdi
	sub	rsp, 40					; 00000028H
	mov	rbp, rdx
	mov	rcx, QWORD PTR this$[rbp]
	call	??1?$_String_val@DV?$allocator@D@std@@@std@@QEAA@XZ ; std::_String_val<char,std::allocator<char> >::~_String_val<char,std::allocator<char> >
	add	rsp, 40					; 00000028H
	pop	rdi
	pop	rbp
	ret	0
?dtor$0@?0???0?$basic_string@DU?$char_traits@D@std@@V?$allocator@D@2@@std@@QEAA@XZ@4HA ENDP ; `std::basic_string<char,std::char_traits<char>,std::allocator<char> >::basic_string<char,std::char_traits<char>,std::allocator<char> >'::`1'::dtor$0
text$x	ENDS
PUBLIC	?assign@?$basic_string@DU?$char_traits@D@std@@V?$allocator@D@2@@std@@QEAAAEAV12@PEBD@Z ; std::basic_string<char,std::char_traits<char>,std::allocator<char> >::assign
;	COMDAT pdata
pdata	SEGMENT
$pdata$??0?$basic_string@DU?$char_traits@D@std@@V?$allocator@D@2@@std@@QEAA@PEBD@Z DD imagerel $LN4
	DD	imagerel $LN4+120
	DD	imagerel $unwind$??0?$basic_string@DU?$char_traits@D@std@@V?$allocator@D@2@@std@@QEAA@PEBD@Z
pdata	ENDS
;	COMDAT pdata
pdata	SEGMENT
$pdata$?dtor$0@?0???0?$basic_string@DU?$char_traits@D@std@@V?$allocator@D@2@@std@@QEAA@PEBD@Z@4HA DD imagerel ?dtor$0@?0???0?$basic_string@DU?$char_traits@D@std@@V?$allocator@D@2@@std@@QEAA@PEBD@Z@4HA
	DD	imagerel ?dtor$0@?0???0?$basic_string@DU?$char_traits@D@std@@V?$allocator@D@2@@std@@QEAA@PEBD@Z@4HA+35
	DD	imagerel $unwind$?dtor$0@?0???0?$basic_string@DU?$char_traits@D@std@@V?$allocator@D@2@@std@@QEAA@PEBD@Z@4HA
pdata	ENDS
;	COMDAT xdata
xdata	SEGMENT
$ip2state$??0?$basic_string@DU?$char_traits@D@std@@V?$allocator@D@2@@std@@QEAA@PEBD@Z DD imagerel ??0?$basic_string@DU?$char_traits@D@std@@V?$allocator@D@2@@std@@QEAA@PEBD@Z
	DD	0ffffffffH
	DD	imagerel ??0?$basic_string@DU?$char_traits@D@std@@V?$allocator@D@2@@std@@QEAA@PEBD@Z+78
	DD	00H
	DD	imagerel ??0?$basic_string@DU?$char_traits@D@std@@V?$allocator@D@2@@std@@QEAA@PEBD@Z+109
	DD	0ffffffffH
xdata	ENDS
;	COMDAT xdata
xdata	SEGMENT
$unwind$?dtor$0@?0???0?$basic_string@DU?$char_traits@D@std@@V?$allocator@D@2@@std@@QEAA@PEBD@Z@4HA DD 031001H
	DD	0700c4210H
	DD	0500bH
xdata	ENDS
;	COMDAT xdata
xdata	SEGMENT
$unwind$??0?$basic_string@DU?$char_traits@D@std@@V?$allocator@D@2@@std@@QEAA@PEBD@Z DD 022c11H
	DD	0700b720fH
	DD	imagerel __CxxFrameHandler3
	DD	imagerel $cppxdata$??0?$basic_string@DU?$char_traits@D@std@@V?$allocator@D@2@@std@@QEAA@PEBD@Z
xdata	ENDS
;	COMDAT CONST
CONST	SEGMENT
$cppxdata$??0?$basic_string@DU?$char_traits@D@std@@V?$allocator@D@2@@std@@QEAA@PEBD@Z DD 019930522H
	DD	01H
	DD	imagerel $stateUnwindMap$??0?$basic_string@DU?$char_traits@D@std@@V?$allocator@D@2@@std@@QEAA@PEBD@Z
	DD	00H
	DD	00H
	DD	03H
	DD	imagerel $ip2state$??0?$basic_string@DU?$char_traits@D@std@@V?$allocator@D@2@@std@@QEAA@PEBD@Z
	DD	030H
	DD	00H
	DD	01H
CONST	ENDS
;	COMDAT xdata
xdata	SEGMENT
$stateUnwindMap$??0?$basic_string@DU?$char_traits@D@std@@V?$allocator@D@2@@std@@QEAA@PEBD@Z DD 0ffffffffH
	DD	imagerel ?dtor$0@?0???0?$basic_string@DU?$char_traits@D@std@@V?$allocator@D@2@@std@@QEAA@PEBD@Z@4HA
; Function compile flags: /Odtp /RTCsu
xdata	ENDS
;	COMDAT ??0?$basic_string@DU?$char_traits@D@std@@V?$allocator@D@2@@std@@QEAA@PEBD@Z
_TEXT	SEGMENT
$T107240 = 32
$T107241 = 40
$T107247 = 48
this$ = 80
_Ptr$ = 88
??0?$basic_string@DU?$char_traits@D@std@@V?$allocator@D@2@@std@@QEAA@PEBD@Z PROC ; std::basic_string<char,std::char_traits<char>,std::allocator<char> >::basic_string<char,std::char_traits<char>,std::allocator<char> >, COMDAT
; Line 592
$LN4:
	mov	QWORD PTR [rsp+16], rdx
	mov	QWORD PTR [rsp+8], rcx
	push	rdi
	sub	rsp, 64					; 00000040H
	mov	rdi, rsp
	mov	ecx, 16
	mov	eax, -858993460				; ccccccccH
	rep stosd
	mov	rcx, QWORD PTR [rsp+80]
	mov	QWORD PTR $T107247[rsp], -2
	lea	rax, QWORD PTR $T107240[rsp]
	mov	QWORD PTR $T107241[rsp], rax
	mov	rcx, QWORD PTR $T107241[rsp]
	call	??0?$allocator@D@std@@QEAA@XZ		; std::allocator<char>::allocator<char>
	mov	rdx, rax
	mov	rcx, QWORD PTR this$[rsp]
	call	??0?$_String_val@DV?$allocator@D@std@@@std@@QEAA@V?$allocator@D@1@@Z ; std::_String_val<char,std::allocator<char> >::_String_val<char,std::allocator<char> >
	npad	1
; Line 593
	xor	r8d, r8d
	xor	edx, edx
	mov	rcx, QWORD PTR this$[rsp]
	call	?_Tidy@?$basic_string@DU?$char_traits@D@std@@V?$allocator@D@2@@std@@QEAAX_N_K@Z ; std::basic_string<char,std::char_traits<char>,std::allocator<char> >::_Tidy
; Line 594
	mov	rdx, QWORD PTR _Ptr$[rsp]
	mov	rcx, QWORD PTR this$[rsp]
	call	?assign@?$basic_string@DU?$char_traits@D@std@@V?$allocator@D@2@@std@@QEAAAEAV12@PEBD@Z ; std::basic_string<char,std::char_traits<char>,std::allocator<char> >::assign
	npad	1
; Line 595
	mov	rax, QWORD PTR this$[rsp]
	add	rsp, 64					; 00000040H
	pop	rdi
	ret	0
??0?$basic_string@DU?$char_traits@D@std@@V?$allocator@D@2@@std@@QEAA@PEBD@Z ENDP ; std::basic_string<char,std::char_traits<char>,std::allocator<char> >::basic_string<char,std::char_traits<char>,std::allocator<char> >
; Function compile flags: /Odtp /RTCsu
_TEXT	ENDS
;	COMDAT text$x
text$x	SEGMENT
$T107240 = 32
$T107241 = 40
$T107247 = 48
this$ = 80
_Ptr$ = 88
?dtor$0@?0???0?$basic_string@DU?$char_traits@D@std@@V?$allocator@D@2@@std@@QEAA@PEBD@Z@4HA PROC ; `std::basic_string<char,std::char_traits<char>,std::allocator<char> >::basic_string<char,std::char_traits<char>,std::allocator<char> >'::`1'::dtor$0
	mov	QWORD PTR [rsp+8], rcx
	mov	QWORD PTR [rsp+16], rdx
	push	rbp
	push	rdi
	sub	rsp, 40					; 00000028H
	mov	rbp, rdx
	mov	rcx, QWORD PTR this$[rbp]
	call	??1?$_String_val@DV?$allocator@D@std@@@std@@QEAA@XZ ; std::_String_val<char,std::allocator<char> >::~_String_val<char,std::allocator<char> >
	add	rsp, 40					; 00000028H
	pop	rdi
	pop	rbp
	ret	0
?dtor$0@?0???0?$basic_string@DU?$char_traits@D@std@@V?$allocator@D@2@@std@@QEAA@PEBD@Z@4HA ENDP ; `std::basic_string<char,std::char_traits<char>,std::allocator<char> >::basic_string<char,std::char_traits<char>,std::allocator<char> >'::`1'::dtor$0
text$x	ENDS
;	COMDAT pdata
pdata	SEGMENT
$pdata$??1?$basic_string@DU?$char_traits@D@std@@V?$allocator@D@2@@std@@QEAA@XZ DD imagerel $LN4
	DD	imagerel $LN4+71
	DD	imagerel $unwind$??1?$basic_string@DU?$char_traits@D@std@@V?$allocator@D@2@@std@@QEAA@XZ
pdata	ENDS
;	COMDAT pdata
pdata	SEGMENT
$pdata$?dtor$0@?0???1?$basic_string@DU?$char_traits@D@std@@V?$allocator@D@2@@std@@QEAA@XZ@4HA DD imagerel ?dtor$0@?0???1?$basic_string@DU?$char_traits@D@std@@V?$allocator@D@2@@std@@QEAA@XZ@4HA
	DD	imagerel ?dtor$0@?0???1?$basic_string@DU?$char_traits@D@std@@V?$allocator@D@2@@std@@QEAA@XZ@4HA+35
	DD	imagerel $unwind$?dtor$0@?0???1?$basic_string@DU?$char_traits@D@std@@V?$allocator@D@2@@std@@QEAA@XZ@4HA
pdata	ENDS
;	COMDAT xdata
xdata	SEGMENT
$ip2state$??1?$basic_string@DU?$char_traits@D@std@@V?$allocator@D@2@@std@@QEAA@XZ DD imagerel ??1?$basic_string@DU?$char_traits@D@std@@V?$allocator@D@2@@std@@QEAA@XZ
	DD	0ffffffffH
	DD	imagerel ??1?$basic_string@DU?$char_traits@D@std@@V?$allocator@D@2@@std@@QEAA@XZ+39
	DD	00H
	DD	imagerel ??1?$basic_string@DU?$char_traits@D@std@@V?$allocator@D@2@@std@@QEAA@XZ+55
	DD	0ffffffffH
xdata	ENDS
;	COMDAT xdata
xdata	SEGMENT
$unwind$?dtor$0@?0???1?$basic_string@DU?$char_traits@D@std@@V?$allocator@D@2@@std@@QEAA@XZ@4HA DD 031001H
	DD	0700c4210H
	DD	0500bH
xdata	ENDS
;	COMDAT xdata
xdata	SEGMENT
$unwind$??1?$basic_string@DU?$char_traits@D@std@@V?$allocator@D@2@@std@@QEAA@XZ DD 022711H
	DD	07006520aH
	DD	imagerel __CxxFrameHandler3
	DD	imagerel $cppxdata$??1?$basic_string@DU?$char_traits@D@std@@V?$allocator@D@2@@std@@QEAA@XZ
xdata	ENDS
;	COMDAT CONST
CONST	SEGMENT
$cppxdata$??1?$basic_string@DU?$char_traits@D@std@@V?$allocator@D@2@@std@@QEAA@XZ DD 019930522H
	DD	01H
	DD	imagerel $stateUnwindMap$??1?$basic_string@DU?$char_traits@D@std@@V?$allocator@D@2@@std@@QEAA@XZ
	DD	00H
	DD	00H
	DD	03H
	DD	imagerel $ip2state$??1?$basic_string@DU?$char_traits@D@std@@V?$allocator@D@2@@std@@QEAA@XZ
	DD	020H
	DD	00H
	DD	01H
CONST	ENDS
;	COMDAT xdata
xdata	SEGMENT
$stateUnwindMap$??1?$basic_string@DU?$char_traits@D@std@@V?$allocator@D@2@@std@@QEAA@XZ DD 0ffffffffH
	DD	imagerel ?dtor$0@?0???1?$basic_string@DU?$char_traits@D@std@@V?$allocator@D@2@@std@@QEAA@XZ@4HA
; Function compile flags: /Odtp /RTCsu
xdata	ENDS
;	COMDAT ??1?$basic_string@DU?$char_traits@D@std@@V?$allocator@D@2@@std@@QEAA@XZ
_TEXT	SEGMENT
$T107270 = 32
this$ = 64
??1?$basic_string@DU?$char_traits@D@std@@V?$allocator@D@2@@std@@QEAA@XZ PROC ; std::basic_string<char,std::char_traits<char>,std::allocator<char> >::~basic_string<char,std::char_traits<char>,std::allocator<char> >, COMDAT
; Line 752
$LN4:
	mov	QWORD PTR [rsp+8], rcx
	push	rdi
	sub	rsp, 48					; 00000030H
	mov	rdi, rsp
	mov	ecx, 12
	mov	eax, -858993460				; ccccccccH
	rep stosd
	mov	rcx, QWORD PTR [rsp+64]
	mov	QWORD PTR $T107270[rsp], -2
; Line 753
	xor	r8d, r8d
	mov	dl, 1
	mov	rcx, QWORD PTR this$[rsp]
	call	?_Tidy@?$basic_string@DU?$char_traits@D@std@@V?$allocator@D@2@@std@@QEAAX_N_K@Z ; std::basic_string<char,std::char_traits<char>,std::allocator<char> >::_Tidy
	npad	1
; Line 754
	mov	rcx, QWORD PTR this$[rsp]
	call	??1?$_String_val@DV?$allocator@D@std@@@std@@QEAA@XZ ; std::_String_val<char,std::allocator<char> >::~_String_val<char,std::allocator<char> >
	add	rsp, 48					; 00000030H
	pop	rdi
	ret	0
??1?$basic_string@DU?$char_traits@D@std@@V?$allocator@D@2@@std@@QEAA@XZ ENDP ; std::basic_string<char,std::char_traits<char>,std::allocator<char> >::~basic_string<char,std::char_traits<char>,std::allocator<char> >
; Function compile flags: /Odtp /RTCsu
_TEXT	ENDS
;	COMDAT text$x
text$x	SEGMENT
$T107270 = 32
this$ = 64
?dtor$0@?0???1?$basic_string@DU?$char_traits@D@std@@V?$allocator@D@2@@std@@QEAA@XZ@4HA PROC ; `std::basic_string<char,std::char_traits<char>,std::allocator<char> >::~basic_string<char,std::char_traits<char>,std::allocator<char> >'::`1'::dtor$0
	mov	QWORD PTR [rsp+8], rcx
	mov	QWORD PTR [rsp+16], rdx
	push	rbp
	push	rdi
	sub	rsp, 40					; 00000028H
	mov	rbp, rdx
	mov	rcx, QWORD PTR this$[rbp]
	call	??1?$_String_val@DV?$allocator@D@std@@@std@@QEAA@XZ ; std::_String_val<char,std::allocator<char> >::~_String_val<char,std::allocator<char> >
	add	rsp, 40					; 00000028H
	pop	rdi
	pop	rbp
	ret	0
?dtor$0@?0???1?$basic_string@DU?$char_traits@D@std@@V?$allocator@D@2@@std@@QEAA@XZ@4HA ENDP ; `std::basic_string<char,std::char_traits<char>,std::allocator<char> >::~basic_string<char,std::char_traits<char>,std::allocator<char> >'::`1'::dtor$0
text$x	ENDS
;	COMDAT pdata
pdata	SEGMENT
$pdata$??4?$basic_string@DU?$char_traits@D@std@@V?$allocator@D@2@@std@@QEAAAEAV01@PEBD@Z DD imagerel $LN3
	DD	imagerel $LN3+56
	DD	imagerel $unwind$??4?$basic_string@DU?$char_traits@D@std@@V?$allocator@D@2@@std@@QEAAAEAV01@PEBD@Z
pdata	ENDS
;	COMDAT xdata
xdata	SEGMENT
$unwind$??4?$basic_string@DU?$char_traits@D@std@@V?$allocator@D@2@@std@@QEAAAEAV01@PEBD@Z DD 022301H
	DD	0700b320fH
; Function compile flags: /Odtp /RTCsu
xdata	ENDS
;	COMDAT ??4?$basic_string@DU?$char_traits@D@std@@V?$allocator@D@2@@std@@QEAAAEAV01@PEBD@Z
_TEXT	SEGMENT
this$ = 48
_Ptr$ = 56
??4?$basic_string@DU?$char_traits@D@std@@V?$allocator@D@2@@std@@QEAAAEAV01@PEBD@Z PROC ; std::basic_string<char,std::char_traits<char>,std::allocator<char> >::operator=, COMDAT
; Line 767
$LN3:
	mov	QWORD PTR [rsp+16], rdx
	mov	QWORD PTR [rsp+8], rcx
	push	rdi
	sub	rsp, 32					; 00000020H
	mov	rdi, rsp
	mov	ecx, 8
	mov	eax, -858993460				; ccccccccH
	rep stosd
	mov	rcx, QWORD PTR [rsp+48]
; Line 768
	mov	rdx, QWORD PTR _Ptr$[rsp]
	mov	rcx, QWORD PTR this$[rsp]
	call	?assign@?$basic_string@DU?$char_traits@D@std@@V?$allocator@D@2@@std@@QEAAAEAV12@PEBD@Z ; std::basic_string<char,std::char_traits<char>,std::allocator<char> >::assign
; Line 769
	add	rsp, 32					; 00000020H
	pop	rdi
	ret	0
??4?$basic_string@DU?$char_traits@D@std@@V?$allocator@D@2@@std@@QEAAAEAV01@PEBD@Z ENDP ; std::basic_string<char,std::char_traits<char>,std::allocator<char> >::operator=
_TEXT	ENDS
PUBLIC	?_Myptr@?$basic_string@DU?$char_traits@D@std@@V?$allocator@D@2@@std@@QEAAPEADXZ ; std::basic_string<char,std::char_traits<char>,std::allocator<char> >::_Myptr
PUBLIC	??_C@_1DM@GMPLOCPK@?$AAs?$AAt?$AAr?$AAi?$AAn?$AAg?$AA?5?$AAs?$AAu?$AAb?$AAs?$AAc?$AAr?$AAi?$AAp?$AAt?$AA?5?$AAo?$AAu?$AAt?$AA?5?$AAo?$AAf?$AA?5?$AAr?$AAa?$AAn?$AAg?$AAe?$AA?$AA@ ; `string'
PUBLIC	??_C@_1IO@FJMIILFL@?$AAc?$AA?3?$AA?2?$AAP?$AAr?$AAo?$AAg?$AAr?$AAa?$AAm?$AA?5?$AAF?$AAi?$AAl?$AAe?$AAs?$AA?5?$AA?$CI?$AAx?$AA8?$AA6?$AA?$CJ?$AA?2?$AAM?$AAi?$AAc?$AAr?$AAo?$AAs?$AAo?$AAf?$AAt@ ; `string'
EXTRN	?_Debug_message@std@@YAXPEB_W0I@Z:PROC		; std::_Debug_message
;	COMDAT pdata
pdata	SEGMENT
$pdata$??A?$basic_string@DU?$char_traits@D@std@@V?$allocator@D@2@@std@@QEAAAEAD_K@Z DD imagerel $LN4
	DD	imagerel $LN4+97
	DD	imagerel $unwind$??A?$basic_string@DU?$char_traits@D@std@@V?$allocator@D@2@@std@@QEAAAEAD_K@Z
pdata	ENDS
;	COMDAT xdata
xdata	SEGMENT
$unwind$??A?$basic_string@DU?$char_traits@D@std@@V?$allocator@D@2@@std@@QEAAAEAD_K@Z DD 022301H
	DD	0700b320fH
xdata	ENDS
;	COMDAT ??_C@_1DM@GMPLOCPK@?$AAs?$AAt?$AAr?$AAi?$AAn?$AAg?$AA?5?$AAs?$AAu?$AAb?$AAs?$AAc?$AAr?$AAi?$AAp?$AAt?$AA?5?$AAo?$AAu?$AAt?$AA?5?$AAo?$AAf?$AA?5?$AAr?$AAa?$AAn?$AAg?$AAe?$AA?$AA@
CONST	SEGMENT
??_C@_1DM@GMPLOCPK@?$AAs?$AAt?$AAr?$AAi?$AAn?$AAg?$AA?5?$AAs?$AAu?$AAb?$AAs?$AAc?$AAr?$AAi?$AAp?$AAt?$AA?5?$AAo?$AAu?$AAt?$AA?5?$AAo?$AAf?$AA?5?$AAr?$AAa?$AAn?$AAg?$AAe?$AA?$AA@ DB 's'
	DB	00H, 't', 00H, 'r', 00H, 'i', 00H, 'n', 00H, 'g', 00H, ' ', 00H
	DB	's', 00H, 'u', 00H, 'b', 00H, 's', 00H, 'c', 00H, 'r', 00H, 'i'
	DB	00H, 'p', 00H, 't', 00H, ' ', 00H, 'o', 00H, 'u', 00H, 't', 00H
	DB	' ', 00H, 'o', 00H, 'f', 00H, ' ', 00H, 'r', 00H, 'a', 00H, 'n'
	DB	00H, 'g', 00H, 'e', 00H, 00H, 00H		; `string'
CONST	ENDS
;	COMDAT ??_C@_1IO@FJMIILFL@?$AAc?$AA?3?$AA?2?$AAP?$AAr?$AAo?$AAg?$AAr?$AAa?$AAm?$AA?5?$AAF?$AAi?$AAl?$AAe?$AAs?$AA?5?$AA?$CI?$AAx?$AA8?$AA6?$AA?$CJ?$AA?2?$AAM?$AAi?$AAc?$AAr?$AAo?$AAs?$AAo?$AAf?$AAt@
CONST	SEGMENT
??_C@_1IO@FJMIILFL@?$AAc?$AA?3?$AA?2?$AAP?$AAr?$AAo?$AAg?$AAr?$AAa?$AAm?$AA?5?$AAF?$AAi?$AAl?$AAe?$AAs?$AA?5?$AA?$CI?$AAx?$AA8?$AA6?$AA?$CJ?$AA?2?$AAM?$AAi?$AAc?$AAr?$AAo?$AAs?$AAo?$AAf?$AAt@ DB 'c'
	DB	00H, ':', 00H, '\', 00H, 'P', 00H, 'r', 00H, 'o', 00H, 'g', 00H
	DB	'r', 00H, 'a', 00H, 'm', 00H, ' ', 00H, 'F', 00H, 'i', 00H, 'l'
	DB	00H, 'e', 00H, 's', 00H, ' ', 00H, '(', 00H, 'x', 00H, '8', 00H
	DB	'6', 00H, ')', 00H, '\', 00H, 'M', 00H, 'i', 00H, 'c', 00H, 'r'
	DB	00H, 'o', 00H, 's', 00H, 'o', 00H, 'f', 00H, 't', 00H, ' ', 00H
	DB	'V', 00H, 'i', 00H, 's', 00H, 'u', 00H, 'a', 00H, 'l', 00H, ' '
	DB	00H, 'S', 00H, 't', 00H, 'u', 00H, 'd', 00H, 'i', 00H, 'o', 00H
	DB	' ', 00H, '1', 00H, '0', 00H, '.', 00H, '0', 00H, '\', 00H, 'V'
	DB	00H, 'C', 00H, '\', 00H, 'i', 00H, 'n', 00H, 'c', 00H, 'l', 00H
	DB	'u', 00H, 'd', 00H, 'e', 00H, '\', 00H, 'x', 00H, 's', 00H, 't'
	DB	00H, 'r', 00H, 'i', 00H, 'n', 00H, 'g', 00H, 00H, 00H ; `string'
; Function compile flags: /Odtp /RTCsu
CONST	ENDS
;	COMDAT ??A?$basic_string@DU?$char_traits@D@std@@V?$allocator@D@2@@std@@QEAAAEAD_K@Z
_TEXT	SEGMENT
this$ = 48
_Off$ = 56
??A?$basic_string@DU?$char_traits@D@std@@V?$allocator@D@2@@std@@QEAAAEAD_K@Z PROC ; std::basic_string<char,std::char_traits<char>,std::allocator<char> >::operator[], COMDAT
; Line 1435
$LN4:
	mov	QWORD PTR [rsp+16], rdx
	mov	QWORD PTR [rsp+8], rcx
	push	rdi
	sub	rsp, 32					; 00000020H
	mov	rdi, rsp
	mov	ecx, 8
	mov	eax, -858993460				; ccccccccH
	rep stosd
	mov	rcx, QWORD PTR [rsp+48]
; Line 1438
	mov	rax, QWORD PTR this$[rsp]
	mov	rcx, QWORD PTR _Off$[rsp]
	cmp	QWORD PTR [rax+24], rcx
	ja	SHORT $LN1@operator
; Line 1440
	mov	r8d, 1440				; 000005a0H
	lea	rdx, OFFSET FLAT:??_C@_1IO@FJMIILFL@?$AAc?$AA?3?$AA?2?$AAP?$AAr?$AAo?$AAg?$AAr?$AAa?$AAm?$AA?5?$AAF?$AAi?$AAl?$AAe?$AAs?$AA?5?$AA?$CI?$AAx?$AA8?$AA6?$AA?$CJ?$AA?2?$AAM?$AAi?$AAc?$AAr?$AAo?$AAs?$AAo?$AAf?$AAt@
	lea	rcx, OFFSET FLAT:??_C@_1DM@GMPLOCPK@?$AAs?$AAt?$AAr?$AAi?$AAn?$AAg?$AA?5?$AAs?$AAu?$AAb?$AAs?$AAc?$AAr?$AAi?$AAp?$AAt?$AA?5?$AAo?$AAu?$AAt?$AA?5?$AAo?$AAf?$AA?5?$AAr?$AAa?$AAn?$AAg?$AAe?$AA?$AA@
	call	?_Debug_message@std@@YAXPEB_W0I@Z	; std::_Debug_message
$LN1@operator:
; Line 1446
	mov	rcx, QWORD PTR this$[rsp]
	call	?_Myptr@?$basic_string@DU?$char_traits@D@std@@V?$allocator@D@2@@std@@QEAAPEADXZ ; std::basic_string<char,std::char_traits<char>,std::allocator<char> >::_Myptr
	add	rax, QWORD PTR _Off$[rsp]
; Line 1447
	add	rsp, 32					; 00000020H
	pop	rdi
	ret	0
??A?$basic_string@DU?$char_traits@D@std@@V?$allocator@D@2@@std@@QEAAAEAD_K@Z ENDP ; std::basic_string<char,std::char_traits<char>,std::allocator<char> >::operator[]
_TEXT	ENDS
PUBLIC	?_Myptr@?$basic_string@DU?$char_traits@D@std@@V?$allocator@D@2@@std@@QEBAPEBDXZ ; std::basic_string<char,std::char_traits<char>,std::allocator<char> >::_Myptr
;	COMDAT pdata
pdata	SEGMENT
$pdata$?c_str@?$basic_string@DU?$char_traits@D@std@@V?$allocator@D@2@@std@@QEBAPEBDXZ DD imagerel $LN3
	DD	imagerel $LN3+46
	DD	imagerel $unwind$?c_str@?$basic_string@DU?$char_traits@D@std@@V?$allocator@D@2@@std@@QEBAPEBDXZ
pdata	ENDS
;	COMDAT xdata
xdata	SEGMENT
$unwind$?c_str@?$basic_string@DU?$char_traits@D@std@@V?$allocator@D@2@@std@@QEBAPEBDXZ DD 021e01H
	DD	07006320aH
; Function compile flags: /Odtp /RTCsu
xdata	ENDS
;	COMDAT ?c_str@?$basic_string@DU?$char_traits@D@std@@V?$allocator@D@2@@std@@QEBAPEBDXZ
_TEXT	SEGMENT
this$ = 48
?c_str@?$basic_string@DU?$char_traits@D@std@@V?$allocator@D@2@@std@@QEBAPEBDXZ PROC ; std::basic_string<char,std::char_traits<char>,std::allocator<char> >::c_str, COMDAT
; Line 1495
$LN3:
	mov	QWORD PTR [rsp+8], rcx
	push	rdi
	sub	rsp, 32					; 00000020H
	mov	rdi, rsp
	mov	ecx, 8
	mov	eax, -858993460				; ccccccccH
	rep stosd
	mov	rcx, QWORD PTR [rsp+48]
; Line 1496
	mov	rcx, QWORD PTR this$[rsp]
	call	?_Myptr@?$basic_string@DU?$char_traits@D@std@@V?$allocator@D@2@@std@@QEBAPEBDXZ ; std::basic_string<char,std::char_traits<char>,std::allocator<char> >::_Myptr
; Line 1497
	add	rsp, 32					; 00000020H
	pop	rdi
	ret	0
?c_str@?$basic_string@DU?$char_traits@D@std@@V?$allocator@D@2@@std@@QEBAPEBDXZ ENDP ; std::basic_string<char,std::char_traits<char>,std::allocator<char> >::c_str
_TEXT	ENDS
PUBLIC	?find_first_of@?$basic_string@DU?$char_traits@D@std@@V?$allocator@D@2@@std@@QEBA_KPEBD_K1@Z ; std::basic_string<char,std::char_traits<char>,std::allocator<char> >::find_first_of
PUBLIC	?size@?$basic_string@DU?$char_traits@D@std@@V?$allocator@D@2@@std@@QEBA_KXZ ; std::basic_string<char,std::char_traits<char>,std::allocator<char> >::size
;	COMDAT pdata
pdata	SEGMENT
$pdata$?find_first_of@?$basic_string@DU?$char_traits@D@std@@V?$allocator@D@2@@std@@QEBA_KAEBV12@_K@Z DD imagerel $LN3
	DD	imagerel $LN3+97
	DD	imagerel $unwind$?find_first_of@?$basic_string@DU?$char_traits@D@std@@V?$allocator@D@2@@std@@QEBA_KAEBV12@_K@Z
pdata	ENDS
;	COMDAT xdata
xdata	SEGMENT
$unwind$?find_first_of@?$basic_string@DU?$char_traits@D@std@@V?$allocator@D@2@@std@@QEBA_KAEBV12@_K@Z DD 022801H
	DD	070105214H
; Function compile flags: /Odtp /RTCsu
xdata	ENDS
;	COMDAT ?find_first_of@?$basic_string@DU?$char_traits@D@std@@V?$allocator@D@2@@std@@QEBA_KAEBV12@_K@Z
_TEXT	SEGMENT
tv67 = 32
this$ = 64
_Right$ = 72
_Off$ = 80
?find_first_of@?$basic_string@DU?$char_traits@D@std@@V?$allocator@D@2@@std@@QEBA_KAEBV12@_K@Z PROC ; std::basic_string<char,std::char_traits<char>,std::allocator<char> >::find_first_of, COMDAT
; Line 1696
$LN3:
	mov	QWORD PTR [rsp+24], r8
	mov	QWORD PTR [rsp+16], rdx
	mov	QWORD PTR [rsp+8], rcx
	push	rdi
	sub	rsp, 48					; 00000030H
	mov	rdi, rsp
	mov	ecx, 12
	mov	eax, -858993460				; ccccccccH
	rep stosd
	mov	rcx, QWORD PTR [rsp+64]
; Line 1697
	mov	rcx, QWORD PTR _Right$[rsp]
	call	?size@?$basic_string@DU?$char_traits@D@std@@V?$allocator@D@2@@std@@QEBA_KXZ ; std::basic_string<char,std::char_traits<char>,std::allocator<char> >::size
	mov	QWORD PTR tv67[rsp], rax
	mov	rcx, QWORD PTR _Right$[rsp]
	call	?_Myptr@?$basic_string@DU?$char_traits@D@std@@V?$allocator@D@2@@std@@QEBAPEBDXZ ; std::basic_string<char,std::char_traits<char>,std::allocator<char> >::_Myptr
	mov	rcx, QWORD PTR tv67[rsp]
	mov	r9, rcx
	mov	r8, QWORD PTR _Off$[rsp]
	mov	rdx, rax
	mov	rcx, QWORD PTR this$[rsp]
	call	?find_first_of@?$basic_string@DU?$char_traits@D@std@@V?$allocator@D@2@@std@@QEBA_KPEBD_K1@Z ; std::basic_string<char,std::char_traits<char>,std::allocator<char> >::find_first_of
; Line 1698
	add	rsp, 48					; 00000030H
	pop	rdi
	ret	0
?find_first_of@?$basic_string@DU?$char_traits@D@std@@V?$allocator@D@2@@std@@QEBA_KAEBV12@_K@Z ENDP ; std::basic_string<char,std::char_traits<char>,std::allocator<char> >::find_first_of
_TEXT	ENDS
;	COMDAT pdata
pdata	SEGMENT
$pdata$?size@?$basic_string@DU?$char_traits@D@std@@V?$allocator@D@2@@std@@QEBA_KXZ DD imagerel $LN3
	DD	imagerel $LN3+17
	DD	imagerel $unwind$?size@?$basic_string@DU?$char_traits@D@std@@V?$allocator@D@2@@std@@QEBA_KXZ
pdata	ENDS
;	COMDAT xdata
xdata	SEGMENT
$unwind$?size@?$basic_string@DU?$char_traits@D@std@@V?$allocator@D@2@@std@@QEBA_KXZ DD 010601H
	DD	07006H
; Function compile flags: /Odtp /RTCsu
xdata	ENDS
;	COMDAT ?size@?$basic_string@DU?$char_traits@D@std@@V?$allocator@D@2@@std@@QEBA_KXZ
_TEXT	SEGMENT
this$ = 16
?size@?$basic_string@DU?$char_traits@D@std@@V?$allocator@D@2@@std@@QEBA_KXZ PROC ; std::basic_string<char,std::char_traits<char>,std::allocator<char> >::size, COMDAT
; Line 1510
$LN3:
	mov	QWORD PTR [rsp+8], rcx
	push	rdi
; Line 1511
	mov	rax, QWORD PTR this$[rsp]
	mov	rax, QWORD PTR [rax+24]
; Line 1512
	pop	rdi
	ret	0
?size@?$basic_string@DU?$char_traits@D@std@@V?$allocator@D@2@@std@@QEBA_KXZ ENDP ; std::basic_string<char,std::char_traits<char>,std::allocator<char> >::size
_TEXT	ENDS
PUBLIC	?rfind@?$basic_string@DU?$char_traits@D@std@@V?$allocator@D@2@@std@@QEBA_KPEBD_K1@Z ; std::basic_string<char,std::char_traits<char>,std::allocator<char> >::rfind
;	COMDAT pdata
pdata	SEGMENT
$pdata$?find_last_of@?$basic_string@DU?$char_traits@D@std@@V?$allocator@D@2@@std@@QEBA_KD_K@Z DD imagerel $LN3
	DD	imagerel $LN3+71
	DD	imagerel $unwind$?find_last_of@?$basic_string@DU?$char_traits@D@std@@V?$allocator@D@2@@std@@QEBA_KD_K@Z
pdata	ENDS
;	COMDAT xdata
xdata	SEGMENT
$unwind$?find_last_of@?$basic_string@DU?$char_traits@D@std@@V?$allocator@D@2@@std@@QEBA_KD_K@Z DD 022701H
	DD	0700f3213H
; Function compile flags: /Odtp /RTCsu
xdata	ENDS
;	COMDAT ?find_last_of@?$basic_string@DU?$char_traits@D@std@@V?$allocator@D@2@@std@@QEBA_KD_K@Z
_TEXT	SEGMENT
this$ = 48
_Ch$ = 56
_Off$ = 64
?find_last_of@?$basic_string@DU?$char_traits@D@std@@V?$allocator@D@2@@std@@QEBA_KD_K@Z PROC ; std::basic_string<char,std::char_traits<char>,std::allocator<char> >::find_last_of, COMDAT
; Line 1766
$LN3:
	mov	QWORD PTR [rsp+24], r8
	mov	BYTE PTR [rsp+16], dl
	mov	QWORD PTR [rsp+8], rcx
	push	rdi
	sub	rsp, 32					; 00000020H
	mov	rdi, rsp
	mov	ecx, 8
	mov	eax, -858993460				; ccccccccH
	rep stosd
	mov	rcx, QWORD PTR [rsp+48]
; Line 1767
	mov	r9d, 1
	mov	r8, QWORD PTR _Off$[rsp]
	lea	rdx, QWORD PTR _Ch$[rsp]
	mov	rcx, QWORD PTR this$[rsp]
	call	?rfind@?$basic_string@DU?$char_traits@D@std@@V?$allocator@D@2@@std@@QEBA_KPEBD_K1@Z ; std::basic_string<char,std::char_traits<char>,std::allocator<char> >::rfind
; Line 1768
	add	rsp, 32					; 00000020H
	pop	rdi
	ret	0
?find_last_of@?$basic_string@DU?$char_traits@D@std@@V?$allocator@D@2@@std@@QEBA_KD_K@Z ENDP ; std::basic_string<char,std::char_traits<char>,std::allocator<char> >::find_last_of
_TEXT	ENDS
PUBLIC	?find_first_not_of@?$basic_string@DU?$char_traits@D@std@@V?$allocator@D@2@@std@@QEBA_KPEBD_K1@Z ; std::basic_string<char,std::char_traits<char>,std::allocator<char> >::find_first_not_of
;	COMDAT pdata
pdata	SEGMENT
$pdata$?find_first_not_of@?$basic_string@DU?$char_traits@D@std@@V?$allocator@D@2@@std@@QEBA_KAEBV12@_K@Z DD imagerel $LN3
	DD	imagerel $LN3+97
	DD	imagerel $unwind$?find_first_not_of@?$basic_string@DU?$char_traits@D@std@@V?$allocator@D@2@@std@@QEBA_KAEBV12@_K@Z
pdata	ENDS
;	COMDAT xdata
xdata	SEGMENT
$unwind$?find_first_not_of@?$basic_string@DU?$char_traits@D@std@@V?$allocator@D@2@@std@@QEBA_KAEBV12@_K@Z DD 022801H
	DD	070105214H
; Function compile flags: /Odtp /RTCsu
xdata	ENDS
;	COMDAT ?find_first_not_of@?$basic_string@DU?$char_traits@D@std@@V?$allocator@D@2@@std@@QEBA_KAEBV12@_K@Z
_TEXT	SEGMENT
tv67 = 32
this$ = 64
_Right$ = 72
_Off$ = 80
?find_first_not_of@?$basic_string@DU?$char_traits@D@std@@V?$allocator@D@2@@std@@QEBA_KAEBV12@_K@Z PROC ; std::basic_string<char,std::char_traits<char>,std::allocator<char> >::find_first_not_of, COMDAT
; Line 1772
$LN3:
	mov	QWORD PTR [rsp+24], r8
	mov	QWORD PTR [rsp+16], rdx
	mov	QWORD PTR [rsp+8], rcx
	push	rdi
	sub	rsp, 48					; 00000030H
	mov	rdi, rsp
	mov	ecx, 12
	mov	eax, -858993460				; ccccccccH
	rep stosd
	mov	rcx, QWORD PTR [rsp+64]
; Line 1774
	mov	rcx, QWORD PTR _Right$[rsp]
	call	?size@?$basic_string@DU?$char_traits@D@std@@V?$allocator@D@2@@std@@QEBA_KXZ ; std::basic_string<char,std::char_traits<char>,std::allocator<char> >::size
	mov	QWORD PTR tv67[rsp], rax
	mov	rcx, QWORD PTR _Right$[rsp]
	call	?_Myptr@?$basic_string@DU?$char_traits@D@std@@V?$allocator@D@2@@std@@QEBAPEBDXZ ; std::basic_string<char,std::char_traits<char>,std::allocator<char> >::_Myptr
	mov	rcx, QWORD PTR tv67[rsp]
	mov	r9, rcx
	mov	r8, QWORD PTR _Off$[rsp]
	mov	rdx, rax
	mov	rcx, QWORD PTR this$[rsp]
	call	?find_first_not_of@?$basic_string@DU?$char_traits@D@std@@V?$allocator@D@2@@std@@QEBA_KPEBD_K1@Z ; std::basic_string<char,std::char_traits<char>,std::allocator<char> >::find_first_not_of
; Line 1775
	add	rsp, 48					; 00000030H
	pop	rdi
	ret	0
?find_first_not_of@?$basic_string@DU?$char_traits@D@std@@V?$allocator@D@2@@std@@QEBA_KAEBV12@_K@Z ENDP ; std::basic_string<char,std::char_traits<char>,std::allocator<char> >::find_first_not_of
_TEXT	ENDS
PUBLIC	??0?$basic_string@DU?$char_traits@D@std@@V?$allocator@D@2@@std@@QEAA@AEBV01@_K1AEBV?$allocator@D@1@@Z ; std::basic_string<char,std::char_traits<char>,std::allocator<char> >::basic_string<char,std::char_traits<char>,std::allocator<char> >
PUBLIC	?get_allocator@?$basic_string@DU?$char_traits@D@std@@V?$allocator@D@2@@std@@QEBA?AV?$allocator@D@2@XZ ; std::basic_string<char,std::char_traits<char>,std::allocator<char> >::get_allocator
;	COMDAT pdata
pdata	SEGMENT
$pdata$?substr@?$basic_string@DU?$char_traits@D@std@@V?$allocator@D@2@@std@@QEBA?AV12@_K0@Z DD imagerel $LN5
	DD	imagerel $LN5+120
	DD	imagerel $unwind$?substr@?$basic_string@DU?$char_traits@D@std@@V?$allocator@D@2@@std@@QEBA?AV12@_K0@Z
pdata	ENDS
;	COMDAT xdata
xdata	SEGMENT
$unwind$?substr@?$basic_string@DU?$char_traits@D@std@@V?$allocator@D@2@@std@@QEBA?AV12@_K0@Z DD 022d01H
	DD	070157219H
; Function compile flags: /Odtp /RTCsu
xdata	ENDS
;	COMDAT ?substr@?$basic_string@DU?$char_traits@D@std@@V?$allocator@D@2@@std@@QEBA?AV12@_K0@Z
_TEXT	SEGMENT
$T107337 = 48
$T107342 = 52
this$ = 80
__$ReturnUdt$ = 88
_Off$ = 96
_Count$ = 104
?substr@?$basic_string@DU?$char_traits@D@std@@V?$allocator@D@2@@std@@QEBA?AV12@_K0@Z PROC ; std::basic_string<char,std::char_traits<char>,std::allocator<char> >::substr, COMDAT
; Line 1847
$LN5:
	mov	QWORD PTR [rsp+32], r9
	mov	QWORD PTR [rsp+24], r8
	mov	QWORD PTR [rsp+16], rdx
	mov	QWORD PTR [rsp+8], rcx
	push	rdi
	sub	rsp, 64					; 00000040H
	mov	rdi, rsp
	mov	ecx, 16
	mov	eax, -858993460				; ccccccccH
	rep stosd
	mov	rcx, QWORD PTR [rsp+80]
	mov	DWORD PTR $T107342[rsp], 0
; Line 1848
	lea	rdx, QWORD PTR $T107337[rsp]
	mov	rcx, QWORD PTR this$[rsp]
	call	?get_allocator@?$basic_string@DU?$char_traits@D@std@@V?$allocator@D@2@@std@@QEBA?AV?$allocator@D@2@XZ ; std::basic_string<char,std::char_traits<char>,std::allocator<char> >::get_allocator
	mov	QWORD PTR [rsp+32], rax
	mov	r9, QWORD PTR _Count$[rsp]
	mov	r8, QWORD PTR _Off$[rsp]
	mov	rdx, QWORD PTR this$[rsp]
	mov	rcx, QWORD PTR __$ReturnUdt$[rsp]
	call	??0?$basic_string@DU?$char_traits@D@std@@V?$allocator@D@2@@std@@QEAA@AEBV01@_K1AEBV?$allocator@D@1@@Z ; std::basic_string<char,std::char_traits<char>,std::allocator<char> >::basic_string<char,std::char_traits<char>,std::allocator<char> >
	mov	eax, DWORD PTR $T107342[rsp]
	or	eax, 1
	mov	DWORD PTR $T107342[rsp], eax
	mov	rax, QWORD PTR __$ReturnUdt$[rsp]
; Line 1849
	add	rsp, 64					; 00000040H
	pop	rdi
	ret	0
?substr@?$basic_string@DU?$char_traits@D@std@@V?$allocator@D@2@@std@@QEBA?AV12@_K0@Z ENDP ; std::basic_string<char,std::char_traits<char>,std::allocator<char> >::substr
_TEXT	ENDS
;	COMDAT pdata
; File c:\program files (x86)\microsoft visual studio 10.0\vc\include\xmemory
pdata	SEGMENT
$pdata$??0?$allocator@D@std@@QEAA@AEBV01@@Z DD imagerel $LN3
	DD	imagerel $LN3+18
	DD	imagerel $unwind$??0?$allocator@D@std@@QEAA@AEBV01@@Z
pdata	ENDS
;	COMDAT xdata
xdata	SEGMENT
$unwind$??0?$allocator@D@std@@QEAA@AEBV01@@Z DD 010b01H
	DD	0700bH
; Function compile flags: /Odtp /RTCsu
xdata	ENDS
;	COMDAT ??0?$allocator@D@std@@QEAA@AEBV01@@Z
_TEXT	SEGMENT
this$ = 16
__formal$ = 24
??0?$allocator@D@std@@QEAA@AEBV01@@Z PROC		; std::allocator<char>::allocator<char>, COMDAT
; Line 165
$LN3:
	mov	QWORD PTR [rsp+16], rdx
	mov	QWORD PTR [rsp+8], rcx
	push	rdi
; Line 167
	mov	rax, QWORD PTR this$[rsp]
	pop	rdi
	ret	0
??0?$allocator@D@std@@QEAA@AEBV01@@Z ENDP		; std::allocator<char>::allocator<char>
_TEXT	ENDS
PUBLIC	??$_Debug_pointer@$$A6AAEAV?$basic_ostream@DU?$char_traits@D@std@@@std@@AEAV12@@Z@std@@YAXP6AAEAV?$basic_ostream@DU?$char_traits@D@std@@@0@AEAV10@@ZPEB_WI@Z ; std::_Debug_pointer<std::basic_ostream<char,std::char_traits<char> > & __ptr64 __cdecl(std::basic_ostream<char,std::char_traits<char> > & __ptr64)>
PUBLIC	??_C@_1IO@ILFCAKEO@?$AAc?$AA?3?$AA?2?$AAP?$AAr?$AAo?$AAg?$AAr?$AAa?$AAm?$AA?5?$AAF?$AAi?$AAl?$AAe?$AAs?$AA?5?$AA?$CI?$AAx?$AA8?$AA6?$AA?$CJ?$AA?2?$AAM?$AAi?$AAc?$AAr?$AAo?$AAs?$AAo?$AAf?$AAt@ ; `string'
;	COMDAT pdata
; File c:\program files (x86)\microsoft visual studio 10.0\vc\include\ostream
pdata	SEGMENT
$pdata$??6?$basic_ostream@DU?$char_traits@D@std@@@std@@QEAAAEAV01@P6AAEAV01@AEAV01@@Z@Z DD imagerel $LN3
	DD	imagerel $LN3+73
	DD	imagerel $unwind$??6?$basic_ostream@DU?$char_traits@D@std@@@std@@QEAAAEAV01@P6AAEAV01@AEAV01@@Z@Z
pdata	ENDS
;	COMDAT xdata
xdata	SEGMENT
$unwind$??6?$basic_ostream@DU?$char_traits@D@std@@@std@@QEAAAEAV01@P6AAEAV01@AEAV01@@Z@Z DD 022301H
	DD	0700b320fH
xdata	ENDS
;	COMDAT ??_C@_1IO@ILFCAKEO@?$AAc?$AA?3?$AA?2?$AAP?$AAr?$AAo?$AAg?$AAr?$AAa?$AAm?$AA?5?$AAF?$AAi?$AAl?$AAe?$AAs?$AA?5?$AA?$CI?$AAx?$AA8?$AA6?$AA?$CJ?$AA?2?$AAM?$AAi?$AAc?$AAr?$AAo?$AAs?$AAo?$AAf?$AAt@
CONST	SEGMENT
??_C@_1IO@ILFCAKEO@?$AAc?$AA?3?$AA?2?$AAP?$AAr?$AAo?$AAg?$AAr?$AAa?$AAm?$AA?5?$AAF?$AAi?$AAl?$AAe?$AAs?$AA?5?$AA?$CI?$AAx?$AA8?$AA6?$AA?$CJ?$AA?2?$AAM?$AAi?$AAc?$AAr?$AAo?$AAs?$AAo?$AAf?$AAt@ DB 'c'
	DB	00H, ':', 00H, '\', 00H, 'P', 00H, 'r', 00H, 'o', 00H, 'g', 00H
	DB	'r', 00H, 'a', 00H, 'm', 00H, ' ', 00H, 'F', 00H, 'i', 00H, 'l'
	DB	00H, 'e', 00H, 's', 00H, ' ', 00H, '(', 00H, 'x', 00H, '8', 00H
	DB	'6', 00H, ')', 00H, '\', 00H, 'M', 00H, 'i', 00H, 'c', 00H, 'r'
	DB	00H, 'o', 00H, 's', 00H, 'o', 00H, 'f', 00H, 't', 00H, ' ', 00H
	DB	'V', 00H, 'i', 00H, 's', 00H, 'u', 00H, 'a', 00H, 'l', 00H, ' '
	DB	00H, 'S', 00H, 't', 00H, 'u', 00H, 'd', 00H, 'i', 00H, 'o', 00H
	DB	' ', 00H, '1', 00H, '0', 00H, '.', 00H, '0', 00H, '\', 00H, 'V'
	DB	00H, 'C', 00H, '\', 00H, 'i', 00H, 'n', 00H, 'c', 00H, 'l', 00H
	DB	'u', 00H, 'd', 00H, 'e', 00H, '\', 00H, 'o', 00H, 's', 00H, 't'
	DB	00H, 'r', 00H, 'e', 00H, 'a', 00H, 'm', 00H, 00H, 00H ; `string'
; Function compile flags: /Odtp /RTCsu
CONST	ENDS
;	COMDAT ??6?$basic_ostream@DU?$char_traits@D@std@@@std@@QEAAAEAV01@P6AAEAV01@AEAV01@@Z@Z
_TEXT	SEGMENT
this$ = 48
_Pfn$ = 56
??6?$basic_ostream@DU?$char_traits@D@std@@@std@@QEAAAEAV01@P6AAEAV01@AEAV01@@Z@Z PROC ; std::basic_ostream<char,std::char_traits<char> >::operator<<, COMDAT
; Line 187
$LN3:
	mov	QWORD PTR [rsp+16], rdx
	mov	QWORD PTR [rsp+8], rcx
	push	rdi
	sub	rsp, 32					; 00000020H
	mov	rdi, rsp
	mov	ecx, 8
	mov	eax, -858993460				; ccccccccH
	rep stosd
	mov	rcx, QWORD PTR [rsp+48]
; Line 188
	mov	r8d, 188				; 000000bcH
	lea	rdx, OFFSET FLAT:??_C@_1IO@ILFCAKEO@?$AAc?$AA?3?$AA?2?$AAP?$AAr?$AAo?$AAg?$AAr?$AAa?$AAm?$AA?5?$AAF?$AAi?$AAl?$AAe?$AAs?$AA?5?$AA?$CI?$AAx?$AA8?$AA6?$AA?$CJ?$AA?2?$AAM?$AAi?$AAc?$AAr?$AAo?$AAs?$AAo?$AAf?$AAt@
	mov	rcx, QWORD PTR _Pfn$[rsp]
	call	??$_Debug_pointer@$$A6AAEAV?$basic_ostream@DU?$char_traits@D@std@@@std@@AEAV12@@Z@std@@YAXP6AAEAV?$basic_ostream@DU?$char_traits@D@std@@@0@AEAV10@@ZPEB_WI@Z ; std::_Debug_pointer<std::basic_ostream<char,std::char_traits<char> > & __ptr64 __cdecl(std::basic_ostream<char,std::char_traits<char> > & __ptr64)>
; Line 189
	mov	rcx, QWORD PTR this$[rsp]
	call	QWORD PTR _Pfn$[rsp]
; Line 190
	add	rsp, 32					; 00000020H
	pop	rdi
	ret	0
??6?$basic_ostream@DU?$char_traits@D@std@@@std@@QEAAAEAV01@P6AAEAV01@AEAV01@@Z@Z ENDP ; std::basic_ostream<char,std::char_traits<char> >::operator<<
_TEXT	ENDS
PUBLIC	??$_Debug_pointer@$$A6AAEAVios_base@std@@AEAV12@@Z@std@@YAXP6AAEAVios_base@0@AEAV10@@ZPEB_WI@Z ; std::_Debug_pointer<std::ios_base & __ptr64 __cdecl(std::ios_base & __ptr64)>
;	COMDAT pdata
pdata	SEGMENT
$pdata$??6?$basic_ostream@DU?$char_traits@D@std@@@std@@QEAAAEAV01@P6AAEAVios_base@1@AEAV21@@Z@Z DD imagerel $LN5
	DD	imagerel $LN5+125
	DD	imagerel $unwind$??6?$basic_ostream@DU?$char_traits@D@std@@@std@@QEAAAEAV01@P6AAEAVios_base@1@AEAV21@@Z@Z
pdata	ENDS
;	COMDAT xdata
xdata	SEGMENT
$unwind$??6?$basic_ostream@DU?$char_traits@D@std@@@std@@QEAAAEAV01@P6AAEAVios_base@1@AEAV21@@Z@Z DD 022301H
	DD	0700b520fH
; Function compile flags: /Odtp /RTCsu
xdata	ENDS
;	COMDAT ??6?$basic_ostream@DU?$char_traits@D@std@@@std@@QEAAAEAV01@P6AAEAVios_base@1@AEAV21@@Z@Z
_TEXT	SEGMENT
tv79 = 32
this$ = 64
_Pfn$ = 72
??6?$basic_ostream@DU?$char_traits@D@std@@@std@@QEAAAEAV01@P6AAEAVios_base@1@AEAV21@@Z@Z PROC ; std::basic_ostream<char,std::char_traits<char> >::operator<<, COMDAT
; Line 200
$LN5:
	mov	QWORD PTR [rsp+16], rdx
	mov	QWORD PTR [rsp+8], rcx
	push	rdi
	sub	rsp, 48					; 00000030H
	mov	rdi, rsp
	mov	ecx, 12
	mov	eax, -858993460				; ccccccccH
	rep stosd
	mov	rcx, QWORD PTR [rsp+64]
; Line 201
	mov	r8d, 201				; 000000c9H
	lea	rdx, OFFSET FLAT:??_C@_1IO@ILFCAKEO@?$AAc?$AA?3?$AA?2?$AAP?$AAr?$AAo?$AAg?$AAr?$AAa?$AAm?$AA?5?$AAF?$AAi?$AAl?$AAe?$AAs?$AA?5?$AA?$CI?$AAx?$AA8?$AA6?$AA?$CJ?$AA?2?$AAM?$AAi?$AAc?$AAr?$AAo?$AAs?$AAo?$AAf?$AAt@
	mov	rcx, QWORD PTR _Pfn$[rsp]
	call	??$_Debug_pointer@$$A6AAEAVios_base@std@@AEAV12@@Z@std@@YAXP6AAEAVios_base@0@AEAV10@@ZPEB_WI@Z ; std::_Debug_pointer<std::ios_base & __ptr64 __cdecl(std::ios_base & __ptr64)>
; Line 202
	cmp	QWORD PTR this$[rsp], 0
	jne	SHORT $LN3@operator@2
	mov	QWORD PTR tv79[rsp], 0
	jmp	SHORT $LN4@operator@2
$LN3@operator@2:
	mov	rax, QWORD PTR this$[rsp]
	mov	rax, QWORD PTR [rax]
	movsxd	rax, DWORD PTR [rax+4]
	mov	rcx, QWORD PTR this$[rsp]
	add	rcx, rax
	mov	rax, rcx
	mov	QWORD PTR tv79[rsp], rax
$LN4@operator@2:
	mov	rcx, QWORD PTR tv79[rsp]
	call	QWORD PTR _Pfn$[rsp]
; Line 203
	mov	rax, QWORD PTR this$[rsp]
; Line 204
	add	rsp, 48					; 00000030H
	pop	rdi
	ret	0
??6?$basic_ostream@DU?$char_traits@D@std@@@std@@QEAAAEAV01@P6AAEAVios_base@1@AEAV21@@Z@Z ENDP ; std::basic_ostream<char,std::char_traits<char> >::operator<<
_TEXT	ENDS
PUBLIC	??1sentry@?$basic_ostream@DU?$char_traits@D@std@@@std@@QEAA@XZ ; std::basic_ostream<char,std::char_traits<char> >::sentry::~sentry
PUBLIC	?setstate@?$basic_ios@DU?$char_traits@D@std@@@std@@QEAAXH_N@Z ; std::basic_ios<char,std::char_traits<char> >::setstate
PUBLIC	?failed@?$ostreambuf_iterator@DU?$char_traits@D@std@@@std@@QEBA_NXZ ; std::ostreambuf_iterator<char,std::char_traits<char> >::failed
PUBLIC	?put@?$num_put@DV?$ostreambuf_iterator@DU?$char_traits@D@std@@@std@@@std@@QEBA?AV?$ostreambuf_iterator@DU?$char_traits@D@std@@@2@V32@AEAVios_base@2@DJ@Z ; std::num_put<char,std::ostreambuf_iterator<char,std::char_traits<char> > >::put
PUBLIC	$T107382
PUBLIC	??0?$ostreambuf_iterator@DU?$char_traits@D@std@@@std@@QEAA@PEAV?$basic_streambuf@DU?$char_traits@D@std@@@1@@Z ; std::ostreambuf_iterator<char,std::char_traits<char> >::ostreambuf_iterator<char,std::char_traits<char> >
PUBLIC	?rdbuf@?$basic_ios@DU?$char_traits@D@std@@@std@@QEBAPEAV?$basic_streambuf@DU?$char_traits@D@std@@@2@XZ ; std::basic_ios<char,std::char_traits<char> >::rdbuf
PUBLIC	?fill@?$basic_ios@DU?$char_traits@D@std@@@std@@QEBADXZ ; std::basic_ios<char,std::char_traits<char> >::fill
PUBLIC	?flags@ios_base@std@@QEBAHXZ			; std::ios_base::flags
PUBLIC	??1locale@std@@QEAA@XZ				; std::locale::~locale
PUBLIC	??$use_facet@V?$num_put@DV?$ostreambuf_iterator@DU?$char_traits@D@std@@@std@@@std@@@std@@YAAEBV?$num_put@DV?$ostreambuf_iterator@DU?$char_traits@D@std@@@std@@@0@AEBVlocale@0@@Z ; std::use_facet<std::num_put<char,std::ostreambuf_iterator<char,std::char_traits<char> > > >
PUBLIC	?getloc@ios_base@std@@QEBA?AVlocale@2@XZ	; std::ios_base::getloc
PUBLIC	??Bsentry@?$basic_ostream@DU?$char_traits@D@std@@@std@@QEBAPEQ_Bool_struct@2@HXZ ; std::basic_ostream<char,std::char_traits<char> >::sentry::operator int std::_Bool_struct::* __ptr64
PUBLIC	??0sentry@?$basic_ostream@DU?$char_traits@D@std@@@std@@QEAA@AEAV12@@Z ; std::basic_ostream<char,std::char_traits<char> >::sentry::sentry
;	COMDAT pdata
pdata	SEGMENT
$pdata$??6?$basic_ostream@DU?$char_traits@D@std@@@std@@QEAAAEAV01@H@Z DD imagerel $LN17
	DD	imagerel $LN17+695
	DD	imagerel $unwind$??6?$basic_ostream@DU?$char_traits@D@std@@@std@@QEAAAEAV01@H@Z
pdata	ENDS
;	COMDAT pdata
pdata	SEGMENT
$pdata$?dtor$0@?0???6?$basic_ostream@DU?$char_traits@D@std@@@std@@QEAAAEAV01@H@Z@4HA DD imagerel ?dtor$0@?0???6?$basic_ostream@DU?$char_traits@D@std@@@std@@QEAAAEAV01@H@Z@4HA
	DD	imagerel ?dtor$0@?0???6?$basic_ostream@DU?$char_traits@D@std@@@std@@QEAAAEAV01@H@Z@4HA+35
	DD	imagerel $unwind$?dtor$0@?0???6?$basic_ostream@DU?$char_traits@D@std@@@std@@QEAAAEAV01@H@Z@4HA
pdata	ENDS
;	COMDAT pdata
pdata	SEGMENT
$pdata$?dtor$1@?0???6?$basic_ostream@DU?$char_traits@D@std@@@std@@QEAAAEAV01@H@Z@4HA DD imagerel ?dtor$1@?0???6?$basic_ostream@DU?$char_traits@D@std@@@std@@QEAAAEAV01@H@Z@4HA
	DD	imagerel ?dtor$1@?0???6?$basic_ostream@DU?$char_traits@D@std@@@std@@QEAAAEAV01@H@Z@4HA+35
	DD	imagerel $unwind$?dtor$1@?0???6?$basic_ostream@DU?$char_traits@D@std@@@std@@QEAAAEAV01@H@Z@4HA
pdata	ENDS
;	COMDAT pdata
pdata	SEGMENT
$pdata$?catch$0@?0???6?$basic_ostream@DU?$char_traits@D@std@@@std@@QEAAAEAV01@H@Z@4HA DD imagerel ?catch$0@?0???6?$basic_ostream@DU?$char_traits@D@std@@@std@@QEAAAEAV01@H@Z@4HA
	DD	imagerel ?catch$0@?0???6?$basic_ostream@DU?$char_traits@D@std@@@std@@QEAAAEAV01@H@Z@4HA+78
	DD	imagerel $unwind$?catch$0@?0???6?$basic_ostream@DU?$char_traits@D@std@@@std@@QEAAAEAV01@H@Z@4HA
pdata	ENDS
;	COMDAT xdata
xdata	SEGMENT
$ip2state$??6?$basic_ostream@DU?$char_traits@D@std@@@std@@QEAAAEAV01@H@Z DD imagerel ??6?$basic_ostream@DU?$char_traits@D@std@@@std@@QEAAAEAV01@H@Z
	DD	0ffffffffH
	DD	imagerel ??6?$basic_ostream@DU?$char_traits@D@std@@@std@@QEAAAEAV01@H@Z+80
	DD	00H
	DD	imagerel ??6?$basic_ostream@DU?$char_traits@D@std@@@std@@QEAAAEAV01@H@Z+165
	DD	01H
	DD	imagerel ??6?$basic_ostream@DU?$char_traits@D@std@@@std@@QEAAAEAV01@H@Z+183
	DD	00H
	DD	imagerel ??6?$basic_ostream@DU?$char_traits@D@std@@@std@@QEAAAEAV01@H@Z+300
	DD	02H
	DD	imagerel ??6?$basic_ostream@DU?$char_traits@D@std@@@std@@QEAAAEAV01@H@Z+586
	DD	00H
	DD	imagerel ??6?$basic_ostream@DU?$char_traits@D@std@@@std@@QEAAAEAV01@H@Z+646
	DD	0ffffffffH
	DD	imagerel ?catch$0@?0???6?$basic_ostream@DU?$char_traits@D@std@@@std@@QEAAAEAV01@H@Z@4HA
	DD	00H
	DD	imagerel ?catch$0@?0???6?$basic_ostream@DU?$char_traits@D@std@@@std@@QEAAAEAV01@H@Z@4HA+19
	DD	03H
	DD	imagerel ?catch$0@?0???6?$basic_ostream@DU?$char_traits@D@std@@@std@@QEAAAEAV01@H@Z@4HA+63
	DD	00H
xdata	ENDS
;	COMDAT xdata
xdata	SEGMENT
$unwind$?catch$0@?0???6?$basic_ostream@DU?$char_traits@D@std@@@std@@QEAAAEAV01@H@Z@4HA DD 031019H
	DD	0700c6210H
	DD	0500bH
	DD	imagerel __CxxFrameHandler3
	DD	imagerel $cppxdata$??6?$basic_ostream@DU?$char_traits@D@std@@@std@@QEAAAEAV01@H@Z
xdata	ENDS
;	COMDAT xdata
xdata	SEGMENT
$unwind$?dtor$1@?0???6?$basic_ostream@DU?$char_traits@D@std@@@std@@QEAAAEAV01@H@Z@4HA DD 031001H
	DD	0700c4210H
	DD	0500bH
xdata	ENDS
;	COMDAT xdata
xdata	SEGMENT
$unwind$?dtor$0@?0???6?$basic_ostream@DU?$char_traits@D@std@@@std@@QEAAAEAV01@H@Z@4HA DD 031001H
	DD	0700c4210H
	DD	0500bH
xdata	ENDS
;	COMDAT xdata
xdata	SEGMENT
$unwind$??6?$basic_ostream@DU?$char_traits@D@std@@@std@@QEAAAEAV01@H@Z DD 043519H
	DD	0210112H
	DD	0600a700bH
	DD	imagerel __CxxFrameHandler3
	DD	imagerel $cppxdata$??6?$basic_ostream@DU?$char_traits@D@std@@@std@@QEAAAEAV01@H@Z
xdata	ENDS
;	COMDAT xdata
xdata	SEGMENT
$tryMap$??6?$basic_ostream@DU?$char_traits@D@std@@@std@@QEAAAEAV01@H@Z DD 02H
	DD	02H
	DD	03H
	DD	01H
	DD	imagerel $handlerMap$0$??6?$basic_ostream@DU?$char_traits@D@std@@@std@@QEAAAEAV01@H@Z
xdata	ENDS
;	COMDAT xdata
xdata	SEGMENT
$handlerMap$0$??6?$basic_ostream@DU?$char_traits@D@std@@@std@@QEAAAEAV01@H@Z DD 040H
	DD	00H
	DD	00H
	DD	imagerel ?catch$0@?0???6?$basic_ostream@DU?$char_traits@D@std@@@std@@QEAAAEAV01@H@Z@4HA
	DD	058H
xdata	ENDS
;	COMDAT xdata
xdata	SEGMENT
$stateUnwindMap$??6?$basic_ostream@DU?$char_traits@D@std@@@std@@QEAAAEAV01@H@Z DD 0ffffffffH
	DD	imagerel ?dtor$0@?0???6?$basic_ostream@DU?$char_traits@D@std@@@std@@QEAAAEAV01@H@Z@4HA
	DD	00H
	DD	imagerel ?dtor$1@?0???6?$basic_ostream@DU?$char_traits@D@std@@@std@@QEAAAEAV01@H@Z@4HA
	DD	00H
	DD	00H
	DD	00H
	DD	00H
xdata	ENDS
;	COMDAT CONST
CONST	SEGMENT
??6?$basic_ostream@DU?$char_traits@D@std@@@std@@QEAAAEAV01@H@Z$rtcName$0 DB 05fH ; std::basic_ostream<char,std::char_traits<char> >::operator<<
	DB	04fH
	DB	06bH
	DB	00H
	ORG $+12
??6?$basic_ostream@DU?$char_traits@D@std@@@std@@QEAAAEAV01@H@Z$rtcVarDesc DD 048H ; std::basic_ostream<char,std::char_traits<char> >::operator<<
	DD	010H
	DQ	FLAT:??6?$basic_ostream@DU?$char_traits@D@std@@@std@@QEAAAEAV01@H@Z$rtcName$0
	ORG $+48
??6?$basic_ostream@DU?$char_traits@D@std@@@std@@QEAAAEAV01@H@Z$rtcFrameData DD 01H ; std::basic_ostream<char,std::char_traits<char> >::operator<<
	DD	00H
	DQ	FLAT:??6?$basic_ostream@DU?$char_traits@D@std@@@std@@QEAAAEAV01@H@Z$rtcVarDesc
$cppxdata$??6?$basic_ostream@DU?$char_traits@D@std@@@std@@QEAAAEAV01@H@Z DD 019930522H
	DD	04H
	DD	imagerel $stateUnwindMap$??6?$basic_ostream@DU?$char_traits@D@std@@@std@@QEAAAEAV01@H@Z
	DD	01H
	DD	imagerel $tryMap$??6?$basic_ostream@DU?$char_traits@D@std@@@std@@QEAAAEAV01@H@Z
	DD	0aH
	DD	imagerel $ip2state$??6?$basic_ostream@DU?$char_traits@D@std@@@std@@QEAAAEAV01@H@Z
	DD	0c0H
	DD	00H
	DD	01H
; Function compile flags: /Odtp /RTCsu
CONST	ENDS
;	COMDAT ??6?$basic_ostream@DU?$char_traits@D@std@@@std@@QEAAAEAV01@H@Z
_TEXT	SEGMENT
_State$ = 48
_Ok$ = 72
_Nput_fac$97179 = 104
_Bfl$97186 = 112
_Tmp$97187 = 116
$T107374 = 120
$T107379 = 128
$T107380 = 144
$T107381 = 160
$T107382 = 176
$T107394 = 192
tv65 = 200
tv215 = 208
tv135 = 216
tv163 = 224
tv218 = 232
tv219 = 240
tv220 = 248
this$ = 288
_Val$ = 296
??6?$basic_ostream@DU?$char_traits@D@std@@@std@@QEAAAEAV01@H@Z PROC ; std::basic_ostream<char,std::char_traits<char> >::operator<<, COMDAT
; Line 281
$LN17:
	mov	DWORD PTR [rsp+16], edx
	mov	QWORD PTR [rsp+8], rcx
	push	rsi
	push	rdi
	sub	rsp, 264				; 00000108H
	mov	rdi, rsp
	mov	ecx, 66					; 00000042H
	mov	eax, -858993460				; ccccccccH
	rep stosd
	mov	rcx, QWORD PTR [rsp+288]
	mov	QWORD PTR $T107394[rsp], -2
; Line 282
	mov	DWORD PTR _State$[rsp], 0
; Line 283
	mov	rdx, QWORD PTR this$[rsp]
	lea	rcx, QWORD PTR _Ok$[rsp]
	call	??0sentry@?$basic_ostream@DU?$char_traits@D@std@@@std@@QEAA@AEAV12@@Z ; std::basic_ostream<char,std::char_traits<char> >::sentry::sentry
	npad	1
; Line 285
	lea	rcx, QWORD PTR _Ok$[rsp]
	call	??Bsentry@?$basic_ostream@DU?$char_traits@D@std@@@std@@QEBAPEQ_Bool_struct@2@HXZ ; std::basic_ostream<char,std::char_traits<char> >::sentry::operator int std::_Bool_struct::* __ptr64
	cmp	eax, -1
	je	$LN15@operator@3
; Line 287
	mov	rax, QWORD PTR this$[rsp]
	mov	rax, QWORD PTR [rax]
	movsxd	rax, DWORD PTR [rax+4]
	mov	rcx, QWORD PTR this$[rsp]
	add	rcx, rax
	mov	rax, rcx
	lea	rdx, QWORD PTR $T107374[rsp]
	mov	rcx, rax
	call	?getloc@ios_base@std@@QEBA?AVlocale@2@XZ ; std::ios_base::getloc
	mov	QWORD PTR tv65[rsp], rax
	mov	rax, QWORD PTR tv65[rsp]
	mov	QWORD PTR tv215[rsp], rax
	mov	rcx, QWORD PTR tv215[rsp]
	call	??$use_facet@V?$num_put@DV?$ostreambuf_iterator@DU?$char_traits@D@std@@@std@@@std@@@std@@YAAEBV?$num_put@DV?$ostreambuf_iterator@DU?$char_traits@D@std@@@std@@@0@AEBVlocale@0@@Z ; std::use_facet<std::num_put<char,std::ostreambuf_iterator<char,std::char_traits<char> > > >
	mov	QWORD PTR _Nput_fac$97179[rsp], rax
	lea	rcx, QWORD PTR $T107374[rsp]
	call	??1locale@std@@QEAA@XZ			; std::locale::~locale
; Line 289
	mov	rax, QWORD PTR this$[rsp]
	mov	rax, QWORD PTR [rax]
	movsxd	rax, DWORD PTR [rax+4]
	mov	rcx, QWORD PTR this$[rsp]
	add	rcx, rax
	mov	rax, rcx
	mov	rcx, rax
	call	?flags@ios_base@std@@QEBAHXZ		; std::ios_base::flags
	and	eax, 3584				; 00000e00H
	mov	DWORD PTR _Bfl$97186[rsp], eax
; Line 292
	cmp	DWORD PTR _Bfl$97186[rsp], 1024		; 00000400H
	je	SHORT $LN6@operator@3
	cmp	DWORD PTR _Bfl$97186[rsp], 2048		; 00000800H
	je	SHORT $LN6@operator@3
	mov	eax, DWORD PTR _Val$[rsp]
	mov	DWORD PTR tv135[rsp], eax
	jmp	SHORT $LN7@operator@3
$LN6@operator@3:
	mov	eax, DWORD PTR _Val$[rsp]
	mov	DWORD PTR tv135[rsp], eax
$LN7@operator@3:
	mov	eax, DWORD PTR tv135[rsp]
	mov	DWORD PTR _Tmp$97187[rsp], eax
; Line 296
	cmp	QWORD PTR this$[rsp], 0
	jne	SHORT $LN8@operator@3
	mov	QWORD PTR tv163[rsp], 0
	jmp	SHORT $LN9@operator@3
$LN8@operator@3:
	mov	rax, QWORD PTR this$[rsp]
	mov	rax, QWORD PTR [rax]
	movsxd	rax, DWORD PTR [rax+4]
	mov	rcx, QWORD PTR this$[rsp]
	add	rcx, rax
	mov	rax, rcx
	mov	QWORD PTR tv163[rsp], rax
$LN9@operator@3:
	mov	rax, QWORD PTR this$[rsp]
	mov	rax, QWORD PTR [rax]
	movsxd	rax, DWORD PTR [rax+4]
	mov	rcx, QWORD PTR this$[rsp]
	add	rcx, rax
	mov	rax, rcx
	mov	rcx, rax
	call	?fill@?$basic_ios@DU?$char_traits@D@std@@@std@@QEBADXZ ; std::basic_ios<char,std::char_traits<char> >::fill
	mov	BYTE PTR tv218[rsp], al
	mov	rax, QWORD PTR this$[rsp]
	mov	rax, QWORD PTR [rax]
	movsxd	rax, DWORD PTR [rax+4]
	mov	rcx, QWORD PTR this$[rsp]
	add	rcx, rax
	mov	rax, rcx
	mov	rcx, rax
	call	?rdbuf@?$basic_ios@DU?$char_traits@D@std@@@std@@QEBAPEAV?$basic_streambuf@DU?$char_traits@D@std@@@2@XZ ; std::basic_ios<char,std::char_traits<char> >::rdbuf
	mov	QWORD PTR tv219[rsp], rax
	mov	rdx, QWORD PTR tv219[rsp]
	lea	rcx, QWORD PTR $T107379[rsp]
	call	??0?$ostreambuf_iterator@DU?$char_traits@D@std@@@std@@QEAA@PEAV?$basic_streambuf@DU?$char_traits@D@std@@@1@@Z ; std::ostreambuf_iterator<char,std::char_traits<char> >::ostreambuf_iterator<char,std::char_traits<char> >
	lea	rcx, QWORD PTR $T107382[rsp]
	mov	rdi, rcx
	mov	rsi, rax
	mov	ecx, 16
	rep movsb
	mov	eax, DWORD PTR _Tmp$97187[rsp]
	mov	DWORD PTR [rsp+40], eax
	movzx	eax, BYTE PTR tv218[rsp]
	mov	BYTE PTR [rsp+32], al
	mov	r9, QWORD PTR tv163[rsp]
	lea	r8, QWORD PTR $T107382[rsp]
	lea	rdx, QWORD PTR $T107380[rsp]
	mov	rcx, QWORD PTR _Nput_fac$97179[rsp]
	call	?put@?$num_put@DV?$ostreambuf_iterator@DU?$char_traits@D@std@@@std@@@std@@QEBA?AV?$ostreambuf_iterator@DU?$char_traits@D@std@@@2@V32@AEAVios_base@2@DJ@Z ; std::num_put<char,std::ostreambuf_iterator<char,std::char_traits<char> > >::put
	mov	QWORD PTR tv220[rsp], rax
	mov	rcx, QWORD PTR tv220[rsp]
	call	?failed@?$ostreambuf_iterator@DU?$char_traits@D@std@@@std@@QEBA_NXZ ; std::ostreambuf_iterator<char,std::char_traits<char> >::failed
	movzx	eax, al
	test	eax, eax
	je	SHORT $LN1@operator@3
; Line 297
	mov	eax, DWORD PTR _State$[rsp]
	or	eax, 4
	mov	DWORD PTR _State$[rsp], eax
$LN1@operator@3:
$LN15@operator@3:
; Line 301
	mov	rax, QWORD PTR this$[rsp]
	mov	rax, QWORD PTR [rax]
	movsxd	rax, DWORD PTR [rax+4]
	mov	rcx, QWORD PTR this$[rsp]
	add	rcx, rax
	mov	rax, rcx
	xor	r8d, r8d
	mov	edx, DWORD PTR _State$[rsp]
	mov	rcx, rax
	call	?setstate@?$basic_ios@DU?$char_traits@D@std@@@std@@QEAAXH_N@Z ; std::basic_ios<char,std::char_traits<char> >::setstate
; Line 302
	mov	rax, QWORD PTR this$[rsp]
	mov	QWORD PTR $T107381[rsp], rax
	lea	rcx, QWORD PTR _Ok$[rsp]
	call	??1sentry@?$basic_ostream@DU?$char_traits@D@std@@@std@@QEAA@XZ ; std::basic_ostream<char,std::char_traits<char> >::sentry::~sentry
	mov	rax, QWORD PTR $T107381[rsp]
; Line 303
	mov	rdi, rax
	mov	rcx, rsp
	lea	rdx, OFFSET FLAT:??6?$basic_ostream@DU?$char_traits@D@std@@@std@@QEAAAEAV01@H@Z$rtcFrameData
	call	_RTC_CheckStackVars
	mov	rax, rdi
	add	rsp, 264				; 00000108H
	pop	rdi
	pop	rsi
	ret	0
??6?$basic_ostream@DU?$char_traits@D@std@@@std@@QEAAAEAV01@H@Z ENDP ; std::basic_ostream<char,std::char_traits<char> >::operator<<
; Function compile flags: /Odtp /RTCsu
_TEXT	ENDS
;	COMDAT text$x
text$x	SEGMENT
_State$ = 48
_Ok$ = 72
_Nput_fac$97179 = 104
_Bfl$97186 = 112
_Tmp$97187 = 116
$T107374 = 120
$T107379 = 128
$T107380 = 144
$T107381 = 160
$T107382 = 176
$T107394 = 192
tv65 = 200
tv215 = 208
tv135 = 216
tv163 = 224
tv218 = 232
tv219 = 240
tv220 = 248
this$ = 288
_Val$ = 296
?dtor$0@?0???6?$basic_ostream@DU?$char_traits@D@std@@@std@@QEAAAEAV01@H@Z@4HA PROC ; `std::basic_ostream<char,std::char_traits<char> >::operator<<'::`1'::dtor$0
	mov	QWORD PTR [rsp+8], rcx
	mov	QWORD PTR [rsp+16], rdx
	push	rbp
	push	rdi
	sub	rsp, 40					; 00000028H
	mov	rbp, rdx
	lea	rcx, QWORD PTR _Ok$[rbp]
	call	??1sentry@?$basic_ostream@DU?$char_traits@D@std@@@std@@QEAA@XZ ; std::basic_ostream<char,std::char_traits<char> >::sentry::~sentry
	add	rsp, 40					; 00000028H
	pop	rdi
	pop	rbp
	ret	0
?dtor$0@?0???6?$basic_ostream@DU?$char_traits@D@std@@@std@@QEAAAEAV01@H@Z@4HA ENDP ; `std::basic_ostream<char,std::char_traits<char> >::operator<<'::`1'::dtor$0
; Function compile flags: /Odtp /RTCsu
_State$ = 48
_Ok$ = 72
_Nput_fac$97179 = 104
_Bfl$97186 = 112
_Tmp$97187 = 116
$T107374 = 120
$T107379 = 128
$T107380 = 144
$T107381 = 160
$T107382 = 176
$T107394 = 192
tv65 = 200
tv215 = 208
tv135 = 216
tv163 = 224
tv218 = 232
tv219 = 240
tv220 = 248
this$ = 288
_Val$ = 296
?dtor$1@?0???6?$basic_ostream@DU?$char_traits@D@std@@@std@@QEAAAEAV01@H@Z@4HA PROC ; `std::basic_ostream<char,std::char_traits<char> >::operator<<'::`1'::dtor$1
	mov	QWORD PTR [rsp+8], rcx
	mov	QWORD PTR [rsp+16], rdx
	push	rbp
	push	rdi
	sub	rsp, 40					; 00000028H
	mov	rbp, rdx
	lea	rcx, QWORD PTR $T107374[rbp]
	call	??1locale@std@@QEAA@XZ			; std::locale::~locale
	add	rsp, 40					; 00000028H
	pop	rdi
	pop	rbp
	ret	0
?dtor$1@?0???6?$basic_ostream@DU?$char_traits@D@std@@@std@@QEAAAEAV01@H@Z@4HA ENDP ; `std::basic_ostream<char,std::char_traits<char> >::operator<<'::`1'::dtor$1
; Function compile flags: /Odtp /RTCsu
_State$ = 48
_Ok$ = 72
_Nput_fac$97179 = 104
_Bfl$97186 = 112
_Tmp$97187 = 116
$T107374 = 120
$T107379 = 128
$T107380 = 144
$T107381 = 160
$T107382 = 176
$T107394 = 192
tv65 = 200
tv215 = 208
tv135 = 216
tv163 = 224
tv218 = 232
tv219 = 240
tv220 = 248
this$ = 288
_Val$ = 296
?catch$0@?0???6?$basic_ostream@DU?$char_traits@D@std@@@std@@QEAAAEAV01@H@Z@4HA PROC ; `std::basic_ostream<char,std::char_traits<char> >::operator<<'::`1'::catch$0
; Line 298
	mov	QWORD PTR [rsp+8], rcx
	mov	QWORD PTR [rsp+16], rdx
	push	rbp
	push	rdi
	sub	rsp, 56					; 00000038H
	mov	rbp, rdx
__catch$??6?$basic_ostream@DU?$char_traits@D@std@@@std@@QEAAAEAV01@H@Z$0:
	mov	rax, QWORD PTR this$[rbp]
	mov	rax, QWORD PTR [rax]
	movsxd	rax, DWORD PTR [rax+4]
	mov	rcx, QWORD PTR this$[rbp]
	add	rcx, rax
	mov	rax, rcx
	mov	r8b, 1
	mov	edx, 4
	mov	rcx, rax
	call	?setstate@?$basic_ios@DU?$char_traits@D@std@@@std@@QEAAXH_N@Z ; std::basic_ios<char,std::char_traits<char> >::setstate
	npad	1
	lea	rax, $LN15@catch$0
	add	rsp, 56					; 00000038H
	pop	rdi
	pop	rbp
	ret	0
	int	3
?catch$0@?0???6?$basic_ostream@DU?$char_traits@D@std@@@std@@QEAAAEAV01@H@Z@4HA ENDP ; `std::basic_ostream<char,std::char_traits<char> >::operator<<'::`1'::catch$0
text$x	ENDS
PUBLIC	??$_DebugHeapDelete@Vfacet@locale@std@@@std@@YAXPEAVfacet@locale@0@@Z ; std::_DebugHeapDelete<std::locale::facet>
PUBLIC	?_Decref@facet@locale@std@@QEAAPEAV123@XZ	; std::locale::facet::_Decref
;	COMDAT pdata
; File c:\program files (x86)\microsoft visual studio 10.0\vc\include\xlocale
pdata	SEGMENT
$pdata$??1locale@std@@QEAA@XZ DD imagerel $LN4
	DD	imagerel $LN4+68
	DD	imagerel $unwind$??1locale@std@@QEAA@XZ
pdata	ENDS
;	COMDAT xdata
xdata	SEGMENT
$unwind$??1locale@std@@QEAA@XZ DD 021e01H
	DD	07006320aH
; Function compile flags: /Odtp /RTCsu
xdata	ENDS
;	COMDAT ??1locale@std@@QEAA@XZ
_TEXT	SEGMENT
this$ = 48
??1locale@std@@QEAA@XZ PROC				; std::locale::~locale, COMDAT
; Line 409
$LN4:
	mov	QWORD PTR [rsp+8], rcx
	push	rdi
	sub	rsp, 32					; 00000020H
	mov	rdi, rsp
	mov	ecx, 8
	mov	eax, -858993460				; ccccccccH
	rep stosd
	mov	rcx, QWORD PTR [rsp+48]
; Line 410
	mov	rax, QWORD PTR this$[rsp]
	cmp	QWORD PTR [rax], 0
	je	SHORT $LN1@locale
; Line 411
	mov	rax, QWORD PTR this$[rsp]
	mov	rcx, QWORD PTR [rax]
	call	?_Decref@facet@locale@std@@QEAAPEAV123@XZ ; std::locale::facet::_Decref
	mov	rcx, rax
	call	??$_DebugHeapDelete@Vfacet@locale@std@@@std@@YAXPEAVfacet@locale@0@@Z ; std::_DebugHeapDelete<std::locale::facet>
$LN1@locale:
; Line 412
	add	rsp, 32					; 00000020H
	pop	rdi
	ret	0
??1locale@std@@QEAA@XZ ENDP				; std::locale::~locale
_TEXT	ENDS
EXTRN	??1_Lockit@std@@QEAA@XZ:PROC			; std::_Lockit::~_Lockit
EXTRN	??0_Lockit@std@@QEAA@H@Z:PROC			; std::_Lockit::_Lockit
;	COMDAT pdata
pdata	SEGMENT
$pdata$?_Decref@facet@locale@std@@QEAAPEAV123@XZ DD imagerel $LN7
	DD	imagerel $LN7+172
	DD	imagerel $unwind$?_Decref@facet@locale@std@@QEAAPEAV123@XZ
pdata	ENDS
;	COMDAT xdata
xdata	SEGMENT
$unwind$?_Decref@facet@locale@std@@QEAAPEAV123@XZ DD 021e01H
	DD	07006920aH
xdata	ENDS
;	COMDAT CONST
CONST	SEGMENT
?_Decref@facet@locale@std@@QEAAPEAV123@XZ$rtcName$0 DB 05fH ; std::locale::facet::_Decref
	DB	04cH
	DB	06fH
	DB	063H
	DB	06bH
	DB	00H
	ORG $+10
?_Decref@facet@locale@std@@QEAAPEAV123@XZ$rtcVarDesc DD 024H ; std::locale::facet::_Decref
	DD	04H
	DQ	FLAT:?_Decref@facet@locale@std@@QEAAPEAV123@XZ$rtcName$0
	ORG $+48
?_Decref@facet@locale@std@@QEAAPEAV123@XZ$rtcFrameData DD 01H ; std::locale::facet::_Decref
	DD	00H
	DQ	FLAT:?_Decref@facet@locale@std@@QEAAPEAV123@XZ$rtcVarDesc
; Function compile flags: /Odtp /RTCsu
CONST	ENDS
;	COMDAT ?_Decref@facet@locale@std@@QEAAPEAV123@XZ
_TEXT	SEGMENT
_Lock$15724 = 36
$T107436 = 56
tv77 = 64
this$ = 96
?_Decref@facet@locale@std@@QEAAPEAV123@XZ PROC		; std::locale::facet::_Decref, COMDAT
; Line 119
$LN7:
	mov	QWORD PTR [rsp+8], rcx
	push	rdi
	sub	rsp, 80					; 00000050H
	mov	rdi, rsp
	mov	ecx, 20
	mov	eax, -858993460				; ccccccccH
	rep stosd
	mov	rcx, QWORD PTR [rsp+96]
; Line 120
	xor	edx, edx
	lea	rcx, QWORD PTR _Lock$15724[rsp]
	call	??0_Lockit@std@@QEAA@H@Z		; std::_Lockit::_Lockit
; Line 121
	mov	rax, QWORD PTR this$[rsp]
	cmp	QWORD PTR [rax+8], 0
	jbe	SHORT $LN1@Decref
	mov	rax, QWORD PTR this$[rsp]
	cmp	QWORD PTR [rax+8], -1
	jae	SHORT $LN1@Decref
; Line 122
	mov	rax, QWORD PTR this$[rsp]
	mov	rax, QWORD PTR [rax+8]
	dec	rax
	mov	rcx, QWORD PTR this$[rsp]
	mov	QWORD PTR [rcx+8], rax
$LN1@Decref:
; Line 123
	mov	rax, QWORD PTR this$[rsp]
	cmp	QWORD PTR [rax+8], 0
	jne	SHORT $LN4@Decref
	mov	rax, QWORD PTR this$[rsp]
	mov	QWORD PTR tv77[rsp], rax
	jmp	SHORT $LN5@Decref
$LN4@Decref:
	mov	QWORD PTR tv77[rsp], 0
$LN5@Decref:
	mov	rax, QWORD PTR tv77[rsp]
	mov	QWORD PTR $T107436[rsp], rax
	lea	rcx, QWORD PTR _Lock$15724[rsp]
	call	??1_Lockit@std@@QEAA@XZ			; std::_Lockit::~_Lockit
	mov	rax, QWORD PTR $T107436[rsp]
; Line 125
	mov	rdi, rax
	mov	rcx, rsp
	lea	rdx, OFFSET FLAT:?_Decref@facet@locale@std@@QEAAPEAV123@XZ$rtcFrameData
	call	_RTC_CheckStackVars
	mov	rax, rdi
	add	rsp, 80					; 00000050H
	pop	rdi
	ret	0
?_Decref@facet@locale@std@@QEAAPEAV123@XZ ENDP		; std::locale::facet::_Decref
_TEXT	ENDS
;	COMDAT pdata
; File c:\program files (x86)\microsoft visual studio 10.0\vc\include\xiosbase
pdata	SEGMENT
$pdata$?flags@ios_base@std@@QEBAHXZ DD imagerel $LN3
	DD	imagerel $LN3+16
	DD	imagerel $unwind$?flags@ios_base@std@@QEBAHXZ
pdata	ENDS
;	COMDAT xdata
xdata	SEGMENT
$unwind$?flags@ios_base@std@@QEBAHXZ DD 010601H
	DD	07006H
; Function compile flags: /Odtp /RTCsu
xdata	ENDS
;	COMDAT ?flags@ios_base@std@@QEBAHXZ
_TEXT	SEGMENT
this$ = 16
?flags@ios_base@std@@QEBAHXZ PROC			; std::ios_base::flags, COMDAT
; Line 394
$LN3:
	mov	QWORD PTR [rsp+8], rcx
	push	rdi
; Line 395
	mov	rax, QWORD PTR this$[rsp]
	mov	eax, DWORD PTR [rax+24]
; Line 396
	pop	rdi
	ret	0
?flags@ios_base@std@@QEBAHXZ ENDP			; std::ios_base::flags
_TEXT	ENDS
PUBLIC	??0locale@std@@QEAA@AEBV01@@Z			; std::locale::locale
;	COMDAT pdata
pdata	SEGMENT
$pdata$?getloc@ios_base@std@@QEBA?AVlocale@2@XZ DD imagerel $LN5
	DD	imagerel $LN5+84
	DD	imagerel $unwind$?getloc@ios_base@std@@QEBA?AVlocale@2@XZ
pdata	ENDS
;	COMDAT xdata
xdata	SEGMENT
$unwind$?getloc@ios_base@std@@QEBA?AVlocale@2@XZ DD 022301H
	DD	0700b520fH
; Function compile flags: /Odtp /RTCsu
xdata	ENDS
;	COMDAT ?getloc@ios_base@std@@QEBA?AVlocale@2@XZ
_TEXT	SEGMENT
$T107465 = 32
this$ = 64
__$ReturnUdt$ = 72
?getloc@ios_base@std@@QEBA?AVlocale@2@XZ PROC		; std::ios_base::getloc, COMDAT
; Line 451
$LN5:
	mov	QWORD PTR [rsp+16], rdx
	mov	QWORD PTR [rsp+8], rcx
	push	rdi
	sub	rsp, 48					; 00000030H
	mov	rdi, rsp
	mov	ecx, 12
	mov	eax, -858993460				; ccccccccH
	rep stosd
	mov	rcx, QWORD PTR [rsp+64]
	mov	DWORD PTR $T107465[rsp], 0
; Line 452
	mov	rax, QWORD PTR this$[rsp]
	mov	rdx, QWORD PTR [rax+64]
	mov	rcx, QWORD PTR __$ReturnUdt$[rsp]
	call	??0locale@std@@QEAA@AEBV01@@Z		; std::locale::locale
	mov	eax, DWORD PTR $T107465[rsp]
	or	eax, 1
	mov	DWORD PTR $T107465[rsp], eax
	mov	rax, QWORD PTR __$ReturnUdt$[rsp]
; Line 453
	add	rsp, 48					; 00000030H
	pop	rdi
	ret	0
?getloc@ios_base@std@@QEBA?AVlocale@2@XZ ENDP		; std::ios_base::getloc
_TEXT	ENDS
PUBLIC	?_Incref@facet@locale@std@@QEAAXXZ		; std::locale::facet::_Incref
;	COMDAT pdata
; File c:\program files (x86)\microsoft visual studio 10.0\vc\include\xlocale
pdata	SEGMENT
$pdata$??0locale@std@@QEAA@AEBV01@@Z DD imagerel $LN3
	DD	imagerel $LN3+75
	DD	imagerel $unwind$??0locale@std@@QEAA@AEBV01@@Z
pdata	ENDS
;	COMDAT xdata
xdata	SEGMENT
$unwind$??0locale@std@@QEAA@AEBV01@@Z DD 022301H
	DD	0700b320fH
; Function compile flags: /Odtp /RTCsu
xdata	ENDS
;	COMDAT ??0locale@std@@QEAA@AEBV01@@Z
_TEXT	SEGMENT
this$ = 48
_Right$ = 56
??0locale@std@@QEAA@AEBV01@@Z PROC			; std::locale::locale, COMDAT
; Line 309
$LN3:
	mov	QWORD PTR [rsp+16], rdx
	mov	QWORD PTR [rsp+8], rcx
	push	rdi
	sub	rsp, 32					; 00000020H
	mov	rdi, rsp
	mov	ecx, 8
	mov	eax, -858993460				; ccccccccH
	rep stosd
	mov	rcx, QWORD PTR [rsp+48]
	mov	rax, QWORD PTR this$[rsp]
	mov	rcx, QWORD PTR _Right$[rsp]
	mov	rcx, QWORD PTR [rcx]
	mov	QWORD PTR [rax], rcx
; Line 310
	mov	rax, QWORD PTR this$[rsp]
	mov	rcx, QWORD PTR [rax]
	call	?_Incref@facet@locale@std@@QEAAXXZ	; std::locale::facet::_Incref
; Line 311
	mov	rax, QWORD PTR this$[rsp]
	add	rsp, 32					; 00000020H
	pop	rdi
	ret	0
??0locale@std@@QEAA@AEBV01@@Z ENDP			; std::locale::locale
_TEXT	ENDS
;	COMDAT pdata
pdata	SEGMENT
$pdata$?_Incref@facet@locale@std@@QEAAXXZ DD imagerel $LN5
	DD	imagerel $LN5+106
	DD	imagerel $unwind$?_Incref@facet@locale@std@@QEAAXXZ
pdata	ENDS
;	COMDAT xdata
xdata	SEGMENT
$unwind$?_Incref@facet@locale@std@@QEAAXXZ DD 021e01H
	DD	07006720aH
xdata	ENDS
;	COMDAT CONST
CONST	SEGMENT
?_Incref@facet@locale@std@@QEAAXXZ$rtcName$0 DB 05fH	; std::locale::facet::_Incref
	DB	04cH
	DB	06fH
	DB	063H
	DB	06bH
	DB	00H
	ORG $+10
?_Incref@facet@locale@std@@QEAAXXZ$rtcVarDesc DD 024H	; std::locale::facet::_Incref
	DD	04H
	DQ	FLAT:?_Incref@facet@locale@std@@QEAAXXZ$rtcName$0
	ORG $+48
?_Incref@facet@locale@std@@QEAAXXZ$rtcFrameData DD 01H	; std::locale::facet::_Incref
	DD	00H
	DQ	FLAT:?_Incref@facet@locale@std@@QEAAXXZ$rtcVarDesc
; Function compile flags: /Odtp /RTCsu
CONST	ENDS
;	COMDAT ?_Incref@facet@locale@std@@QEAAXXZ
_TEXT	SEGMENT
_Lock$15719 = 36
this$ = 80
?_Incref@facet@locale@std@@QEAAXXZ PROC			; std::locale::facet::_Incref, COMDAT
; Line 111
$LN5:
	mov	QWORD PTR [rsp+8], rcx
	push	rdi
	sub	rsp, 64					; 00000040H
	mov	rdi, rsp
	mov	ecx, 16
	mov	eax, -858993460				; ccccccccH
	rep stosd
	mov	rcx, QWORD PTR [rsp+80]
; Line 112
	xor	edx, edx
	lea	rcx, QWORD PTR _Lock$15719[rsp]
	call	??0_Lockit@std@@QEAA@H@Z		; std::_Lockit::_Lockit
; Line 113
	mov	rax, QWORD PTR this$[rsp]
	cmp	QWORD PTR [rax+8], -1
	jae	SHORT $LN1@Incref
; Line 114
	mov	rax, QWORD PTR this$[rsp]
	mov	rax, QWORD PTR [rax+8]
	inc	rax
	mov	rcx, QWORD PTR this$[rsp]
	mov	QWORD PTR [rcx+8], rax
$LN1@Incref:
; Line 115
	lea	rcx, QWORD PTR _Lock$15719[rsp]
	call	??1_Lockit@std@@QEAA@XZ			; std::_Lockit::~_Lockit
; Line 116
	mov	rcx, rsp
	lea	rdx, OFFSET FLAT:?_Incref@facet@locale@std@@QEAAXXZ$rtcFrameData
	call	_RTC_CheckStackVars
	add	rsp, 64					; 00000040H
	pop	rdi
	ret	0
?_Incref@facet@locale@std@@QEAAXXZ ENDP			; std::locale::facet::_Incref
_TEXT	ENDS
PUBLIC	?put@?$num_put@DV?$ostreambuf_iterator@DU?$char_traits@D@std@@@std@@@std@@QEBA?AV?$ostreambuf_iterator@DU?$char_traits@D@std@@@2@V32@AEAVios_base@2@DK@Z ; std::num_put<char,std::ostreambuf_iterator<char,std::char_traits<char> > >::put
PUBLIC	$T107502
;	COMDAT pdata
; File c:\program files (x86)\microsoft visual studio 10.0\vc\include\ostream
pdata	SEGMENT
$pdata$??6?$basic_ostream@DU?$char_traits@D@std@@@std@@QEAAAEAV01@I@Z DD imagerel $LN15
	DD	imagerel $LN15+589
	DD	imagerel $unwind$??6?$basic_ostream@DU?$char_traits@D@std@@@std@@QEAAAEAV01@I@Z
pdata	ENDS
;	COMDAT pdata
pdata	SEGMENT
$pdata$?dtor$0@?0???6?$basic_ostream@DU?$char_traits@D@std@@@std@@QEAAAEAV01@I@Z@4HA DD imagerel ?dtor$0@?0???6?$basic_ostream@DU?$char_traits@D@std@@@std@@QEAAAEAV01@I@Z@4HA
	DD	imagerel ?dtor$0@?0???6?$basic_ostream@DU?$char_traits@D@std@@@std@@QEAAAEAV01@I@Z@4HA+35
	DD	imagerel $unwind$?dtor$0@?0???6?$basic_ostream@DU?$char_traits@D@std@@@std@@QEAAAEAV01@I@Z@4HA
pdata	ENDS
;	COMDAT pdata
pdata	SEGMENT
$pdata$?dtor$1@?0???6?$basic_ostream@DU?$char_traits@D@std@@@std@@QEAAAEAV01@I@Z@4HA DD imagerel ?dtor$1@?0???6?$basic_ostream@DU?$char_traits@D@std@@@std@@QEAAAEAV01@I@Z@4HA
	DD	imagerel ?dtor$1@?0???6?$basic_ostream@DU?$char_traits@D@std@@@std@@QEAAAEAV01@I@Z@4HA+35
	DD	imagerel $unwind$?dtor$1@?0???6?$basic_ostream@DU?$char_traits@D@std@@@std@@QEAAAEAV01@I@Z@4HA
pdata	ENDS
;	COMDAT pdata
pdata	SEGMENT
$pdata$?catch$0@?0???6?$basic_ostream@DU?$char_traits@D@std@@@std@@QEAAAEAV01@I@Z@4HA DD imagerel ?catch$0@?0???6?$basic_ostream@DU?$char_traits@D@std@@@std@@QEAAAEAV01@I@Z@4HA
	DD	imagerel ?catch$0@?0???6?$basic_ostream@DU?$char_traits@D@std@@@std@@QEAAAEAV01@I@Z@4HA+78
	DD	imagerel $unwind$?catch$0@?0???6?$basic_ostream@DU?$char_traits@D@std@@@std@@QEAAAEAV01@I@Z@4HA
pdata	ENDS
;	COMDAT xdata
xdata	SEGMENT
$ip2state$??6?$basic_ostream@DU?$char_traits@D@std@@@std@@QEAAAEAV01@I@Z DD imagerel ??6?$basic_ostream@DU?$char_traits@D@std@@@std@@QEAAAEAV01@I@Z
	DD	0ffffffffH
	DD	imagerel ??6?$basic_ostream@DU?$char_traits@D@std@@@std@@QEAAAEAV01@I@Z+80
	DD	00H
	DD	imagerel ??6?$basic_ostream@DU?$char_traits@D@std@@@std@@QEAAAEAV01@I@Z+165
	DD	01H
	DD	imagerel ??6?$basic_ostream@DU?$char_traits@D@std@@@std@@QEAAAEAV01@I@Z+183
	DD	00H
	DD	imagerel ??6?$basic_ostream@DU?$char_traits@D@std@@@std@@QEAAAEAV01@I@Z+194
	DD	02H
	DD	imagerel ??6?$basic_ostream@DU?$char_traits@D@std@@@std@@QEAAAEAV01@I@Z+480
	DD	00H
	DD	imagerel ??6?$basic_ostream@DU?$char_traits@D@std@@@std@@QEAAAEAV01@I@Z+540
	DD	0ffffffffH
	DD	imagerel ?catch$0@?0???6?$basic_ostream@DU?$char_traits@D@std@@@std@@QEAAAEAV01@I@Z@4HA
	DD	00H
	DD	imagerel ?catch$0@?0???6?$basic_ostream@DU?$char_traits@D@std@@@std@@QEAAAEAV01@I@Z@4HA+19
	DD	03H
	DD	imagerel ?catch$0@?0???6?$basic_ostream@DU?$char_traits@D@std@@@std@@QEAAAEAV01@I@Z@4HA+63
	DD	00H
xdata	ENDS
;	COMDAT xdata
xdata	SEGMENT
$unwind$?catch$0@?0???6?$basic_ostream@DU?$char_traits@D@std@@@std@@QEAAAEAV01@I@Z@4HA DD 031019H
	DD	0700c6210H
	DD	0500bH
	DD	imagerel __CxxFrameHandler3
	DD	imagerel $cppxdata$??6?$basic_ostream@DU?$char_traits@D@std@@@std@@QEAAAEAV01@I@Z
xdata	ENDS
;	COMDAT xdata
xdata	SEGMENT
$unwind$?dtor$1@?0???6?$basic_ostream@DU?$char_traits@D@std@@@std@@QEAAAEAV01@I@Z@4HA DD 031001H
	DD	0700c4210H
	DD	0500bH
xdata	ENDS
;	COMDAT xdata
xdata	SEGMENT
