; Listing generated by Microsoft (R) Optimizing Compiler Version 16.00.40219.01 

include listing.inc

INCLUDELIB LIBCMTD
INCLUDELIB OLDNAMES

PUBLIC	?has_denorm@_Num_base@std@@2W4float_denorm_style@2@B ; std::_Num_base::has_denorm
PUBLIC	?has_denorm_loss@_Num_base@std@@2_NB		; std::_Num_base::has_denorm_loss
PUBLIC	?has_infinity@_Num_base@std@@2_NB		; std::_Num_base::has_infinity
PUBLIC	?has_quiet_NaN@_Num_base@std@@2_NB		; std::_Num_base::has_quiet_NaN
PUBLIC	?has_signaling_NaN@_Num_base@std@@2_NB		; std::_Num_base::has_signaling_NaN
PUBLIC	?is_bounded@_Num_base@std@@2_NB			; std::_Num_base::is_bounded
PUBLIC	?is_exact@_Num_base@std@@2_NB			; std::_Num_base::is_exact
PUBLIC	?is_iec559@_Num_base@std@@2_NB			; std::_Num_base::is_iec559
PUBLIC	?is_integer@_Num_base@std@@2_NB			; std::_Num_base::is_integer
PUBLIC	?is_modulo@_Num_base@std@@2_NB			; std::_Num_base::is_modulo
PUBLIC	?is_signed@_Num_base@std@@2_NB			; std::_Num_base::is_signed
PUBLIC	?is_specialized@_Num_base@std@@2_NB		; std::_Num_base::is_specialized
PUBLIC	?tinyness_before@_Num_base@std@@2_NB		; std::_Num_base::tinyness_before
PUBLIC	?traps@_Num_base@std@@2_NB			; std::_Num_base::traps
PUBLIC	?round_style@_Num_base@std@@2W4float_round_style@2@B ; std::_Num_base::round_style
PUBLIC	?digits@_Num_base@std@@2HB			; std::_Num_base::digits
PUBLIC	?digits10@_Num_base@std@@2HB			; std::_Num_base::digits10
PUBLIC	?max_digits10@_Num_base@std@@2HB		; std::_Num_base::max_digits10
PUBLIC	?max_exponent@_Num_base@std@@2HB		; std::_Num_base::max_exponent
PUBLIC	?max_exponent10@_Num_base@std@@2HB		; std::_Num_base::max_exponent10
PUBLIC	?min_exponent@_Num_base@std@@2HB		; std::_Num_base::min_exponent
PUBLIC	?min_exponent10@_Num_base@std@@2HB		; std::_Num_base::min_exponent10
PUBLIC	?radix@_Num_base@std@@2HB			; std::_Num_base::radix
PUBLIC	?is_bounded@_Num_int_base@std@@2_NB		; std::_Num_int_base::is_bounded
PUBLIC	?is_exact@_Num_int_base@std@@2_NB		; std::_Num_int_base::is_exact
PUBLIC	?is_integer@_Num_int_base@std@@2_NB		; std::_Num_int_base::is_integer
PUBLIC	?is_modulo@_Num_int_base@std@@2_NB		; std::_Num_int_base::is_modulo
PUBLIC	?is_specialized@_Num_int_base@std@@2_NB		; std::_Num_int_base::is_specialized
PUBLIC	?radix@_Num_int_base@std@@2HB			; std::_Num_int_base::radix
PUBLIC	?has_denorm@_Num_float_base@std@@2W4float_denorm_style@2@B ; std::_Num_float_base::has_denorm
PUBLIC	?has_denorm_loss@_Num_float_base@std@@2_NB	; std::_Num_float_base::has_denorm_loss
PUBLIC	?has_infinity@_Num_float_base@std@@2_NB		; std::_Num_float_base::has_infinity
PUBLIC	?has_quiet_NaN@_Num_float_base@std@@2_NB	; std::_Num_float_base::has_quiet_NaN
PUBLIC	?has_signaling_NaN@_Num_float_base@std@@2_NB	; std::_Num_float_base::has_signaling_NaN
PUBLIC	?is_bounded@_Num_float_base@std@@2_NB		; std::_Num_float_base::is_bounded
PUBLIC	?is_exact@_Num_float_base@std@@2_NB		; std::_Num_float_base::is_exact
PUBLIC	?is_iec559@_Num_float_base@std@@2_NB		; std::_Num_float_base::is_iec559
PUBLIC	?is_integer@_Num_float_base@std@@2_NB		; std::_Num_float_base::is_integer
PUBLIC	?is_modulo@_Num_float_base@std@@2_NB		; std::_Num_float_base::is_modulo
PUBLIC	?is_signed@_Num_float_base@std@@2_NB		; std::_Num_float_base::is_signed
PUBLIC	?is_specialized@_Num_float_base@std@@2_NB	; std::_Num_float_base::is_specialized
PUBLIC	?tinyness_before@_Num_float_base@std@@2_NB	; std::_Num_float_base::tinyness_before
PUBLIC	?traps@_Num_float_base@std@@2_NB		; std::_Num_float_base::traps
PUBLIC	?round_style@_Num_float_base@std@@2W4float_round_style@2@B ; std::_Num_float_base::round_style
PUBLIC	?radix@_Num_float_base@std@@2HB			; std::_Num_float_base::radix
PUBLIC	?is_signed@?$numeric_limits@D@std@@2_NB		; std::numeric_limits<char>::is_signed
PUBLIC	?digits@?$numeric_limits@D@std@@2HB		; std::numeric_limits<char>::digits
PUBLIC	?digits10@?$numeric_limits@D@std@@2HB		; std::numeric_limits<char>::digits10
PUBLIC	?max_digits10@?$numeric_limits@D@std@@2HB	; std::numeric_limits<char>::max_digits10
PUBLIC	?is_signed@?$numeric_limits@_W@std@@2_NB	; std::numeric_limits<wchar_t>::is_signed
PUBLIC	?digits@?$numeric_limits@_W@std@@2HB		; std::numeric_limits<wchar_t>::digits
PUBLIC	?digits10@?$numeric_limits@_W@std@@2HB		; std::numeric_limits<wchar_t>::digits10
PUBLIC	?max_digits10@?$numeric_limits@_W@std@@2HB	; std::numeric_limits<wchar_t>::max_digits10
PUBLIC	?is_modulo@?$numeric_limits@_N@std@@2_NB	; std::numeric_limits<bool>::is_modulo
PUBLIC	?is_signed@?$numeric_limits@_N@std@@2_NB	; std::numeric_limits<bool>::is_signed
PUBLIC	?digits@?$numeric_limits@_N@std@@2HB		; std::numeric_limits<bool>::digits
PUBLIC	?digits10@?$numeric_limits@_N@std@@2HB		; std::numeric_limits<bool>::digits10
PUBLIC	?max_digits10@?$numeric_limits@_N@std@@2HB	; std::numeric_limits<bool>::max_digits10
PUBLIC	?is_signed@?$numeric_limits@C@std@@2_NB		; std::numeric_limits<signed char>::is_signed
PUBLIC	?digits@?$numeric_limits@C@std@@2HB		; std::numeric_limits<signed char>::digits
PUBLIC	?digits10@?$numeric_limits@C@std@@2HB		; std::numeric_limits<signed char>::digits10
PUBLIC	?max_digits10@?$numeric_limits@C@std@@2HB	; std::numeric_limits<signed char>::max_digits10
PUBLIC	?is_signed@?$numeric_limits@E@std@@2_NB		; std::numeric_limits<unsigned char>::is_signed
PUBLIC	?digits@?$numeric_limits@E@std@@2HB		; std::numeric_limits<unsigned char>::digits
PUBLIC	?digits10@?$numeric_limits@E@std@@2HB		; std::numeric_limits<unsigned char>::digits10
PUBLIC	?max_digits10@?$numeric_limits@E@std@@2HB	; std::numeric_limits<unsigned char>::max_digits10
PUBLIC	?is_signed@?$numeric_limits@F@std@@2_NB		; std::numeric_limits<short>::is_signed
PUBLIC	?digits@?$numeric_limits@F@std@@2HB		; std::numeric_limits<short>::digits
PUBLIC	?digits10@?$numeric_limits@F@std@@2HB		; std::numeric_limits<short>::digits10
PUBLIC	?max_digits10@?$numeric_limits@F@std@@2HB	; std::numeric_limits<short>::max_digits10
PUBLIC	?is_signed@?$numeric_limits@G@std@@2_NB		; std::numeric_limits<unsigned short>::is_signed
PUBLIC	?digits@?$numeric_limits@G@std@@2HB		; std::numeric_limits<unsigned short>::digits
PUBLIC	?digits10@?$numeric_limits@G@std@@2HB		; std::numeric_limits<unsigned short>::digits10
PUBLIC	?max_digits10@?$numeric_limits@G@std@@2HB	; std::numeric_limits<unsigned short>::max_digits10
PUBLIC	?is_signed@?$numeric_limits@H@std@@2_NB		; std::numeric_limits<int>::is_signed
PUBLIC	?digits@?$numeric_limits@H@std@@2HB		; std::numeric_limits<int>::digits
PUBLIC	?digits10@?$numeric_limits@H@std@@2HB		; std::numeric_limits<int>::digits10
PUBLIC	?max_digits10@?$numeric_limits@H@std@@2HB	; std::numeric_limits<int>::max_digits10
PUBLIC	?is_signed@?$numeric_limits@I@std@@2_NB		; std::numeric_limits<unsigned int>::is_signed
PUBLIC	?digits@?$numeric_limits@I@std@@2HB		; std::numeric_limits<unsigned int>::digits
PUBLIC	?digits10@?$numeric_limits@I@std@@2HB		; std::numeric_limits<unsigned int>::digits10
PUBLIC	?max_digits10@?$numeric_limits@I@std@@2HB	; std::numeric_limits<unsigned int>::max_digits10
PUBLIC	?is_signed@?$numeric_limits@J@std@@2_NB		; std::numeric_limits<long>::is_signed
PUBLIC	?digits@?$numeric_limits@J@std@@2HB		; std::numeric_limits<long>::digits
PUBLIC	?digits10@?$numeric_limits@J@std@@2HB		; std::numeric_limits<long>::digits10
PUBLIC	?max_digits10@?$numeric_limits@J@std@@2HB	; std::numeric_limits<long>::max_digits10
PUBLIC	?is_signed@?$numeric_limits@K@std@@2_NB		; std::numeric_limits<unsigned long>::is_signed
PUBLIC	?digits@?$numeric_limits@K@std@@2HB		; std::numeric_limits<unsigned long>::digits
PUBLIC	?digits10@?$numeric_limits@K@std@@2HB		; std::numeric_limits<unsigned long>::digits10
PUBLIC	?max_digits10@?$numeric_limits@K@std@@2HB	; std::numeric_limits<unsigned long>::max_digits10
PUBLIC	?is_signed@?$numeric_limits@_J@std@@2_NB	; std::numeric_limits<__int64>::is_signed
PUBLIC	?digits@?$numeric_limits@_J@std@@2HB		; std::numeric_limits<__int64>::digits
PUBLIC	?digits10@?$numeric_limits@_J@std@@2HB		; std::numeric_limits<__int64>::digits10
PUBLIC	?max_digits10@?$numeric_limits@_J@std@@2HB	; std::numeric_limits<__int64>::max_digits10
PUBLIC	?is_signed@?$numeric_limits@_K@std@@2_NB	; std::numeric_limits<unsigned __int64>::is_signed
PUBLIC	?digits@?$numeric_limits@_K@std@@2HB		; std::numeric_limits<unsigned __int64>::digits
PUBLIC	?digits10@?$numeric_limits@_K@std@@2HB		; std::numeric_limits<unsigned __int64>::digits10
PUBLIC	?max_digits10@?$numeric_limits@_K@std@@2HB	; std::numeric_limits<unsigned __int64>::max_digits10
PUBLIC	?digits@?$numeric_limits@M@std@@2HB		; std::numeric_limits<float>::digits
PUBLIC	?digits10@?$numeric_limits@M@std@@2HB		; std::numeric_limits<float>::digits10
PUBLIC	?max_digits10@?$numeric_limits@M@std@@2HB	; std::numeric_limits<float>::max_digits10
PUBLIC	?max_exponent@?$numeric_limits@M@std@@2HB	; std::numeric_limits<float>::max_exponent
PUBLIC	?max_exponent10@?$numeric_limits@M@std@@2HB	; std::numeric_limits<float>::max_exponent10
PUBLIC	?min_exponent@?$numeric_limits@M@std@@2HB	; std::numeric_limits<float>::min_exponent
PUBLIC	?min_exponent10@?$numeric_limits@M@std@@2HB	; std::numeric_limits<float>::min_exponent10
PUBLIC	?digits@?$numeric_limits@N@std@@2HB		; std::numeric_limits<double>::digits
PUBLIC	?digits10@?$numeric_limits@N@std@@2HB		; std::numeric_limits<double>::digits10
PUBLIC	?max_digits10@?$numeric_limits@N@std@@2HB	; std::numeric_limits<double>::max_digits10
PUBLIC	?max_exponent@?$numeric_limits@N@std@@2HB	; std::numeric_limits<double>::max_exponent
PUBLIC	?max_exponent10@?$numeric_limits@N@std@@2HB	; std::numeric_limits<double>::max_exponent10
PUBLIC	?min_exponent@?$numeric_limits@N@std@@2HB	; std::numeric_limits<double>::min_exponent
PUBLIC	?min_exponent10@?$numeric_limits@N@std@@2HB	; std::numeric_limits<double>::min_exponent10
PUBLIC	?digits@?$numeric_limits@O@std@@2HB		; std::numeric_limits<long double>::digits
PUBLIC	?digits10@?$numeric_limits@O@std@@2HB		; std::numeric_limits<long double>::digits10
PUBLIC	?max_digits10@?$numeric_limits@O@std@@2HB	; std::numeric_limits<long double>::max_digits10
PUBLIC	?max_exponent@?$numeric_limits@O@std@@2HB	; std::numeric_limits<long double>::max_exponent
PUBLIC	?max_exponent10@?$numeric_limits@O@std@@2HB	; std::numeric_limits<long double>::max_exponent10
PUBLIC	?min_exponent@?$numeric_limits@O@std@@2HB	; std::numeric_limits<long double>::min_exponent
PUBLIC	?min_exponent10@?$numeric_limits@O@std@@2HB	; std::numeric_limits<long double>::min_exponent10
PUBLIC	?value@?$integral_constant@_N$0A@@tr1@std@@2_NB	; std::tr1::integral_constant<bool,0>::value
PUBLIC	?value@?$integral_constant@_N$00@tr1@std@@2_NB	; std::tr1::integral_constant<bool,1>::value
PUBLIC	?value@?$integral_constant@_K$0A@@tr1@std@@2_KB	; std::tr1::integral_constant<unsigned __int64,0>::value
PUBLIC	?_Rank@?$_Arithmetic_traits@_N@std@@2HB		; std::_Arithmetic_traits<bool>::_Rank
PUBLIC	?_Rank@?$_Arithmetic_traits@D@std@@2HB		; std::_Arithmetic_traits<char>::_Rank
PUBLIC	?_Rank@?$_Arithmetic_traits@C@std@@2HB		; std::_Arithmetic_traits<signed char>::_Rank
PUBLIC	?_Rank@?$_Arithmetic_traits@E@std@@2HB		; std::_Arithmetic_traits<unsigned char>::_Rank
PUBLIC	?_Rank@?$_Arithmetic_traits@F@std@@2HB		; std::_Arithmetic_traits<short>::_Rank
PUBLIC	?_Rank@?$_Arithmetic_traits@G@std@@2HB		; std::_Arithmetic_traits<unsigned short>::_Rank
PUBLIC	?_Rank@?$_Arithmetic_traits@H@std@@2HB		; std::_Arithmetic_traits<int>::_Rank
PUBLIC	?_Rank@?$_Arithmetic_traits@I@std@@2HB		; std::_Arithmetic_traits<unsigned int>::_Rank
PUBLIC	?_Rank@?$_Arithmetic_traits@J@std@@2HB		; std::_Arithmetic_traits<long>::_Rank
PUBLIC	?_Rank@?$_Arithmetic_traits@K@std@@2HB		; std::_Arithmetic_traits<unsigned long>::_Rank
PUBLIC	?_Rank@?$_Arithmetic_traits@_J@std@@2HB		; std::_Arithmetic_traits<__int64>::_Rank
PUBLIC	?_Rank@?$_Arithmetic_traits@_K@std@@2HB		; std::_Arithmetic_traits<unsigned __int64>::_Rank
PUBLIC	?_Rank@?$_Arithmetic_traits@M@std@@2HB		; std::_Arithmetic_traits<float>::_Rank
PUBLIC	?_Rank@?$_Arithmetic_traits@N@std@@2HB		; std::_Arithmetic_traits<double>::_Rank
PUBLIC	?_Rank@?$_Arithmetic_traits@O@std@@2HB		; std::_Arithmetic_traits<long double>::_Rank
PUBLIC	?collate@?$_Locbase@H@std@@2HB			; std::_Locbase<int>::collate
PUBLIC	?ctype@?$_Locbase@H@std@@2HB			; std::_Locbase<int>::ctype
PUBLIC	?monetary@?$_Locbase@H@std@@2HB			; std::_Locbase<int>::monetary
PUBLIC	?numeric@?$_Locbase@H@std@@2HB			; std::_Locbase<int>::numeric
PUBLIC	?time@?$_Locbase@H@std@@2HB			; std::_Locbase<int>::time
PUBLIC	?messages@?$_Locbase@H@std@@2HB			; std::_Locbase<int>::messages
PUBLIC	?all@?$_Locbase@H@std@@2HB			; std::_Locbase<int>::all
PUBLIC	?none@?$_Locbase@H@std@@2HB			; std::_Locbase<int>::none
PUBLIC	?table_size@?$ctype@D@std@@2_KB			; std::ctype<char>::table_size
PUBLIC	?skipws@?$_Iosb@H@std@@2W4_Fmtflags@12@B	; std::_Iosb<int>::skipws
PUBLIC	?unitbuf@?$_Iosb@H@std@@2W4_Fmtflags@12@B	; std::_Iosb<int>::unitbuf
PUBLIC	?uppercase@?$_Iosb@H@std@@2W4_Fmtflags@12@B	; std::_Iosb<int>::uppercase
PUBLIC	?showbase@?$_Iosb@H@std@@2W4_Fmtflags@12@B	; std::_Iosb<int>::showbase
PUBLIC	?showpoint@?$_Iosb@H@std@@2W4_Fmtflags@12@B	; std::_Iosb<int>::showpoint
PUBLIC	?showpos@?$_Iosb@H@std@@2W4_Fmtflags@12@B	; std::_Iosb<int>::showpos
PUBLIC	?left@?$_Iosb@H@std@@2W4_Fmtflags@12@B		; std::_Iosb<int>::left
PUBLIC	?right@?$_Iosb@H@std@@2W4_Fmtflags@12@B		; std::_Iosb<int>::right
PUBLIC	?internal@?$_Iosb@H@std@@2W4_Fmtflags@12@B	; std::_Iosb<int>::internal
PUBLIC	?dec@?$_Iosb@H@std@@2W4_Fmtflags@12@B		; std::_Iosb<int>::dec
PUBLIC	?oct@?$_Iosb@H@std@@2W4_Fmtflags@12@B		; std::_Iosb<int>::oct
PUBLIC	?hex@?$_Iosb@H@std@@2W4_Fmtflags@12@B		; std::_Iosb<int>::hex
PUBLIC	?scientific@?$_Iosb@H@std@@2W4_Fmtflags@12@B	; std::_Iosb<int>::scientific
PUBLIC	?fixed@?$_Iosb@H@std@@2W4_Fmtflags@12@B		; std::_Iosb<int>::fixed
PUBLIC	?hexfloat@?$_Iosb@H@std@@2W4_Fmtflags@12@B	; std::_Iosb<int>::hexfloat
PUBLIC	?boolalpha@?$_Iosb@H@std@@2W4_Fmtflags@12@B	; std::_Iosb<int>::boolalpha
PUBLIC	?_Stdio@?$_Iosb@H@std@@2W4_Fmtflags@12@B	; std::_Iosb<int>::_Stdio
PUBLIC	?adjustfield@?$_Iosb@H@std@@2W4_Fmtflags@12@B	; std::_Iosb<int>::adjustfield
PUBLIC	?basefield@?$_Iosb@H@std@@2W4_Fmtflags@12@B	; std::_Iosb<int>::basefield
PUBLIC	?floatfield@?$_Iosb@H@std@@2W4_Fmtflags@12@B	; std::_Iosb<int>::floatfield
PUBLIC	?goodbit@?$_Iosb@H@std@@2W4_Iostate@12@B	; std::_Iosb<int>::goodbit
PUBLIC	?eofbit@?$_Iosb@H@std@@2W4_Iostate@12@B		; std::_Iosb<int>::eofbit
PUBLIC	?failbit@?$_Iosb@H@std@@2W4_Iostate@12@B	; std::_Iosb<int>::failbit
PUBLIC	?badbit@?$_Iosb@H@std@@2W4_Iostate@12@B		; std::_Iosb<int>::badbit
PUBLIC	?_Hardfail@?$_Iosb@H@std@@2W4_Iostate@12@B	; std::_Iosb<int>::_Hardfail
PUBLIC	?in@?$_Iosb@H@std@@2W4_Openmode@12@B		; std::_Iosb<int>::in
PUBLIC	?out@?$_Iosb@H@std@@2W4_Openmode@12@B		; std::_Iosb<int>::out
PUBLIC	?ate@?$_Iosb@H@std@@2W4_Openmode@12@B		; std::_Iosb<int>::ate
PUBLIC	?app@?$_Iosb@H@std@@2W4_Openmode@12@B		; std::_Iosb<int>::app
PUBLIC	?trunc@?$_Iosb@H@std@@2W4_Openmode@12@B		; std::_Iosb<int>::trunc
PUBLIC	?_Nocreate@?$_Iosb@H@std@@2W4_Openmode@12@B	; std::_Iosb<int>::_Nocreate
PUBLIC	?_Noreplace@?$_Iosb@H@std@@2W4_Openmode@12@B	; std::_Iosb<int>::_Noreplace
PUBLIC	?binary@?$_Iosb@H@std@@2W4_Openmode@12@B	; std::_Iosb<int>::binary
PUBLIC	?beg@?$_Iosb@H@std@@2W4_Seekdir@12@B		; std::_Iosb<int>::beg
PUBLIC	?cur@?$_Iosb@H@std@@2W4_Seekdir@12@B		; std::_Iosb<int>::cur
PUBLIC	?end@?$_Iosb@H@std@@2W4_Seekdir@12@B		; std::_Iosb<int>::end
CONST	SEGMENT
$SG31542 DB	00H
	ORG $+3
$SG31550 DB	'wb', 00H
	ORG $+1
$SG31560 DB	'rb', 00H
CONST	ENDS
;	COMDAT ?end@?$_Iosb@H@std@@2W4_Seekdir@12@B
CONST	SEGMENT
?end@?$_Iosb@H@std@@2W4_Seekdir@12@B DD 02H		; std::_Iosb<int>::end
CONST	ENDS
;	COMDAT ?cur@?$_Iosb@H@std@@2W4_Seekdir@12@B
CONST	SEGMENT
?cur@?$_Iosb@H@std@@2W4_Seekdir@12@B DD 01H		; std::_Iosb<int>::cur
CONST	ENDS
;	COMDAT ?beg@?$_Iosb@H@std@@2W4_Seekdir@12@B
CONST	SEGMENT
?beg@?$_Iosb@H@std@@2W4_Seekdir@12@B DD 00H		; std::_Iosb<int>::beg
CONST	ENDS
;	COMDAT ?binary@?$_Iosb@H@std@@2W4_Openmode@12@B
CONST	SEGMENT
?binary@?$_Iosb@H@std@@2W4_Openmode@12@B DD 020H	; std::_Iosb<int>::binary
CONST	ENDS
;	COMDAT ?_Noreplace@?$_Iosb@H@std@@2W4_Openmode@12@B
CONST	SEGMENT
?_Noreplace@?$_Iosb@H@std@@2W4_Openmode@12@B DD 080H	; std::_Iosb<int>::_Noreplace
CONST	ENDS
;	COMDAT ?_Nocreate@?$_Iosb@H@std@@2W4_Openmode@12@B
CONST	SEGMENT
?_Nocreate@?$_Iosb@H@std@@2W4_Openmode@12@B DD 040H	; std::_Iosb<int>::_Nocreate
CONST	ENDS
;	COMDAT ?trunc@?$_Iosb@H@std@@2W4_Openmode@12@B
CONST	SEGMENT
?trunc@?$_Iosb@H@std@@2W4_Openmode@12@B DD 010H		; std::_Iosb<int>::trunc
CONST	ENDS
;	COMDAT ?app@?$_Iosb@H@std@@2W4_Openmode@12@B
CONST	SEGMENT
?app@?$_Iosb@H@std@@2W4_Openmode@12@B DD 08H		; std::_Iosb<int>::app
CONST	ENDS
;	COMDAT ?ate@?$_Iosb@H@std@@2W4_Openmode@12@B
CONST	SEGMENT
?ate@?$_Iosb@H@std@@2W4_Openmode@12@B DD 04H		; std::_Iosb<int>::ate
CONST	ENDS
;	COMDAT ?out@?$_Iosb@H@std@@2W4_Openmode@12@B
CONST	SEGMENT
?out@?$_Iosb@H@std@@2W4_Openmode@12@B DD 02H		; std::_Iosb<int>::out
CONST	ENDS
;	COMDAT ?in@?$_Iosb@H@std@@2W4_Openmode@12@B
CONST	SEGMENT
?in@?$_Iosb@H@std@@2W4_Openmode@12@B DD 01H		; std::_Iosb<int>::in
CONST	ENDS
;	COMDAT ?_Hardfail@?$_Iosb@H@std@@2W4_Iostate@12@B
CONST	SEGMENT
?_Hardfail@?$_Iosb@H@std@@2W4_Iostate@12@B DD 010H	; std::_Iosb<int>::_Hardfail
CONST	ENDS
;	COMDAT ?badbit@?$_Iosb@H@std@@2W4_Iostate@12@B
CONST	SEGMENT
?badbit@?$_Iosb@H@std@@2W4_Iostate@12@B DD 04H		; std::_Iosb<int>::badbit
CONST	ENDS
;	COMDAT ?failbit@?$_Iosb@H@std@@2W4_Iostate@12@B
CONST	SEGMENT
?failbit@?$_Iosb@H@std@@2W4_Iostate@12@B DD 02H		; std::_Iosb<int>::failbit
CONST	ENDS
;	COMDAT ?eofbit@?$_Iosb@H@std@@2W4_Iostate@12@B
CONST	SEGMENT
?eofbit@?$_Iosb@H@std@@2W4_Iostate@12@B DD 01H		; std::_Iosb<int>::eofbit
CONST	ENDS
;	COMDAT ?goodbit@?$_Iosb@H@std@@2W4_Iostate@12@B
CONST	SEGMENT
?goodbit@?$_Iosb@H@std@@2W4_Iostate@12@B DD 00H		; std::_Iosb<int>::goodbit
CONST	ENDS
;	COMDAT ?floatfield@?$_Iosb@H@std@@2W4_Fmtflags@12@B
CONST	SEGMENT
?floatfield@?$_Iosb@H@std@@2W4_Fmtflags@12@B DD 03000H	; std::_Iosb<int>::floatfield
CONST	ENDS
;	COMDAT ?basefield@?$_Iosb@H@std@@2W4_Fmtflags@12@B
CONST	SEGMENT
?basefield@?$_Iosb@H@std@@2W4_Fmtflags@12@B DD 0e00H	; std::_Iosb<int>::basefield
CONST	ENDS
;	COMDAT ?adjustfield@?$_Iosb@H@std@@2W4_Fmtflags@12@B
CONST	SEGMENT
?adjustfield@?$_Iosb@H@std@@2W4_Fmtflags@12@B DD 01c0H	; std::_Iosb<int>::adjustfield
CONST	ENDS
;	COMDAT ?_Stdio@?$_Iosb@H@std@@2W4_Fmtflags@12@B
CONST	SEGMENT
?_Stdio@?$_Iosb@H@std@@2W4_Fmtflags@12@B DD 08000H	; std::_Iosb<int>::_Stdio
CONST	ENDS
;	COMDAT ?boolalpha@?$_Iosb@H@std@@2W4_Fmtflags@12@B
CONST	SEGMENT
?boolalpha@?$_Iosb@H@std@@2W4_Fmtflags@12@B DD 04000H	; std::_Iosb<int>::boolalpha
CONST	ENDS
;	COMDAT ?hexfloat@?$_Iosb@H@std@@2W4_Fmtflags@12@B
CONST	SEGMENT
?hexfloat@?$_Iosb@H@std@@2W4_Fmtflags@12@B DD 03000H	; std::_Iosb<int>::hexfloat
CONST	ENDS
;	COMDAT ?fixed@?$_Iosb@H@std@@2W4_Fmtflags@12@B
CONST	SEGMENT
?fixed@?$_Iosb@H@std@@2W4_Fmtflags@12@B DD 02000H	; std::_Iosb<int>::fixed
CONST	ENDS
;	COMDAT ?scientific@?$_Iosb@H@std@@2W4_Fmtflags@12@B
CONST	SEGMENT
?scientific@?$_Iosb@H@std@@2W4_Fmtflags@12@B DD 01000H	; std::_Iosb<int>::scientific
CONST	ENDS
;	COMDAT ?hex@?$_Iosb@H@std@@2W4_Fmtflags@12@B
CONST	SEGMENT
?hex@?$_Iosb@H@std@@2W4_Fmtflags@12@B DD 0800H		; std::_Iosb<int>::hex
CONST	ENDS
;	COMDAT ?oct@?$_Iosb@H@std@@2W4_Fmtflags@12@B
CONST	SEGMENT
?oct@?$_Iosb@H@std@@2W4_Fmtflags@12@B DD 0400H		; std::_Iosb<int>::oct
CONST	ENDS
;	COMDAT ?dec@?$_Iosb@H@std@@2W4_Fmtflags@12@B
CONST	SEGMENT
?dec@?$_Iosb@H@std@@2W4_Fmtflags@12@B DD 0200H		; std::_Iosb<int>::dec
CONST	ENDS
;	COMDAT ?internal@?$_Iosb@H@std@@2W4_Fmtflags@12@B
CONST	SEGMENT
?internal@?$_Iosb@H@std@@2W4_Fmtflags@12@B DD 0100H	; std::_Iosb<int>::internal
CONST	ENDS
;	COMDAT ?right@?$_Iosb@H@std@@2W4_Fmtflags@12@B
CONST	SEGMENT
?right@?$_Iosb@H@std@@2W4_Fmtflags@12@B DD 080H		; std::_Iosb<int>::right
CONST	ENDS
;	COMDAT ?left@?$_Iosb@H@std@@2W4_Fmtflags@12@B
CONST	SEGMENT
?left@?$_Iosb@H@std@@2W4_Fmtflags@12@B DD 040H		; std::_Iosb<int>::left
CONST	ENDS
;	COMDAT ?showpos@?$_Iosb@H@std@@2W4_Fmtflags@12@B
CONST	SEGMENT
?showpos@?$_Iosb@H@std@@2W4_Fmtflags@12@B DD 020H	; std::_Iosb<int>::showpos
CONST	ENDS
;	COMDAT ?showpoint@?$_Iosb@H@std@@2W4_Fmtflags@12@B
CONST	SEGMENT
?showpoint@?$_Iosb@H@std@@2W4_Fmtflags@12@B DD 010H	; std::_Iosb<int>::showpoint
CONST	ENDS
;	COMDAT ?showbase@?$_Iosb@H@std@@2W4_Fmtflags@12@B
CONST	SEGMENT
?showbase@?$_Iosb@H@std@@2W4_Fmtflags@12@B DD 08H	; std::_Iosb<int>::showbase
CONST	ENDS
;	COMDAT ?uppercase@?$_Iosb@H@std@@2W4_Fmtflags@12@B
CONST	SEGMENT
?uppercase@?$_Iosb@H@std@@2W4_Fmtflags@12@B DD 04H	; std::_Iosb<int>::uppercase
CONST	ENDS
;	COMDAT ?unitbuf@?$_Iosb@H@std@@2W4_Fmtflags@12@B
CONST	SEGMENT
?unitbuf@?$_Iosb@H@std@@2W4_Fmtflags@12@B DD 02H	; std::_Iosb<int>::unitbuf
CONST	ENDS
;	COMDAT ?skipws@?$_Iosb@H@std@@2W4_Fmtflags@12@B
CONST	SEGMENT
?skipws@?$_Iosb@H@std@@2W4_Fmtflags@12@B DD 01H		; std::_Iosb<int>::skipws
CONST	ENDS
;	COMDAT ?table_size@?$ctype@D@std@@2_KB
CONST	SEGMENT
?table_size@?$ctype@D@std@@2_KB DQ 0000000000000100H	; std::ctype<char>::table_size
CONST	ENDS
;	COMDAT ?none@?$_Locbase@H@std@@2HB
CONST	SEGMENT
?none@?$_Locbase@H@std@@2HB DD 00H			; std::_Locbase<int>::none
CONST	ENDS
;	COMDAT ?all@?$_Locbase@H@std@@2HB
CONST	SEGMENT
?all@?$_Locbase@H@std@@2HB DD 03fH			; std::_Locbase<int>::all
CONST	ENDS
;	COMDAT ?messages@?$_Locbase@H@std@@2HB
CONST	SEGMENT
?messages@?$_Locbase@H@std@@2HB DD 020H			; std::_Locbase<int>::messages
CONST	ENDS
;	COMDAT ?time@?$_Locbase@H@std@@2HB
CONST	SEGMENT
?time@?$_Locbase@H@std@@2HB DD 010H			; std::_Locbase<int>::time
CONST	ENDS
;	COMDAT ?numeric@?$_Locbase@H@std@@2HB
CONST	SEGMENT
?numeric@?$_Locbase@H@std@@2HB DD 08H			; std::_Locbase<int>::numeric
CONST	ENDS
;	COMDAT ?monetary@?$_Locbase@H@std@@2HB
CONST	SEGMENT
?monetary@?$_Locbase@H@std@@2HB DD 04H			; std::_Locbase<int>::monetary
CONST	ENDS
;	COMDAT ?ctype@?$_Locbase@H@std@@2HB
CONST	SEGMENT
?ctype@?$_Locbase@H@std@@2HB DD 02H			; std::_Locbase<int>::ctype
CONST	ENDS
;	COMDAT ?collate@?$_Locbase@H@std@@2HB
CONST	SEGMENT
?collate@?$_Locbase@H@std@@2HB DD 01H			; std::_Locbase<int>::collate
CONST	ENDS
;	COMDAT ?_Rank@?$_Arithmetic_traits@O@std@@2HB
CONST	SEGMENT
?_Rank@?$_Arithmetic_traits@O@std@@2HB DD 09H		; std::_Arithmetic_traits<long double>::_Rank
CONST	ENDS
;	COMDAT ?_Rank@?$_Arithmetic_traits@N@std@@2HB
CONST	SEGMENT
?_Rank@?$_Arithmetic_traits@N@std@@2HB DD 08H		; std::_Arithmetic_traits<double>::_Rank
CONST	ENDS
;	COMDAT ?_Rank@?$_Arithmetic_traits@M@std@@2HB
CONST	SEGMENT
?_Rank@?$_Arithmetic_traits@M@std@@2HB DD 07H		; std::_Arithmetic_traits<float>::_Rank
CONST	ENDS
;	COMDAT ?_Rank@?$_Arithmetic_traits@_K@std@@2HB
CONST	SEGMENT
?_Rank@?$_Arithmetic_traits@_K@std@@2HB DD 06H		; std::_Arithmetic_traits<unsigned __int64>::_Rank
CONST	ENDS
;	COMDAT ?_Rank@?$_Arithmetic_traits@_J@std@@2HB
CONST	SEGMENT
?_Rank@?$_Arithmetic_traits@_J@std@@2HB DD 06H		; std::_Arithmetic_traits<__int64>::_Rank
CONST	ENDS
;	COMDAT ?_Rank@?$_Arithmetic_traits@K@std@@2HB
CONST	SEGMENT
?_Rank@?$_Arithmetic_traits@K@std@@2HB DD 05H		; std::_Arithmetic_traits<unsigned long>::_Rank
CONST	ENDS
;	COMDAT ?_Rank@?$_Arithmetic_traits@J@std@@2HB
CONST	SEGMENT
?_Rank@?$_Arithmetic_traits@J@std@@2HB DD 05H		; std::_Arithmetic_traits<long>::_Rank
CONST	ENDS
;	COMDAT ?_Rank@?$_Arithmetic_traits@I@std@@2HB
CONST	SEGMENT
?_Rank@?$_Arithmetic_traits@I@std@@2HB DD 04H		; std::_Arithmetic_traits<unsigned int>::_Rank
CONST	ENDS
;	COMDAT ?_Rank@?$_Arithmetic_traits@H@std@@2HB
CONST	SEGMENT
?_Rank@?$_Arithmetic_traits@H@std@@2HB DD 04H		; std::_Arithmetic_traits<int>::_Rank
CONST	ENDS
;	COMDAT ?_Rank@?$_Arithmetic_traits@G@std@@2HB
CONST	SEGMENT
?_Rank@?$_Arithmetic_traits@G@std@@2HB DD 03H		; std::_Arithmetic_traits<unsigned short>::_Rank
CONST	ENDS
;	COMDAT ?_Rank@?$_Arithmetic_traits@F@std@@2HB
CONST	SEGMENT
?_Rank@?$_Arithmetic_traits@F@std@@2HB DD 03H		; std::_Arithmetic_traits<short>::_Rank
CONST	ENDS
;	COMDAT ?_Rank@?$_Arithmetic_traits@E@std@@2HB
CONST	SEGMENT
?_Rank@?$_Arithmetic_traits@E@std@@2HB DD 02H		; std::_Arithmetic_traits<unsigned char>::_Rank
CONST	ENDS
;	COMDAT ?_Rank@?$_Arithmetic_traits@C@std@@2HB
CONST	SEGMENT
?_Rank@?$_Arithmetic_traits@C@std@@2HB DD 02H		; std::_Arithmetic_traits<signed char>::_Rank
CONST	ENDS
;	COMDAT ?_Rank@?$_Arithmetic_traits@D@std@@2HB
CONST	SEGMENT
?_Rank@?$_Arithmetic_traits@D@std@@2HB DD 02H		; std::_Arithmetic_traits<char>::_Rank
CONST	ENDS
;	COMDAT ?_Rank@?$_Arithmetic_traits@_N@std@@2HB
CONST	SEGMENT
?_Rank@?$_Arithmetic_traits@_N@std@@2HB DD 01H		; std::_Arithmetic_traits<bool>::_Rank
CONST	ENDS
;	COMDAT ?value@?$integral_constant@_K$0A@@tr1@std@@2_KB
CONST	SEGMENT
?value@?$integral_constant@_K$0A@@tr1@std@@2_KB DQ 0000000000000000H ; std::tr1::integral_constant<unsigned __int64,0>::value
CONST	ENDS
;	COMDAT ?value@?$integral_constant@_N$00@tr1@std@@2_NB
CONST	SEGMENT
?value@?$integral_constant@_N$00@tr1@std@@2_NB DB 01H	; std::tr1::integral_constant<bool,1>::value
CONST	ENDS
;	COMDAT ?value@?$integral_constant@_N$0A@@tr1@std@@2_NB
CONST	SEGMENT
?value@?$integral_constant@_N$0A@@tr1@std@@2_NB DB 00H	; std::tr1::integral_constant<bool,0>::value
CONST	ENDS
;	COMDAT ?min_exponent10@?$numeric_limits@O@std@@2HB
CONST	SEGMENT
?min_exponent10@?$numeric_limits@O@std@@2HB DD 0fffffecdH ; std::numeric_limits<long double>::min_exponent10
CONST	ENDS
;	COMDAT ?min_exponent@?$numeric_limits@O@std@@2HB
CONST	SEGMENT
?min_exponent@?$numeric_limits@O@std@@2HB DD 0fffffc03H	; std::numeric_limits<long double>::min_exponent
CONST	ENDS
;	COMDAT ?max_exponent10@?$numeric_limits@O@std@@2HB
CONST	SEGMENT
?max_exponent10@?$numeric_limits@O@std@@2HB DD 0134H	; std::numeric_limits<long double>::max_exponent10
CONST	ENDS
;	COMDAT ?max_exponent@?$numeric_limits@O@std@@2HB
CONST	SEGMENT
?max_exponent@?$numeric_limits@O@std@@2HB DD 0400H	; std::numeric_limits<long double>::max_exponent
CONST	ENDS
;	COMDAT ?max_digits10@?$numeric_limits@O@std@@2HB
CONST	SEGMENT
?max_digits10@?$numeric_limits@O@std@@2HB DD 011H	; std::numeric_limits<long double>::max_digits10
CONST	ENDS
;	COMDAT ?digits10@?$numeric_limits@O@std@@2HB
CONST	SEGMENT
?digits10@?$numeric_limits@O@std@@2HB DD 0fH		; std::numeric_limits<long double>::digits10
CONST	ENDS
;	COMDAT ?digits@?$numeric_limits@O@std@@2HB
CONST	SEGMENT
?digits@?$numeric_limits@O@std@@2HB DD 035H		; std::numeric_limits<long double>::digits
CONST	ENDS
;	COMDAT ?min_exponent10@?$numeric_limits@N@std@@2HB
CONST	SEGMENT
?min_exponent10@?$numeric_limits@N@std@@2HB DD 0fffffecdH ; std::numeric_limits<double>::min_exponent10
CONST	ENDS
;	COMDAT ?min_exponent@?$numeric_limits@N@std@@2HB
CONST	SEGMENT
?min_exponent@?$numeric_limits@N@std@@2HB DD 0fffffc03H	; std::numeric_limits<double>::min_exponent
CONST	ENDS
;	COMDAT ?max_exponent10@?$numeric_limits@N@std@@2HB
CONST	SEGMENT
?max_exponent10@?$numeric_limits@N@std@@2HB DD 0134H	; std::numeric_limits<double>::max_exponent10
CONST	ENDS
;	COMDAT ?max_exponent@?$numeric_limits@N@std@@2HB
CONST	SEGMENT
?max_exponent@?$numeric_limits@N@std@@2HB DD 0400H	; std::numeric_limits<double>::max_exponent
CONST	ENDS
;	COMDAT ?max_digits10@?$numeric_limits@N@std@@2HB
CONST	SEGMENT
?max_digits10@?$numeric_limits@N@std@@2HB DD 011H	; std::numeric_limits<double>::max_digits10
CONST	ENDS
;	COMDAT ?digits10@?$numeric_limits@N@std@@2HB
CONST	SEGMENT
?digits10@?$numeric_limits@N@std@@2HB DD 0fH		; std::numeric_limits<double>::digits10
CONST	ENDS
;	COMDAT ?digits@?$numeric_limits@N@std@@2HB
CONST	SEGMENT
?digits@?$numeric_limits@N@std@@2HB DD 035H		; std::numeric_limits<double>::digits
CONST	ENDS
;	COMDAT ?min_exponent10@?$numeric_limits@M@std@@2HB
CONST	SEGMENT
?min_exponent10@?$numeric_limits@M@std@@2HB DD 0ffffffdbH ; std::numeric_limits<float>::min_exponent10
CONST	ENDS
;	COMDAT ?min_exponent@?$numeric_limits@M@std@@2HB
CONST	SEGMENT
?min_exponent@?$numeric_limits@M@std@@2HB DD 0ffffff83H	; std::numeric_limits<float>::min_exponent
CONST	ENDS
;	COMDAT ?max_exponent10@?$numeric_limits@M@std@@2HB
CONST	SEGMENT
?max_exponent10@?$numeric_limits@M@std@@2HB DD 026H	; std::numeric_limits<float>::max_exponent10
CONST	ENDS
;	COMDAT ?max_exponent@?$numeric_limits@M@std@@2HB
CONST	SEGMENT
?max_exponent@?$numeric_limits@M@std@@2HB DD 080H	; std::numeric_limits<float>::max_exponent
CONST	ENDS
;	COMDAT ?max_digits10@?$numeric_limits@M@std@@2HB
CONST	SEGMENT
?max_digits10@?$numeric_limits@M@std@@2HB DD 08H	; std::numeric_limits<float>::max_digits10
CONST	ENDS
;	COMDAT ?digits10@?$numeric_limits@M@std@@2HB
CONST	SEGMENT
?digits10@?$numeric_limits@M@std@@2HB DD 06H		; std::numeric_limits<float>::digits10
CONST	ENDS
;	COMDAT ?digits@?$numeric_limits@M@std@@2HB
CONST	SEGMENT
?digits@?$numeric_limits@M@std@@2HB DD 018H		; std::numeric_limits<float>::digits
CONST	ENDS
;	COMDAT ?max_digits10@?$numeric_limits@_K@std@@2HB
CONST	SEGMENT
?max_digits10@?$numeric_limits@_K@std@@2HB DD 015H	; std::numeric_limits<unsigned __int64>::max_digits10
CONST	ENDS
;	COMDAT ?digits10@?$numeric_limits@_K@std@@2HB
CONST	SEGMENT
?digits10@?$numeric_limits@_K@std@@2HB DD 013H		; std::numeric_limits<unsigned __int64>::digits10
CONST	ENDS
;	COMDAT ?digits@?$numeric_limits@_K@std@@2HB
CONST	SEGMENT
?digits@?$numeric_limits@_K@std@@2HB DD 040H		; std::numeric_limits<unsigned __int64>::digits
CONST	ENDS
;	COMDAT ?is_signed@?$numeric_limits@_K@std@@2_NB
CONST	SEGMENT
?is_signed@?$numeric_limits@_K@std@@2_NB DB 00H		; std::numeric_limits<unsigned __int64>::is_signed
CONST	ENDS
;	COMDAT ?max_digits10@?$numeric_limits@_J@std@@2HB
CONST	SEGMENT
?max_digits10@?$numeric_limits@_J@std@@2HB DD 014H	; std::numeric_limits<__int64>::max_digits10
CONST	ENDS
;	COMDAT ?digits10@?$numeric_limits@_J@std@@2HB
CONST	SEGMENT
?digits10@?$numeric_limits@_J@std@@2HB DD 012H		; std::numeric_limits<__int64>::digits10
CONST	ENDS
;	COMDAT ?digits@?$numeric_limits@_J@std@@2HB
CONST	SEGMENT
?digits@?$numeric_limits@_J@std@@2HB DD 03fH		; std::numeric_limits<__int64>::digits
CONST	ENDS
;	COMDAT ?is_signed@?$numeric_limits@_J@std@@2_NB
CONST	SEGMENT
?is_signed@?$numeric_limits@_J@std@@2_NB DB 01H		; std::numeric_limits<__int64>::is_signed
CONST	ENDS
;	COMDAT ?max_digits10@?$numeric_limits@K@std@@2HB
CONST	SEGMENT
?max_digits10@?$numeric_limits@K@std@@2HB DD 0bH	; std::numeric_limits<unsigned long>::max_digits10
CONST	ENDS
;	COMDAT ?digits10@?$numeric_limits@K@std@@2HB
CONST	SEGMENT
?digits10@?$numeric_limits@K@std@@2HB DD 09H		; std::numeric_limits<unsigned long>::digits10
CONST	ENDS
;	COMDAT ?digits@?$numeric_limits@K@std@@2HB
CONST	SEGMENT
?digits@?$numeric_limits@K@std@@2HB DD 020H		; std::numeric_limits<unsigned long>::digits
CONST	ENDS
;	COMDAT ?is_signed@?$numeric_limits@K@std@@2_NB
CONST	SEGMENT
?is_signed@?$numeric_limits@K@std@@2_NB DB 00H		; std::numeric_limits<unsigned long>::is_signed
CONST	ENDS
;	COMDAT ?max_digits10@?$numeric_limits@J@std@@2HB
CONST	SEGMENT
?max_digits10@?$numeric_limits@J@std@@2HB DD 0bH	; std::numeric_limits<long>::max_digits10
CONST	ENDS
;	COMDAT ?digits10@?$numeric_limits@J@std@@2HB
CONST	SEGMENT
?digits10@?$numeric_limits@J@std@@2HB DD 09H		; std::numeric_limits<long>::digits10
CONST	ENDS
;	COMDAT ?digits@?$numeric_limits@J@std@@2HB
CONST	SEGMENT
?digits@?$numeric_limits@J@std@@2HB DD 01fH		; std::numeric_limits<long>::digits
CONST	ENDS
;	COMDAT ?is_signed@?$numeric_limits@J@std@@2_NB
CONST	SEGMENT
?is_signed@?$numeric_limits@J@std@@2_NB DB 01H		; std::numeric_limits<long>::is_signed
CONST	ENDS
;	COMDAT ?max_digits10@?$numeric_limits@I@std@@2HB
CONST	SEGMENT
?max_digits10@?$numeric_limits@I@std@@2HB DD 0bH	; std::numeric_limits<unsigned int>::max_digits10
CONST	ENDS
;	COMDAT ?digits10@?$numeric_limits@I@std@@2HB
CONST	SEGMENT
?digits10@?$numeric_limits@I@std@@2HB DD 09H		; std::numeric_limits<unsigned int>::digits10
CONST	ENDS
;	COMDAT ?digits@?$numeric_limits@I@std@@2HB
CONST	SEGMENT
?digits@?$numeric_limits@I@std@@2HB DD 020H		; std::numeric_limits<unsigned int>::digits
CONST	ENDS
;	COMDAT ?is_signed@?$numeric_limits@I@std@@2_NB
CONST	SEGMENT
?is_signed@?$numeric_limits@I@std@@2_NB DB 00H		; std::numeric_limits<unsigned int>::is_signed
CONST	ENDS
;	COMDAT ?max_digits10@?$numeric_limits@H@std@@2HB
CONST	SEGMENT
?max_digits10@?$numeric_limits@H@std@@2HB DD 0bH	; std::numeric_limits<int>::max_digits10
CONST	ENDS
;	COMDAT ?digits10@?$numeric_limits@H@std@@2HB
CONST	SEGMENT
?digits10@?$numeric_limits@H@std@@2HB DD 09H		; std::numeric_limits<int>::digits10
CONST	ENDS
;	COMDAT ?digits@?$numeric_limits@H@std@@2HB
CONST	SEGMENT
?digits@?$numeric_limits@H@std@@2HB DD 01fH		; std::numeric_limits<int>::digits
CONST	ENDS
;	COMDAT ?is_signed@?$numeric_limits@H@std@@2_NB
CONST	SEGMENT
?is_signed@?$numeric_limits@H@std@@2_NB DB 01H		; std::numeric_limits<int>::is_signed
CONST	ENDS
;	COMDAT ?max_digits10@?$numeric_limits@G@std@@2HB
CONST	SEGMENT
?max_digits10@?$numeric_limits@G@std@@2HB DD 06H	; std::numeric_limits<unsigned short>::max_digits10
CONST	ENDS
;	COMDAT ?digits10@?$numeric_limits@G@std@@2HB
CONST	SEGMENT
?digits10@?$numeric_limits@G@std@@2HB DD 04H		; std::numeric_limits<unsigned short>::digits10
CONST	ENDS
;	COMDAT ?digits@?$numeric_limits@G@std@@2HB
CONST	SEGMENT
?digits@?$numeric_limits@G@std@@2HB DD 010H		; std::numeric_limits<unsigned short>::digits
CONST	ENDS
;	COMDAT ?is_signed@?$numeric_limits@G@std@@2_NB
CONST	SEGMENT
?is_signed@?$numeric_limits@G@std@@2_NB DB 00H		; std::numeric_limits<unsigned short>::is_signed
CONST	ENDS
;	COMDAT ?max_digits10@?$numeric_limits@F@std@@2HB
CONST	SEGMENT
?max_digits10@?$numeric_limits@F@std@@2HB DD 06H	; std::numeric_limits<short>::max_digits10
CONST	ENDS
;	COMDAT ?digits10@?$numeric_limits@F@std@@2HB
CONST	SEGMENT
?digits10@?$numeric_limits@F@std@@2HB DD 04H		; std::numeric_limits<short>::digits10
CONST	ENDS
;	COMDAT ?digits@?$numeric_limits@F@std@@2HB
CONST	SEGMENT
?digits@?$numeric_limits@F@std@@2HB DD 0fH		; std::numeric_limits<short>::digits
CONST	ENDS
;	COMDAT ?is_signed@?$numeric_limits@F@std@@2_NB
CONST	SEGMENT
?is_signed@?$numeric_limits@F@std@@2_NB DB 01H		; std::numeric_limits<short>::is_signed
CONST	ENDS
;	COMDAT ?max_digits10@?$numeric_limits@E@std@@2HB
CONST	SEGMENT
?max_digits10@?$numeric_limits@E@std@@2HB DD 04H	; std::numeric_limits<unsigned char>::max_digits10
CONST	ENDS
;	COMDAT ?digits10@?$numeric_limits@E@std@@2HB
CONST	SEGMENT
?digits10@?$numeric_limits@E@std@@2HB DD 02H		; std::numeric_limits<unsigned char>::digits10
CONST	ENDS
;	COMDAT ?digits@?$numeric_limits@E@std@@2HB
CONST	SEGMENT
?digits@?$numeric_limits@E@std@@2HB DD 08H		; std::numeric_limits<unsigned char>::digits
CONST	ENDS
;	COMDAT ?is_signed@?$numeric_limits@E@std@@2_NB
CONST	SEGMENT
?is_signed@?$numeric_limits@E@std@@2_NB DB 00H		; std::numeric_limits<unsigned char>::is_signed
CONST	ENDS
;	COMDAT ?max_digits10@?$numeric_limits@C@std@@2HB
CONST	SEGMENT
?max_digits10@?$numeric_limits@C@std@@2HB DD 04H	; std::numeric_limits<signed char>::max_digits10
CONST	ENDS
;	COMDAT ?digits10@?$numeric_limits@C@std@@2HB
CONST	SEGMENT
?digits10@?$numeric_limits@C@std@@2HB DD 02H		; std::numeric_limits<signed char>::digits10
CONST	ENDS
;	COMDAT ?digits@?$numeric_limits@C@std@@2HB
CONST	SEGMENT
?digits@?$numeric_limits@C@std@@2HB DD 07H		; std::numeric_limits<signed char>::digits
CONST	ENDS
;	COMDAT ?is_signed@?$numeric_limits@C@std@@2_NB
CONST	SEGMENT
?is_signed@?$numeric_limits@C@std@@2_NB DB 01H		; std::numeric_limits<signed char>::is_signed
CONST	ENDS
;	COMDAT ?max_digits10@?$numeric_limits@_N@std@@2HB
CONST	SEGMENT
?max_digits10@?$numeric_limits@_N@std@@2HB DD 00H	; std::numeric_limits<bool>::max_digits10
CONST	ENDS
;	COMDAT ?digits10@?$numeric_limits@_N@std@@2HB
CONST	SEGMENT
?digits10@?$numeric_limits@_N@std@@2HB DD 00H		; std::numeric_limits<bool>::digits10
CONST	ENDS
;	COMDAT ?digits@?$numeric_limits@_N@std@@2HB
CONST	SEGMENT
?digits@?$numeric_limits@_N@std@@2HB DD 01H		; std::numeric_limits<bool>::digits
CONST	ENDS
;	COMDAT ?is_signed@?$numeric_limits@_N@std@@2_NB
CONST	SEGMENT
?is_signed@?$numeric_limits@_N@std@@2_NB DB 00H		; std::numeric_limits<bool>::is_signed
CONST	ENDS
;	COMDAT ?is_modulo@?$numeric_limits@_N@std@@2_NB
CONST	SEGMENT
?is_modulo@?$numeric_limits@_N@std@@2_NB DB 00H		; std::numeric_limits<bool>::is_modulo
CONST	ENDS
;	COMDAT ?max_digits10@?$numeric_limits@_W@std@@2HB
CONST	SEGMENT
?max_digits10@?$numeric_limits@_W@std@@2HB DD 06H	; std::numeric_limits<wchar_t>::max_digits10
CONST	ENDS
;	COMDAT ?digits10@?$numeric_limits@_W@std@@2HB
CONST	SEGMENT
?digits10@?$numeric_limits@_W@std@@2HB DD 04H		; std::numeric_limits<wchar_t>::digits10
CONST	ENDS
;	COMDAT ?digits@?$numeric_limits@_W@std@@2HB
CONST	SEGMENT
?digits@?$numeric_limits@_W@std@@2HB DD 010H		; std::numeric_limits<wchar_t>::digits
CONST	ENDS
;	COMDAT ?is_signed@?$numeric_limits@_W@std@@2_NB
CONST	SEGMENT
?is_signed@?$numeric_limits@_W@std@@2_NB DB 00H		; std::numeric_limits<wchar_t>::is_signed
CONST	ENDS
;	COMDAT ?max_digits10@?$numeric_limits@D@std@@2HB
CONST	SEGMENT
?max_digits10@?$numeric_limits@D@std@@2HB DD 04H	; std::numeric_limits<char>::max_digits10
CONST	ENDS
;	COMDAT ?digits10@?$numeric_limits@D@std@@2HB
CONST	SEGMENT
?digits10@?$numeric_limits@D@std@@2HB DD 02H		; std::numeric_limits<char>::digits10
CONST	ENDS
;	COMDAT ?digits@?$numeric_limits@D@std@@2HB
CONST	SEGMENT
?digits@?$numeric_limits@D@std@@2HB DD 07H		; std::numeric_limits<char>::digits
CONST	ENDS
;	COMDAT ?is_signed@?$numeric_limits@D@std@@2_NB
CONST	SEGMENT
?is_signed@?$numeric_limits@D@std@@2_NB DB 01H		; std::numeric_limits<char>::is_signed
CONST	ENDS
;	COMDAT ?radix@_Num_float_base@std@@2HB
CONST	SEGMENT
?radix@_Num_float_base@std@@2HB DD 02H			; std::_Num_float_base::radix
CONST	ENDS
;	COMDAT ?round_style@_Num_float_base@std@@2W4float_round_style@2@B
CONST	SEGMENT
?round_style@_Num_float_base@std@@2W4float_round_style@2@B DD 01H ; std::_Num_float_base::round_style
CONST	ENDS
;	COMDAT ?traps@_Num_float_base@std@@2_NB
CONST	SEGMENT
?traps@_Num_float_base@std@@2_NB DB 01H			; std::_Num_float_base::traps
CONST	ENDS
;	COMDAT ?tinyness_before@_Num_float_base@std@@2_NB
CONST	SEGMENT
?tinyness_before@_Num_float_base@std@@2_NB DB 01H	; std::_Num_float_base::tinyness_before
CONST	ENDS
;	COMDAT ?is_specialized@_Num_float_base@std@@2_NB
CONST	SEGMENT
?is_specialized@_Num_float_base@std@@2_NB DB 01H	; std::_Num_float_base::is_specialized
CONST	ENDS
;	COMDAT ?is_signed@_Num_float_base@std@@2_NB
CONST	SEGMENT
?is_signed@_Num_float_base@std@@2_NB DB 01H		; std::_Num_float_base::is_signed
CONST	ENDS
;	COMDAT ?is_modulo@_Num_float_base@std@@2_NB
CONST	SEGMENT
?is_modulo@_Num_float_base@std@@2_NB DB 00H		; std::_Num_float_base::is_modulo
CONST	ENDS
;	COMDAT ?is_integer@_Num_float_base@std@@2_NB
CONST	SEGMENT
?is_integer@_Num_float_base@std@@2_NB DB 00H		; std::_Num_float_base::is_integer
CONST	ENDS
;	COMDAT ?is_iec559@_Num_float_base@std@@2_NB
CONST	SEGMENT
?is_iec559@_Num_float_base@std@@2_NB DB 01H		; std::_Num_float_base::is_iec559
CONST	ENDS
;	COMDAT ?is_exact@_Num_float_base@std@@2_NB
CONST	SEGMENT
?is_exact@_Num_float_base@std@@2_NB DB 00H		; std::_Num_float_base::is_exact
CONST	ENDS
;	COMDAT ?is_bounded@_Num_float_base@std@@2_NB
CONST	SEGMENT
?is_bounded@_Num_float_base@std@@2_NB DB 01H		; std::_Num_float_base::is_bounded
CONST	ENDS
;	COMDAT ?has_signaling_NaN@_Num_float_base@std@@2_NB
CONST	SEGMENT
?has_signaling_NaN@_Num_float_base@std@@2_NB DB 01H	; std::_Num_float_base::has_signaling_NaN
CONST	ENDS
;	COMDAT ?has_quiet_NaN@_Num_float_base@std@@2_NB
CONST	SEGMENT
?has_quiet_NaN@_Num_float_base@std@@2_NB DB 01H		; std::_Num_float_base::has_quiet_NaN
CONST	ENDS
;	COMDAT ?has_infinity@_Num_float_base@std@@2_NB
CONST	SEGMENT
?has_infinity@_Num_float_base@std@@2_NB DB 01H		; std::_Num_float_base::has_infinity
CONST	ENDS
;	COMDAT ?has_denorm_loss@_Num_float_base@std@@2_NB
CONST	SEGMENT
?has_denorm_loss@_Num_float_base@std@@2_NB DB 01H	; std::_Num_float_base::has_denorm_loss
CONST	ENDS
;	COMDAT ?has_denorm@_Num_float_base@std@@2W4float_denorm_style@2@B
CONST	SEGMENT
?has_denorm@_Num_float_base@std@@2W4float_denorm_style@2@B DD 01H ; std::_Num_float_base::has_denorm
CONST	ENDS
;	COMDAT ?radix@_Num_int_base@std@@2HB
CONST	SEGMENT
?radix@_Num_int_base@std@@2HB DD 02H			; std::_Num_int_base::radix
CONST	ENDS
;	COMDAT ?is_specialized@_Num_int_base@std@@2_NB
CONST	SEGMENT
?is_specialized@_Num_int_base@std@@2_NB DB 01H		; std::_Num_int_base::is_specialized
CONST	ENDS
;	COMDAT ?is_modulo@_Num_int_base@std@@2_NB
CONST	SEGMENT
?is_modulo@_Num_int_base@std@@2_NB DB 01H		; std::_Num_int_base::is_modulo
CONST	ENDS
;	COMDAT ?is_integer@_Num_int_base@std@@2_NB
CONST	SEGMENT
?is_integer@_Num_int_base@std@@2_NB DB 01H		; std::_Num_int_base::is_integer
CONST	ENDS
;	COMDAT ?is_exact@_Num_int_base@std@@2_NB
CONST	SEGMENT
?is_exact@_Num_int_base@std@@2_NB DB 01H		; std::_Num_int_base::is_exact
CONST	ENDS
;	COMDAT ?is_bounded@_Num_int_base@std@@2_NB
CONST	SEGMENT
?is_bounded@_Num_int_base@std@@2_NB DB 01H		; std::_Num_int_base::is_bounded
CONST	ENDS
;	COMDAT ?radix@_Num_base@std@@2HB
CONST	SEGMENT
?radix@_Num_base@std@@2HB DD 00H			; std::_Num_base::radix
CONST	ENDS
;	COMDAT ?min_exponent10@_Num_base@std@@2HB
CONST	SEGMENT
?min_exponent10@_Num_base@std@@2HB DD 00H		; std::_Num_base::min_exponent10
CONST	ENDS
;	COMDAT ?min_exponent@_Num_base@std@@2HB
CONST	SEGMENT
?min_exponent@_Num_base@std@@2HB DD 00H			; std::_Num_base::min_exponent
CONST	ENDS
;	COMDAT ?max_exponent10@_Num_base@std@@2HB
CONST	SEGMENT
?max_exponent10@_Num_base@std@@2HB DD 00H		; std::_Num_base::max_exponent10
CONST	ENDS
;	COMDAT ?max_exponent@_Num_base@std@@2HB
CONST	SEGMENT
?max_exponent@_Num_base@std@@2HB DD 00H			; std::_Num_base::max_exponent
CONST	ENDS
;	COMDAT ?max_digits10@_Num_base@std@@2HB
CONST	SEGMENT
?max_digits10@_Num_base@std@@2HB DD 00H			; std::_Num_base::max_digits10
CONST	ENDS
;	COMDAT ?digits10@_Num_base@std@@2HB
CONST	SEGMENT
?digits10@_Num_base@std@@2HB DD 00H			; std::_Num_base::digits10
CONST	ENDS
;	COMDAT ?digits@_Num_base@std@@2HB
CONST	SEGMENT
?digits@_Num_base@std@@2HB DD 00H			; std::_Num_base::digits
CONST	ENDS
;	COMDAT ?round_style@_Num_base@std@@2W4float_round_style@2@B
CONST	SEGMENT
?round_style@_Num_base@std@@2W4float_round_style@2@B DD 00H ; std::_Num_base::round_style
CONST	ENDS
;	COMDAT ?traps@_Num_base@std@@2_NB
CONST	SEGMENT
?traps@_Num_base@std@@2_NB DB 00H			; std::_Num_base::traps
CONST	ENDS
;	COMDAT ?tinyness_before@_Num_base@std@@2_NB
CONST	SEGMENT
?tinyness_before@_Num_base@std@@2_NB DB 00H		; std::_Num_base::tinyness_before
CONST	ENDS
;	COMDAT ?is_specialized@_Num_base@std@@2_NB
CONST	SEGMENT
?is_specialized@_Num_base@std@@2_NB DB 00H		; std::_Num_base::is_specialized
CONST	ENDS
;	COMDAT ?is_signed@_Num_base@std@@2_NB
CONST	SEGMENT
?is_signed@_Num_base@std@@2_NB DB 00H			; std::_Num_base::is_signed
CONST	ENDS
;	COMDAT ?is_modulo@_Num_base@std@@2_NB
CONST	SEGMENT
?is_modulo@_Num_base@std@@2_NB DB 00H			; std::_Num_base::is_modulo
CONST	ENDS
;	COMDAT ?is_integer@_Num_base@std@@2_NB
CONST	SEGMENT
?is_integer@_Num_base@std@@2_NB DB 00H			; std::_Num_base::is_integer
CONST	ENDS
;	COMDAT ?is_iec559@_Num_base@std@@2_NB
CONST	SEGMENT
?is_iec559@_Num_base@std@@2_NB DB 00H			; std::_Num_base::is_iec559
CONST	ENDS
;	COMDAT ?is_exact@_Num_base@std@@2_NB
CONST	SEGMENT
?is_exact@_Num_base@std@@2_NB DB 00H			; std::_Num_base::is_exact
CONST	ENDS
;	COMDAT ?is_bounded@_Num_base@std@@2_NB
CONST	SEGMENT
?is_bounded@_Num_base@std@@2_NB DB 00H			; std::_Num_base::is_bounded
CONST	ENDS
;	COMDAT ?has_signaling_NaN@_Num_base@std@@2_NB
CONST	SEGMENT
?has_signaling_NaN@_Num_base@std@@2_NB DB 00H		; std::_Num_base::has_signaling_NaN
CONST	ENDS
;	COMDAT ?has_quiet_NaN@_Num_base@std@@2_NB
CONST	SEGMENT
?has_quiet_NaN@_Num_base@std@@2_NB DB 00H		; std::_Num_base::has_quiet_NaN
CONST	ENDS
;	COMDAT ?has_infinity@_Num_base@std@@2_NB
CONST	SEGMENT
?has_infinity@_Num_base@std@@2_NB DB 00H		; std::_Num_base::has_infinity
CONST	ENDS
;	COMDAT ?has_denorm_loss@_Num_base@std@@2_NB
CONST	SEGMENT
?has_denorm_loss@_Num_base@std@@2_NB DB 00H		; std::_Num_base::has_denorm_loss
CONST	ENDS
;	COMDAT ?has_denorm@_Num_base@std@@2W4float_denorm_style@2@B
CONST	SEGMENT
?has_denorm@_Num_base@std@@2W4float_denorm_style@2@B DD 00H ; std::_Num_base::has_denorm
CONST	ENDS
PUBLIC	??0?$basic_string@DU?$char_traits@D@std@@V?$allocator@D@2@@std@@QEAA@PEBD@Z ; std::basic_string<char,std::char_traits<char>,std::allocator<char> >::basic_string<char,std::char_traits<char>,std::allocator<char> >
PUBLIC	__$ArrayPad$
PUBLIC	?getCurrentDir@streamsdk@@YA?AV?$basic_string@DU?$char_traits@D@std@@V?$allocator@D@2@@std@@XZ ; streamsdk::getCurrentDir
EXTRN	__GSHandlerCheck:PROC
EXTRN	_getcwd:PROC
EXTRN	__security_cookie:QWORD
EXTRN	__security_check_cookie:PROC
EXTRN	_RTC_CheckStackVars:PROC
EXTRN	__chkstk:PROC
EXTRN	_RTC_Shutdown:PROC
EXTRN	_RTC_InitBase:PROC
pdata	SEGMENT
$pdata$?getCurrentDir@streamsdk@@YA?AV?$basic_string@DU?$char_traits@D@std@@V?$allocator@D@2@@std@@XZ DD imagerel $LN6
	DD	imagerel $LN6+236
	DD	imagerel $unwind$?getCurrentDir@streamsdk@@YA?AV?$basic_string@DU?$char_traits@D@std@@V?$allocator@D@2@@std@@XZ
pdata	ENDS
xdata	SEGMENT
$unwind$?getCurrentDir@streamsdk@@YA?AV?$basic_string@DU?$char_traits@D@std@@V?$allocator@D@2@@std@@XZ DD 033c19H
	DD	020c0113H
	DD	07006H
	DD	imagerel __GSHandlerCheck
	DD	01058H
xdata	ENDS
CONST	SEGMENT
	ORG $+5
?getCurrentDir@streamsdk@@YA?AV?$basic_string@DU?$char_traits@D@std@@V?$allocator@D@2@@std@@XZ$rtcName$0 DB 063H ; streamsdk::getCurrentDir
	DB	075H
	DB	072H
	DB	072H
	DB	065H
	DB	06eH
	DB	074H
	DB	044H
	DB	069H
	DB	072H
	DB	00H
	ORG $+5
?getCurrentDir@streamsdk@@YA?AV?$basic_string@DU?$char_traits@D@std@@V?$allocator@D@2@@std@@XZ$rtcVarDesc DD 040H ; streamsdk::getCurrentDir
	DD	01000H
	DQ	FLAT:?getCurrentDir@streamsdk@@YA?AV?$basic_string@DU?$char_traits@D@std@@V?$allocator@D@2@@std@@XZ$rtcName$0
	ORG $+48
?getCurrentDir@streamsdk@@YA?AV?$basic_string@DU?$char_traits@D@std@@V?$allocator@D@2@@std@@XZ$rtcFrameData DD 01H ; streamsdk::getCurrentDir
	DD	00H
	DQ	FLAT:?getCurrentDir@streamsdk@@YA?AV?$basic_string@DU?$char_traits@D@std@@V?$allocator@D@2@@std@@XZ$rtcVarDesc
CONST	ENDS
;	COMDAT rtc$TMZ
; File c:\development\cellct\tomographic_imaging - current\sdkutil\sdkfile.cpp
rtc$TMZ	SEGMENT
_RTC_Shutdown.rtc$TMZ DQ FLAT:_RTC_Shutdown
rtc$TMZ	ENDS
;	COMDAT rtc$IMZ
rtc$IMZ	SEGMENT
_RTC_InitBase.rtc$IMZ DQ FLAT:_RTC_InitBase
; Function compile flags: /Odtp /RTCsu
rtc$IMZ	ENDS
_TEXT	SEGMENT
pathSize$ = 32
currentDir$ = 64
$T37624 = 4176
__$ArrayPad$ = 4184
__$ReturnUdt$ = 4208
?getCurrentDir@streamsdk@@YA?AV?$basic_string@DU?$char_traits@D@std@@V?$allocator@D@2@@std@@XZ PROC ; streamsdk::getCurrentDir
; Line 18
$LN6:
	mov	QWORD PTR [rsp+8], rcx
	push	rdi
	mov	eax, 4192				; 00001060H
	call	__chkstk
	sub	rsp, rax
	mov	rdi, rsp
	mov	ecx, 1048				; 00000418H
	mov	eax, -858993460				; ccccccccH
	rep stosd
	mov	rcx, QWORD PTR [rsp+4208]
	mov	rax, QWORD PTR __security_cookie
	xor	rax, rsp
	mov	QWORD PTR __$ArrayPad$[rsp], rax
	mov	DWORD PTR $T37624[rsp], 0
; Line 19
	mov	QWORD PTR pathSize$[rsp], 4096		; 00001000H
; Line 23
	mov	edx, 4096				; 00001000H
	lea	rcx, QWORD PTR currentDir$[rsp]
	call	_getcwd
	test	rax, rax
	je	SHORT $LN1@getCurrent
; Line 24
	lea	rdx, QWORD PTR currentDir$[rsp]
	mov	rcx, QWORD PTR __$ReturnUdt$[rsp]
	call	??0?$basic_string@DU?$char_traits@D@std@@V?$allocator@D@2@@std@@QEAA@PEBD@Z ; std::basic_string<char,std::char_traits<char>,std::allocator<char> >::basic_string<char,std::char_traits<char>,std::allocator<char> >
	mov	eax, DWORD PTR $T37624[rsp]
	or	eax, 1
	mov	DWORD PTR $T37624[rsp], eax
	mov	rax, QWORD PTR __$ReturnUdt$[rsp]
	jmp	SHORT $LN2@getCurrent
$LN1@getCurrent:
; Line 27
	lea	rdx, OFFSET FLAT:$SG31542
	mov	rcx, QWORD PTR __$ReturnUdt$[rsp]
	call	??0?$basic_string@DU?$char_traits@D@std@@V?$allocator@D@2@@std@@QEAA@PEBD@Z ; std::basic_string<char,std::char_traits<char>,std::allocator<char> >::basic_string<char,std::char_traits<char>,std::allocator<char> >
	mov	eax, DWORD PTR $T37624[rsp]
	or	eax, 1
	mov	DWORD PTR $T37624[rsp], eax
	mov	rax, QWORD PTR __$ReturnUdt$[rsp]
$LN2@getCurrent:
; Line 28
	mov	rdi, rax
	mov	rcx, rsp
	lea	rdx, OFFSET FLAT:?getCurrentDir@streamsdk@@YA?AV?$basic_string@DU?$char_traits@D@std@@V?$allocator@D@2@@std@@XZ$rtcFrameData
	call	_RTC_CheckStackVars
	mov	rax, rdi
	mov	rcx, QWORD PTR __$ArrayPad$[rsp]
	xor	rcx, rsp
	call	__security_check_cookie
	add	rsp, 4192				; 00001060H
	pop	rdi
	ret	0
?getCurrentDir@streamsdk@@YA?AV?$basic_string@DU?$char_traits@D@std@@V?$allocator@D@2@@std@@XZ ENDP ; streamsdk::getCurrentDir
_TEXT	ENDS
PUBLIC	?writeBinaryToFile@SDKFile@streamsdk@@QEAA_NPEBD0_K@Z ; streamsdk::SDKFile::writeBinaryToFile
EXTRN	fclose:PROC
EXTRN	fwrite:PROC
EXTRN	fopen:PROC
pdata	SEGMENT
$pdata$?writeBinaryToFile@SDKFile@streamsdk@@QEAA_NPEBD0_K@Z DD imagerel $LN4
	DD	imagerel $LN4+131
	DD	imagerel $unwind$?writeBinaryToFile@SDKFile@streamsdk@@QEAA_NPEBD0_K@Z
pdata	ENDS
xdata	SEGMENT
$unwind$?writeBinaryToFile@SDKFile@streamsdk@@QEAA_NPEBD0_K@Z DD 022d01H
	DD	070155219H
; Function compile flags: /Odtp /RTCsu
xdata	ENDS
_TEXT	SEGMENT
output$ = 32
this$ = 64
fileName$ = 72
birary$ = 80
numBytes$ = 88
?writeBinaryToFile@SDKFile@streamsdk@@QEAA_NPEBD0_K@Z PROC ; streamsdk::SDKFile::writeBinaryToFile
; Line 32
$LN4:
	mov	QWORD PTR [rsp+32], r9
	mov	QWORD PTR [rsp+24], r8
	mov	QWORD PTR [rsp+16], rdx
	mov	QWORD PTR [rsp+8], rcx
	push	rdi
	sub	rsp, 48					; 00000030H
	mov	rdi, rsp
	mov	ecx, 12
	mov	eax, -858993460				; ccccccccH
	rep stosd
	mov	rcx, QWORD PTR [rsp+64]
; Line 33
	mov	QWORD PTR output$[rsp], 0
; Line 34
	lea	rdx, OFFSET FLAT:$SG31550
	mov	rcx, QWORD PTR fileName$[rsp]
	call	fopen
	mov	QWORD PTR output$[rsp], rax
; Line 35
	cmp	QWORD PTR output$[rsp], 0
	jne	SHORT $LN1@writeBinar
; Line 36
	xor	al, al
	jmp	SHORT $LN2@writeBinar
$LN1@writeBinar:
; Line 38
	mov	r9, QWORD PTR output$[rsp]
	mov	r8, QWORD PTR numBytes$[rsp]
	mov	edx, 1
	mov	rcx, QWORD PTR birary$[rsp]
	call	fwrite
; Line 39
	mov	rcx, QWORD PTR output$[rsp]
	call	fclose
; Line 41
	mov	al, 1
$LN2@writeBinar:
; Line 42
	add	rsp, 48					; 00000030H
	pop	rdi
	ret	0
?writeBinaryToFile@SDKFile@streamsdk@@QEAA_NPEBD0_K@Z ENDP ; streamsdk::SDKFile::writeBinaryToFile
_TEXT	ENDS
PUBLIC	?assign@?$basic_string@DU?$char_traits@D@std@@V?$allocator@D@2@@std@@QEAAAEAV12@PEBD_K@Z ; std::basic_string<char,std::char_traits<char>,std::allocator<char> >::assign
PUBLIC	?readBinaryFromFile@SDKFile@streamsdk@@QEAA_NPEBD@Z ; streamsdk::SDKFile::readBinaryFromFile
EXTRN	free:PROC
EXTRN	fread:PROC
EXTRN	malloc:PROC
EXTRN	rewind:PROC
EXTRN	ftell:PROC
EXTRN	fseek:PROC
pdata	SEGMENT
$pdata$?readBinaryFromFile@SDKFile@streamsdk@@QEAA_NPEBD@Z DD imagerel $LN5
	DD	imagerel $LN5+244
	DD	imagerel $unwind$?readBinaryFromFile@SDKFile@streamsdk@@QEAA_NPEBD@Z
pdata	ENDS
xdata	SEGMENT
$unwind$?readBinaryFromFile@SDKFile@streamsdk@@QEAA_NPEBD@Z DD 022301H
	DD	0700b720fH
; Function compile flags: /Odtp /RTCsu
xdata	ENDS
_TEXT	SEGMENT
input$ = 32
size$ = 40
binary$ = 48
this$ = 80
fileName$ = 88
?readBinaryFromFile@SDKFile@streamsdk@@QEAA_NPEBD@Z PROC ; streamsdk::SDKFile::readBinaryFromFile
; Line 47
$LN5:
	mov	QWORD PTR [rsp+16], rdx
	mov	QWORD PTR [rsp+8], rcx
	push	rdi
	sub	rsp, 64					; 00000040H
	mov	rdi, rsp
	mov	ecx, 16
	mov	eax, -858993460				; ccccccccH
	rep stosd
	mov	rcx, QWORD PTR [rsp+80]
; Line 48
	mov	QWORD PTR input$[rsp], 0
; Line 49
	mov	QWORD PTR size$[rsp], 0
; Line 50
	mov	QWORD PTR binary$[rsp], 0
; Line 52
	lea	rdx, OFFSET FLAT:$SG31560
	mov	rcx, QWORD PTR fileName$[rsp]
	call	fopen
	mov	QWORD PTR input$[rsp], rax
; Line 53
	cmp	QWORD PTR input$[rsp], 0
	jne	SHORT $LN2@readBinary
; Line 55
	xor	al, al
	jmp	$LN3@readBinary
$LN2@readBinary:
; Line 58
	mov	r8d, 2
	xor	edx, edx
	mov	rcx, QWORD PTR input$[rsp]
	call	fseek
; Line 59
	mov	rcx, QWORD PTR input$[rsp]
	call	ftell
	cdqe
	mov	QWORD PTR size$[rsp], rax
; Line 60
	mov	rcx, QWORD PTR input$[rsp]
	call	rewind
; Line 61
	mov	rcx, QWORD PTR size$[rsp]
	call	malloc
	mov	QWORD PTR binary$[rsp], rax
; Line 62
	cmp	QWORD PTR binary$[rsp], 0
	jne	SHORT $LN1@readBinary
; Line 64
	xor	al, al
	jmp	SHORT $LN3@readBinary
$LN1@readBinary:
; Line 66
	mov	r9, QWORD PTR input$[rsp]
	mov	r8, QWORD PTR size$[rsp]
	mov	edx, 1
	mov	rcx, QWORD PTR binary$[rsp]
	call	fread
; Line 67
	mov	rcx, QWORD PTR input$[rsp]
	call	fclose
; Line 68
	mov	r8, QWORD PTR size$[rsp]
	mov	rdx, QWORD PTR binary$[rsp]
	mov	rcx, QWORD PTR this$[rsp]
	call	?assign@?$basic_string@DU?$char_traits@D@std@@V?$allocator@D@2@@std@@QEAAAEAV12@PEBD_K@Z ; std::basic_string<char,std::char_traits<char>,std::allocator<char> >::assign
; Line 69
	mov	rcx, QWORD PTR binary$[rsp]
	call	free
; Line 71
	mov	al, 1
$LN3@readBinary:
; Line 72
	add	rsp, 64					; 00000040H
	pop	rdi
	ret	0
?readBinaryFromFile@SDKFile@streamsdk@@QEAA_NPEBD@Z ENDP ; streamsdk::SDKFile::readBinaryFromFile
_TEXT	ENDS
PUBLIC	??4?$basic_string@DU?$char_traits@D@std@@V?$allocator@D@2@@std@@QEAAAEAV01@PEBD@Z ; std::basic_string<char,std::char_traits<char>,std::allocator<char> >::operator=
PUBLIC	?read@?$basic_istream@DU?$char_traits@D@std@@@std@@QEAAAEAV12@PEAD_J@Z ; std::basic_istream<char,std::char_traits<char> >::read
PUBLIC	??_D?$basic_fstream@DU?$char_traits@D@std@@@std@@QEAAXXZ ; std::basic_fstream<char,std::char_traits<char> >::`vbase destructor'
PUBLIC	?close@?$basic_fstream@DU?$char_traits@D@std@@@std@@QEAAXXZ ; std::basic_fstream<char,std::char_traits<char> >::close
PUBLIC	??B?$fpos@H@std@@QEBA_JXZ			; std::fpos<int>::operator __int64
PUBLIC	?tellg@?$basic_istream@DU?$char_traits@D@std@@@std@@QEAA?AV?$fpos@H@2@XZ ; std::basic_istream<char,std::char_traits<char> >::tellg
PUBLIC	?seekg@?$basic_istream@DU?$char_traits@D@std@@@std@@QEAAAEAV12@_JH@Z ; std::basic_istream<char,std::char_traits<char> >::seekg
PUBLIC	?is_open@?$basic_fstream@DU?$char_traits@D@std@@@std@@QEBA_NXZ ; std::basic_fstream<char,std::char_traits<char> >::is_open
PUBLIC	??0?$basic_fstream@DU?$char_traits@D@std@@@std@@QEAA@PEBDHH@Z ; std::basic_fstream<char,std::char_traits<char> >::basic_fstream<char,std::char_traits<char> >
PUBLIC	?open@SDKFile@streamsdk@@QEAA_NPEBD@Z		; streamsdk::SDKFile::open
EXTRN	__CxxFrameHandler3:PROC
EXTRN	??_V@YAXPEAX@Z:PROC				; operator delete[]
EXTRN	??_U@YAPEAX_K@Z:PROC				; operator new[]
pdata	SEGMENT
$pdata$?open@SDKFile@streamsdk@@QEAA_NPEBD@Z DD imagerel $LN6
	DD	imagerel $LN6+459
	DD	imagerel $unwind$?open@SDKFile@streamsdk@@QEAA_NPEBD@Z
pdata	ENDS
pdata	SEGMENT
$pdata$?dtor$0@?0??open@SDKFile@streamsdk@@QEAA_NPEBD@Z@4HA DD imagerel ?dtor$0@?0??open@SDKFile@streamsdk@@QEAA_NPEBD@Z@4HA
	DD	imagerel ?dtor$0@?0??open@SDKFile@streamsdk@@QEAA_NPEBD@Z@4HA+35
	DD	imagerel $unwind$?dtor$0@?0??open@SDKFile@streamsdk@@QEAA_NPEBD@Z@4HA
pdata	ENDS
xdata	SEGMENT
$stateUnwindMap$?open@SDKFile@streamsdk@@QEAA_NPEBD@Z DD 0ffffffffH
	DD	imagerel ?dtor$0@?0??open@SDKFile@streamsdk@@QEAA_NPEBD@Z@4HA
$unwind$?open@SDKFile@streamsdk@@QEAA_NPEBD@Z DD 033511H
	DD	0380112H
	DD	0700bH
	DD	imagerel __CxxFrameHandler3
	DD	imagerel $cppxdata$?open@SDKFile@streamsdk@@QEAA_NPEBD@Z
$unwind$?dtor$0@?0??open@SDKFile@streamsdk@@QEAA_NPEBD@Z@4HA DD 031001H
	DD	0700c4210H
	DD	0500bH
$ip2state$?open@SDKFile@streamsdk@@QEAA_NPEBD@Z DD imagerel ?open@SDKFile@streamsdk@@QEAA_NPEBD@Z
	DD	0ffffffffH
	DD	imagerel ?open@SDKFile@streamsdk@@QEAA_NPEBD@Z+92
	DD	00H
	DD	imagerel ?open@SDKFile@streamsdk@@QEAA_NPEBD@Z+256
	DD	0ffffffffH
	DD	imagerel ?open@SDKFile@streamsdk@@QEAA_NPEBD@Z+279
	DD	00H
	DD	imagerel ?open@SDKFile@streamsdk@@QEAA_NPEBD@Z+383
	DD	0ffffffffH
	DD	imagerel ?open@SDKFile@streamsdk@@QEAA_NPEBD@Z+403
	DD	00H
	DD	imagerel ?open@SDKFile@streamsdk@@QEAA_NPEBD@Z+411
	DD	0ffffffffH
xdata	ENDS
CONST	SEGMENT
?open@SDKFile@streamsdk@@QEAA_NPEBD@Z$rtcName$0 DB 066H	; streamsdk::SDKFile::open
	DB	00H
	ORG $+14
?open@SDKFile@streamsdk@@QEAA_NPEBD@Z$rtcVarDesc DD 050H ; streamsdk::SDKFile::open
	DD	0118H
	DQ	FLAT:?open@SDKFile@streamsdk@@QEAA_NPEBD@Z$rtcName$0
	ORG $+48
?open@SDKFile@streamsdk@@QEAA_NPEBD@Z$rtcFrameData DD 01H ; streamsdk::SDKFile::open
	DD	00H
	DQ	FLAT:?open@SDKFile@streamsdk@@QEAA_NPEBD@Z$rtcVarDesc
$cppxdata$?open@SDKFile@streamsdk@@QEAA_NPEBD@Z DD 019930522H
	DD	01H
	DD	imagerel $stateUnwindMap$?open@SDKFile@streamsdk@@QEAA_NPEBD@Z
	DD	00H
	DD	00H
	DD	07H
	DD	imagerel $ip2state$?open@SDKFile@streamsdk@@QEAA_NPEBD@Z
	DD	01b8H
	DD	00H
	DD	01H
; Function compile flags: /Odtp /RTCsu
CONST	ENDS
_TEXT	SEGMENT
size$ = 48
str$ = 56
f$ = 80
sizeFile$31847 = 376
$T37646 = 384
$T37647 = 408
$T37648 = 416
$T37649 = 424
$T37650 = 432
$T37651 = 433
$T37655 = 440
this$ = 464
fileName$ = 472
?open@SDKFile@streamsdk@@QEAA_NPEBD@Z PROC		; streamsdk::SDKFile::open
; Line 80
$LN6:
	mov	QWORD PTR [rsp+16], rdx
	mov	QWORD PTR [rsp+8], rcx
	push	rdi
	sub	rsp, 448				; 000001c0H
	mov	rdi, rsp
	mov	ecx, 112				; 00000070H
	mov	eax, -858993460				; ccccccccH
	rep stosd
	mov	rcx, QWORD PTR [rsp+464]
	mov	QWORD PTR $T37655[rsp], -2
; Line 85
	mov	DWORD PTR [rsp+32], 1
	mov	r9d, 64					; 00000040H
	mov	r8d, 33					; 00000021H
	mov	rdx, QWORD PTR fileName$[rsp]
	lea	rcx, QWORD PTR f$[rsp]
	call	??0?$basic_fstream@DU?$char_traits@D@std@@@std@@QEAA@PEBDHH@Z ; std::basic_fstream<char,std::char_traits<char> >::basic_fstream<char,std::char_traits<char> >
	npad	1
; Line 88
	lea	rcx, QWORD PTR f$[rsp]
	call	?is_open@?$basic_fstream@DU?$char_traits@D@std@@@std@@QEBA_NXZ ; std::basic_fstream<char,std::char_traits<char> >::is_open
	movzx	eax, al
	test	eax, eax
	je	$LN2@open
; Line 91
	mov	r8d, 2
	xor	edx, edx
	lea	rcx, QWORD PTR f$[rsp]
	call	?seekg@?$basic_istream@DU?$char_traits@D@std@@@std@@QEAAAEAV12@_JH@Z ; std::basic_istream<char,std::char_traits<char> >::seekg
; Line 92
	lea	rdx, QWORD PTR $T37646[rsp]
	lea	rcx, QWORD PTR f$[rsp]
	call	?tellg@?$basic_istream@DU?$char_traits@D@std@@@std@@QEAA?AV?$fpos@H@2@XZ ; std::basic_istream<char,std::char_traits<char> >::tellg
	mov	rcx, rax
	call	??B?$fpos@H@std@@QEBA_JXZ		; std::fpos<int>::operator __int64
	mov	QWORD PTR sizeFile$31847[rsp], rax
	mov	rax, QWORD PTR sizeFile$31847[rsp]
	mov	QWORD PTR size$[rsp], rax
; Line 93
	xor	r8d, r8d
	xor	edx, edx
	lea	rcx, QWORD PTR f$[rsp]
	call	?seekg@?$basic_istream@DU?$char_traits@D@std@@@std@@QEAAAEAV12@_JH@Z ; std::basic_istream<char,std::char_traits<char> >::seekg
; Line 95
	mov	rax, QWORD PTR size$[rsp]
	inc	rax
	mov	rcx, rax
	call	??_U@YAPEAX_K@Z				; operator new[]
	mov	QWORD PTR $T37647[rsp], rax
	mov	rax, QWORD PTR $T37647[rsp]
	mov	QWORD PTR str$[rsp], rax
; Line 96
	cmp	QWORD PTR str$[rsp], 0
	jne	SHORT $LN1@open
; Line 97
	lea	rcx, QWORD PTR f$[rsp]
	call	?close@?$basic_fstream@DU?$char_traits@D@std@@@std@@QEAAXXZ ; std::basic_fstream<char,std::char_traits<char> >::close
; Line 98
	mov	BYTE PTR $T37648[rsp], 0
	lea	rcx, QWORD PTR f$[rsp]
	call	??_D?$basic_fstream@DU?$char_traits@D@std@@@std@@QEAAXXZ
	movzx	eax, BYTE PTR $T37648[rsp]
	jmp	$LN3@open
$LN1@open:
; Line 102
	mov	r8, QWORD PTR sizeFile$31847[rsp]
	mov	rdx, QWORD PTR str$[rsp]
	lea	rcx, QWORD PTR f$[rsp]
	call	?read@?$basic_istream@DU?$char_traits@D@std@@@std@@QEAAAEAV12@PEAD_J@Z ; std::basic_istream<char,std::char_traits<char> >::read
; Line 103
	lea	rcx, QWORD PTR f$[rsp]
	call	?close@?$basic_fstream@DU?$char_traits@D@std@@@std@@QEAAXXZ ; std::basic_fstream<char,std::char_traits<char> >::close
; Line 104
	mov	rax, QWORD PTR size$[rsp]
	mov	rcx, QWORD PTR str$[rsp]
	add	rcx, rax
	mov	rax, rcx
	mov	BYTE PTR [rax], 0
; Line 106
	mov	rdx, QWORD PTR str$[rsp]
	mov	rcx, QWORD PTR this$[rsp]
	call	??4?$basic_string@DU?$char_traits@D@std@@V?$allocator@D@2@@std@@QEAAAEAV01@PEBD@Z ; std::basic_string<char,std::char_traits<char>,std::allocator<char> >::operator=
; Line 108
	mov	rax, QWORD PTR str$[rsp]
	mov	QWORD PTR $T37649[rsp], rax
	mov	rcx, QWORD PTR $T37649[rsp]
	call	??_V@YAXPEAX@Z				; operator delete[]
; Line 110
	mov	BYTE PTR $T37650[rsp], 1
	lea	rcx, QWORD PTR f$[rsp]
	call	??_D?$basic_fstream@DU?$char_traits@D@std@@@std@@QEAAXXZ
	movzx	eax, BYTE PTR $T37650[rsp]
	jmp	SHORT $LN3@open
$LN2@open:
; Line 113
	mov	BYTE PTR $T37651[rsp], 0
	lea	rcx, QWORD PTR f$[rsp]
	call	??_D?$basic_fstream@DU?$char_traits@D@std@@@std@@QEAAXXZ
	movzx	eax, BYTE PTR $T37651[rsp]
$LN3@open:
; Line 114
	mov	rdi, rax
	mov	rcx, rsp
	lea	rdx, OFFSET FLAT:?open@SDKFile@streamsdk@@QEAA_NPEBD@Z$rtcFrameData
	call	_RTC_CheckStackVars
	mov	rax, rdi
	add	rsp, 448				; 000001c0H
	pop	rdi
	ret	0
?open@SDKFile@streamsdk@@QEAA_NPEBD@Z ENDP		; streamsdk::SDKFile::open
; Function compile flags: /Odtp /RTCsu
_TEXT	ENDS
text$x	SEGMENT
size$ = 48
str$ = 56
f$ = 80
sizeFile$31847 = 376
$T37646 = 384
$T37647 = 408
$T37648 = 416
$T37649 = 424
$T37650 = 432
$T37651 = 433
$T37655 = 440
this$ = 464
fileName$ = 472
?dtor$0@?0??open@SDKFile@streamsdk@@QEAA_NPEBD@Z@4HA PROC ; `streamsdk::SDKFile::open'::`1'::dtor$0
	mov	QWORD PTR [rsp+8], rcx
	mov	QWORD PTR [rsp+16], rdx
	push	rbp
	push	rdi
	sub	rsp, 40					; 00000028H
	mov	rbp, rdx
	lea	rcx, QWORD PTR f$[rbp]
	call	??_D?$basic_fstream@DU?$char_traits@D@std@@@std@@QEAAXXZ
	add	rsp, 40					; 00000028H
	pop	rdi
	pop	rbp
	ret	0
?dtor$0@?0??open@SDKFile@streamsdk@@QEAA_NPEBD@Z@4HA ENDP ; `streamsdk::SDKFile::open'::`1'::dtor$0
text$x	ENDS
PUBLIC	??1?$basic_ios@DU?$char_traits@D@std@@@std@@UEAA@XZ ; std::basic_ios<char,std::char_traits<char> >::~basic_ios<char,std::char_traits<char> >
PUBLIC	??1?$basic_fstream@DU?$char_traits@D@std@@@std@@UEAA@XZ ; std::basic_fstream<char,std::char_traits<char> >::~basic_fstream<char,std::char_traits<char> >
;	COMDAT pdata
pdata	SEGMENT
$pdata$??_D?$basic_fstream@DU?$char_traits@D@std@@@std@@QEAAXXZ DD imagerel $LN3
	DD	imagerel $LN3+74
	DD	imagerel $unwind$??_D?$basic_fstream@DU?$char_traits@D@std@@@std@@QEAAXXZ
pdata	ENDS
;	COMDAT xdata
xdata	SEGMENT
$unwind$??_D?$basic_fstream@DU?$char_traits@D@std@@@std@@QEAAXXZ DD 021e01H
	DD	07006320aH
; Function compile flags: /Odtp /RTCsu
xdata	ENDS
;	COMDAT ??_D?$basic_fstream@DU?$char_traits@D@std@@@std@@QEAAXXZ
_TEXT	SEGMENT
this$ = 48
??_D?$basic_fstream@DU?$char_traits@D@std@@@std@@QEAAXXZ PROC ; std::basic_fstream<char,std::char_traits<char> >::`vbase destructor', COMDAT
$LN3:
	mov	QWORD PTR [rsp+8], rcx
	push	rdi
	sub	rsp, 32					; 00000020H
	mov	rdi, rsp
	mov	ecx, 8
	mov	eax, -858993460				; ccccccccH
	rep stosd
	mov	rcx, QWORD PTR [rsp+48]
	mov	rax, QWORD PTR this$[rsp]
	add	rax, 184				; 000000b8H
	mov	rcx, rax
	call	??1?$basic_fstream@DU?$char_traits@D@std@@@std@@UEAA@XZ ; std::basic_fstream<char,std::char_traits<char> >::~basic_fstream<char,std::char_traits<char> >
	mov	rax, QWORD PTR this$[rsp]
	add	rax, 184				; 000000b8H
	mov	rcx, rax
	call	??1?$basic_ios@DU?$char_traits@D@std@@@std@@UEAA@XZ ; std::basic_ios<char,std::char_traits<char> >::~basic_ios<char,std::char_traits<char> >
	add	rsp, 32					; 00000020H
	pop	rdi
	ret	0
??_D?$basic_fstream@DU?$char_traits@D@std@@@std@@QEAAXXZ ENDP ; std::basic_fstream<char,std::char_traits<char> >::`vbase destructor'
_TEXT	ENDS
PUBLIC	??1?$_String_val@DV?$allocator@D@std@@@std@@QEAA@XZ ; std::_String_val<char,std::allocator<char> >::~_String_val<char,std::allocator<char> >
PUBLIC	?assign@?$basic_string@DU?$char_traits@D@std@@V?$allocator@D@2@@std@@QEAAAEAV12@PEBD@Z ; std::basic_string<char,std::char_traits<char>,std::allocator<char> >::assign
PUBLIC	?_Tidy@?$basic_string@DU?$char_traits@D@std@@V?$allocator@D@2@@std@@QEAAX_N_K@Z ; std::basic_string<char,std::char_traits<char>,std::allocator<char> >::_Tidy
PUBLIC	??0?$_String_val@DV?$allocator@D@std@@@std@@QEAA@V?$allocator@D@1@@Z ; std::_String_val<char,std::allocator<char> >::_String_val<char,std::allocator<char> >
PUBLIC	??0?$allocator@D@std@@QEAA@XZ			; std::allocator<char>::allocator<char>
;	COMDAT pdata
; File c:\program files (x86)\microsoft visual studio 10.0\vc\include\xstring
pdata	SEGMENT
$pdata$??0?$basic_string@DU?$char_traits@D@std@@V?$allocator@D@2@@std@@QEAA@PEBD@Z DD imagerel $LN4
	DD	imagerel $LN4+120
	DD	imagerel $unwind$??0?$basic_string@DU?$char_traits@D@std@@V?$allocator@D@2@@std@@QEAA@PEBD@Z
pdata	ENDS
;	COMDAT pdata
pdata	SEGMENT
$pdata$?dtor$0@?0???0?$basic_string@DU?$char_traits@D@std@@V?$allocator@D@2@@std@@QEAA@PEBD@Z@4HA DD imagerel ?dtor$0@?0???0?$basic_string@DU?$char_traits@D@std@@V?$allocator@D@2@@std@@QEAA@PEBD@Z@4HA
	DD	imagerel ?dtor$0@?0???0?$basic_string@DU?$char_traits@D@std@@V?$allocator@D@2@@std@@QEAA@PEBD@Z@4HA+35
	DD	imagerel $unwind$?dtor$0@?0???0?$basic_string@DU?$char_traits@D@std@@V?$allocator@D@2@@std@@QEAA@PEBD@Z@4HA
pdata	ENDS
;	COMDAT xdata
xdata	SEGMENT
$ip2state$??0?$basic_string@DU?$char_traits@D@std@@V?$allocator@D@2@@std@@QEAA@PEBD@Z DD imagerel ??0?$basic_string@DU?$char_traits@D@std@@V?$allocator@D@2@@std@@QEAA@PEBD@Z
	DD	0ffffffffH
	DD	imagerel ??0?$basic_string@DU?$char_traits@D@std@@V?$allocator@D@2@@std@@QEAA@PEBD@Z+78
	DD	00H
	DD	imagerel ??0?$basic_string@DU?$char_traits@D@std@@V?$allocator@D@2@@std@@QEAA@PEBD@Z+109
	DD	0ffffffffH
xdata	ENDS
;	COMDAT xdata
xdata	SEGMENT
$unwind$?dtor$0@?0???0?$basic_string@DU?$char_traits@D@std@@V?$allocator@D@2@@std@@QEAA@PEBD@Z@4HA DD 031001H
	DD	0700c4210H
	DD	0500bH
xdata	ENDS
;	COMDAT xdata
xdata	SEGMENT
$unwind$??0?$basic_string@DU?$char_traits@D@std@@V?$allocator@D@2@@std@@QEAA@PEBD@Z DD 022c11H
	DD	0700b720fH
	DD	imagerel __CxxFrameHandler3
	DD	imagerel $cppxdata$??0?$basic_string@DU?$char_traits@D@std@@V?$allocator@D@2@@std@@QEAA@PEBD@Z
xdata	ENDS
;	COMDAT CONST
CONST	SEGMENT
$cppxdata$??0?$basic_string@DU?$char_traits@D@std@@V?$allocator@D@2@@std@@QEAA@PEBD@Z DD 019930522H
	DD	01H
	DD	imagerel $stateUnwindMap$??0?$basic_string@DU?$char_traits@D@std@@V?$allocator@D@2@@std@@QEAA@PEBD@Z
	DD	00H
	DD	00H
	DD	03H
	DD	imagerel $ip2state$??0?$basic_string@DU?$char_traits@D@std@@V?$allocator@D@2@@std@@QEAA@PEBD@Z
	DD	030H
	DD	00H
	DD	01H
CONST	ENDS
;	COMDAT xdata
xdata	SEGMENT
$stateUnwindMap$??0?$basic_string@DU?$char_traits@D@std@@V?$allocator@D@2@@std@@QEAA@PEBD@Z DD 0ffffffffH
	DD	imagerel ?dtor$0@?0???0?$basic_string@DU?$char_traits@D@std@@V?$allocator@D@2@@std@@QEAA@PEBD@Z@4HA
; Function compile flags: /Odtp /RTCsu
xdata	ENDS
;	COMDAT ??0?$basic_string@DU?$char_traits@D@std@@V?$allocator@D@2@@std@@QEAA@PEBD@Z
_TEXT	SEGMENT
$T37676 = 32
$T37677 = 40
$T37683 = 48
this$ = 80
_Ptr$ = 88
??0?$basic_string@DU?$char_traits@D@std@@V?$allocator@D@2@@std@@QEAA@PEBD@Z PROC ; std::basic_string<char,std::char_traits<char>,std::allocator<char> >::basic_string<char,std::char_traits<char>,std::allocator<char> >, COMDAT
; Line 592
$LN4:
	mov	QWORD PTR [rsp+16], rdx
	mov	QWORD PTR [rsp+8], rcx
	push	rdi
	sub	rsp, 64					; 00000040H
	mov	rdi, rsp
	mov	ecx, 16
	mov	eax, -858993460				; ccccccccH
	rep stosd
	mov	rcx, QWORD PTR [rsp+80]
	mov	QWORD PTR $T37683[rsp], -2
	lea	rax, QWORD PTR $T37676[rsp]
	mov	QWORD PTR $T37677[rsp], rax
	mov	rcx, QWORD PTR $T37677[rsp]
	call	??0?$allocator@D@std@@QEAA@XZ		; std::allocator<char>::allocator<char>
	mov	rdx, rax
	mov	rcx, QWORD PTR this$[rsp]
	call	??0?$_String_val@DV?$allocator@D@std@@@std@@QEAA@V?$allocator@D@1@@Z ; std::_String_val<char,std::allocator<char> >::_String_val<char,std::allocator<char> >
	npad	1
; Line 593
	xor	r8d, r8d
	xor	edx, edx
	mov	rcx, QWORD PTR this$[rsp]
	call	?_Tidy@?$basic_string@DU?$char_traits@D@std@@V?$allocator@D@2@@std@@QEAAX_N_K@Z ; std::basic_string<char,std::char_traits<char>,std::allocator<char> >::_Tidy
; Line 594
	mov	rdx, QWORD PTR _Ptr$[rsp]
	mov	rcx, QWORD PTR this$[rsp]
	call	?assign@?$basic_string@DU?$char_traits@D@std@@V?$allocator@D@2@@std@@QEAAAEAV12@PEBD@Z ; std::basic_string<char,std::char_traits<char>,std::allocator<char> >::assign
	npad	1
; Line 595
	mov	rax, QWORD PTR this$[rsp]
	add	rsp, 64					; 00000040H
	pop	rdi
	ret	0
??0?$basic_string@DU?$char_traits@D@std@@V?$allocator@D@2@@std@@QEAA@PEBD@Z ENDP ; std::basic_string<char,std::char_traits<char>,std::allocator<char> >::basic_string<char,std::char_traits<char>,std::allocator<char> >
; Function compile flags: /Odtp /RTCsu
_TEXT	ENDS
;	COMDAT text$x
text$x	SEGMENT
$T37676 = 32
$T37677 = 40
$T37683 = 48
this$ = 80
_Ptr$ = 88
?dtor$0@?0???0?$basic_string@DU?$char_traits@D@std@@V?$allocator@D@2@@std@@QEAA@PEBD@Z@4HA PROC ; `std::basic_string<char,std::char_traits<char>,std::allocator<char> >::basic_string<char,std::char_traits<char>,std::allocator<char> >'::`1'::dtor$0
	mov	QWORD PTR [rsp+8], rcx
	mov	QWORD PTR [rsp+16], rdx
	push	rbp
	push	rdi
	sub	rsp, 40					; 00000028H
	mov	rbp, rdx
	mov	rcx, QWORD PTR this$[rbp]
	call	??1?$_String_val@DV?$allocator@D@std@@@std@@QEAA@XZ ; std::_String_val<char,std::allocator<char> >::~_String_val<char,std::allocator<char> >
	add	rsp, 40					; 00000028H
	pop	rdi
	pop	rbp
	ret	0
?dtor$0@?0???0?$basic_string@DU?$char_traits@D@std@@V?$allocator@D@2@@std@@QEAA@PEBD@Z@4HA ENDP ; `std::basic_string<char,std::char_traits<char>,std::allocator<char> >::basic_string<char,std::char_traits<char>,std::allocator<char> >'::`1'::dtor$0
text$x	ENDS
;	COMDAT pdata
pdata	SEGMENT
$pdata$??4?$basic_string@DU?$char_traits@D@std@@V?$allocator@D@2@@std@@QEAAAEAV01@PEBD@Z DD imagerel $LN3
	DD	imagerel $LN3+56
	DD	imagerel $unwind$??4?$basic_string@DU?$char_traits@D@std@@V?$allocator@D@2@@std@@QEAAAEAV01@PEBD@Z
pdata	ENDS
;	COMDAT xdata
xdata	SEGMENT
$unwind$??4?$basic_string@DU?$char_traits@D@std@@V?$allocator@D@2@@std@@QEAAAEAV01@PEBD@Z DD 022301H
	DD	0700b320fH
; Function compile flags: /Odtp /RTCsu
xdata	ENDS
;	COMDAT ??4?$basic_string@DU?$char_traits@D@std@@V?$allocator@D@2@@std@@QEAAAEAV01@PEBD@Z
_TEXT	SEGMENT
this$ = 48
_Ptr$ = 56
??4?$basic_string@DU?$char_traits@D@std@@V?$allocator@D@2@@std@@QEAAAEAV01@PEBD@Z PROC ; std::basic_string<char,std::char_traits<char>,std::allocator<char> >::operator=, COMDAT
; Line 767
$LN3:
	mov	QWORD PTR [rsp+16], rdx
	mov	QWORD PTR [rsp+8], rcx
	push	rdi
	sub	rsp, 32					; 00000020H
	mov	rdi, rsp
	mov	ecx, 8
	mov	eax, -858993460				; ccccccccH
	rep stosd
	mov	rcx, QWORD PTR [rsp+48]
; Line 768
	mov	rdx, QWORD PTR _Ptr$[rsp]
	mov	rcx, QWORD PTR this$[rsp]
	call	?assign@?$basic_string@DU?$char_traits@D@std@@V?$allocator@D@2@@std@@QEAAAEAV12@PEBD@Z ; std::basic_string<char,std::char_traits<char>,std::allocator<char> >::assign
; Line 769
	add	rsp, 32					; 00000020H
	pop	rdi
	ret	0
??4?$basic_string@DU?$char_traits@D@std@@V?$allocator@D@2@@std@@QEAAAEAV01@PEBD@Z ENDP ; std::basic_string<char,std::char_traits<char>,std::allocator<char> >::operator=
_TEXT	ENDS
PUBLIC	?_Eos@?$basic_string@DU?$char_traits@D@std@@V?$allocator@D@2@@std@@QEAAX_K@Z ; std::basic_string<char,std::char_traits<char>,std::allocator<char> >::_Eos
PUBLIC	?copy@?$char_traits@D@std@@SAPEADPEADPEBD_K@Z	; std::char_traits<char>::copy
PUBLIC	?_Grow@?$basic_string@DU?$char_traits@D@std@@V?$allocator@D@2@@std@@QEAA_N_K_N@Z ; std::basic_string<char,std::char_traits<char>,std::allocator<char> >::_Grow
PUBLIC	?assign@?$basic_string@DU?$char_traits@D@std@@V?$allocator@D@2@@std@@QEAAAEAV12@AEBV12@_K1@Z ; std::basic_string<char,std::char_traits<char>,std::allocator<char> >::assign
PUBLIC	?_Myptr@?$basic_string@DU?$char_traits@D@std@@V?$allocator@D@2@@std@@QEAAPEADXZ ; std::basic_string<char,std::char_traits<char>,std::allocator<char> >::_Myptr
PUBLIC	?_Inside@?$basic_string@DU?$char_traits@D@std@@V?$allocator@D@2@@std@@QEAA_NPEBD@Z ; std::basic_string<char,std::char_traits<char>,std::allocator<char> >::_Inside
PUBLIC	??$_Debug_pointer@D@std@@YAXPEBDPEB_WI@Z	; std::_Debug_pointer<char>
PUBLIC	??_C@_1IO@FJMIILFL@?$AAc?$AA?3?$AA?2?$AAP?$AAr?$AAo?$AAg?$AAr?$AAa?$AAm?$AA?5?$AAF?$AAi?$AAl?$AAe?$AAs?$AA?5?$AA?$CI?$AAx?$AA8?$AA6?$AA?$CJ?$AA?2?$AAM?$AAi?$AAc?$AAr?$AAo?$AAs?$AAo?$AAf?$AAt@ ; `string'
;	COMDAT pdata
pdata	SEGMENT
$pdata$?assign@?$basic_string@DU?$char_traits@D@std@@V?$allocator@D@2@@std@@QEAAAEAV12@PEBD_K@Z DD imagerel $LN6
	DD	imagerel $LN6+218
	DD	imagerel $unwind$?assign@?$basic_string@DU?$char_traits@D@std@@V?$allocator@D@2@@std@@QEAAAEAV12@PEBD_K@Z
pdata	ENDS
;	COMDAT xdata
xdata	SEGMENT
$unwind$?assign@?$basic_string@DU?$char_traits@D@std@@V?$allocator@D@2@@std@@QEAAAEAV12@PEBD_K@Z DD 022801H
	DD	070103214H
xdata	ENDS
;	COMDAT ??_C@_1IO@FJMIILFL@?$AAc?$AA?3?$AA?2?$AAP?$AAr?$AAo?$AAg?$AAr?$AAa?$AAm?$AA?5?$AAF?$AAi?$AAl?$AAe?$AAs?$AA?5?$AA?$CI?$AAx?$AA8?$AA6?$AA?$CJ?$AA?2?$AAM?$AAi?$AAc?$AAr?$AAo?$AAs?$AAo?$AAf?$AAt@
CONST	SEGMENT
??_C@_1IO@FJMIILFL@?$AAc?$AA?3?$AA?2?$AAP?$AAr?$AAo?$AAg?$AAr?$AAa?$AAm?$AA?5?$AAF?$AAi?$AAl?$AAe?$AAs?$AA?5?$AA?$CI?$AAx?$AA8?$AA6?$AA?$CJ?$AA?2?$AAM?$AAi?$AAc?$AAr?$AAo?$AAs?$AAo?$AAf?$AAt@ DB 'c'
	DB	00H, ':', 00H, '\', 00H, 'P', 00H, 'r', 00H, 'o', 00H, 'g', 00H
	DB	'r', 00H, 'a', 00H, 'm', 00H, ' ', 00H, 'F', 00H, 'i', 00H, 'l'
	DB	00H, 'e', 00H, 's', 00H, ' ', 00H, '(', 00H, 'x', 00H, '8', 00H
	DB	'6', 00H, ')', 00H, '\', 00H, 'M', 00H, 'i', 00H, 'c', 00H, 'r'
	DB	00H, 'o', 00H, 's', 00H, 'o', 00H, 'f', 00H, 't', 00H, ' ', 00H
	DB	'V', 00H, 'i', 00H, 's', 00H, 'u', 00H, 'a', 00H, 'l', 00H, ' '
	DB	00H, 'S', 00H, 't', 00H, 'u', 00H, 'd', 00H, 'i', 00H, 'o', 00H
	DB	' ', 00H, '1', 00H, '0', 00H, '.', 00H, '0', 00H, '\', 00H, 'V'
	DB	00H, 'C', 00H, '\', 00H, 'i', 00H, 'n', 00H, 'c', 00H, 'l', 00H
	DB	'u', 00H, 'd', 00H, 'e', 00H, '\', 00H, 'x', 00H, 's', 00H, 't'
	DB	00H, 'r', 00H, 'i', 00H, 'n', 00H, 'g', 00H, 00H, 00H ; `string'
; Function compile flags: /Odtp /RTCsu
CONST	ENDS
;	COMDAT ?assign@?$basic_string@DU?$char_traits@D@std@@V?$allocator@D@2@@std@@QEAAAEAV12@PEBD_K@Z
_TEXT	SEGMENT
this$ = 48
_Ptr$ = 56
_Count$ = 64
?assign@?$basic_string@DU?$char_traits@D@std@@V?$allocator@D@2@@std@@QEAAAEAV12@PEBD_K@Z PROC ; std::basic_string<char,std::char_traits<char>,std::allocator<char> >::assign, COMDAT
; Line 910
$LN6:
	mov	QWORD PTR [rsp+24], r8
	mov	QWORD PTR [rsp+16], rdx
	mov	QWORD PTR [rsp+8], rcx
	push	rdi
	sub	rsp, 32					; 00000020H
	mov	rdi, rsp
	mov	ecx, 8
	mov	eax, -858993460				; ccccccccH
	rep stosd
	mov	rcx, QWORD PTR [rsp+48]
; Line 912
	cmp	QWORD PTR _Count$[rsp], 0
	je	SHORT $LN3@assign
; Line 913
	mov	r8d, 913				; 00000391H
	lea	rdx, OFFSET FLAT:??_C@_1IO@FJMIILFL@?$AAc?$AA?3?$AA?2?$AAP?$AAr?$AAo?$AAg?$AAr?$AAa?$AAm?$AA?5?$AAF?$AAi?$AAl?$AAe?$AAs?$AA?5?$AA?$CI?$AAx?$AA8?$AA6?$AA?$CJ?$AA?2?$AAM?$AAi?$AAc?$AAr?$AAo?$AAs?$AAo?$AAf?$AAt@
	mov	rcx, QWORD PTR _Ptr$[rsp]
	call	??$_Debug_pointer@D@std@@YAXPEBDPEB_WI@Z ; std::_Debug_pointer<char>
$LN3@assign:
; Line 916
	mov	rdx, QWORD PTR _Ptr$[rsp]
	mov	rcx, QWORD PTR this$[rsp]
	call	?_Inside@?$basic_string@DU?$char_traits@D@std@@V?$allocator@D@2@@std@@QEAA_NPEBD@Z ; std::basic_string<char,std::char_traits<char>,std::allocator<char> >::_Inside
	movzx	eax, al
	test	eax, eax
	je	SHORT $LN2@assign
; Line 917
	mov	rcx, QWORD PTR this$[rsp]
	call	?_Myptr@?$basic_string@DU?$char_traits@D@std@@V?$allocator@D@2@@std@@QEAAPEADXZ ; std::basic_string<char,std::char_traits<char>,std::allocator<char> >::_Myptr
	mov	rcx, QWORD PTR _Ptr$[rsp]
	sub	rcx, rax
	mov	rax, rcx
	mov	r9, QWORD PTR _Count$[rsp]
	mov	r8, rax
	mov	rdx, QWORD PTR this$[rsp]
	mov	rcx, QWORD PTR this$[rsp]
	call	?assign@?$basic_string@DU?$char_traits@D@std@@V?$allocator@D@2@@std@@QEAAAEAV12@AEBV12@_K1@Z ; std::basic_string<char,std::char_traits<char>,std::allocator<char> >::assign
	jmp	SHORT $LN4@assign
$LN2@assign:
; Line 919
	xor	r8d, r8d
	mov	rdx, QWORD PTR _Count$[rsp]
	mov	rcx, QWORD PTR this$[rsp]
	call	?_Grow@?$basic_string@DU?$char_traits@D@std@@V?$allocator@D@2@@std@@QEAA_N_K_N@Z ; std::basic_string<char,std::char_traits<char>,std::allocator<char> >::_Grow
	movzx	eax, al
	test	eax, eax
	je	SHORT $LN1@assign
; Line 921
	mov	rcx, QWORD PTR this$[rsp]
	call	?_Myptr@?$basic_string@DU?$char_traits@D@std@@V?$allocator@D@2@@std@@QEAAPEADXZ ; std::basic_string<char,std::char_traits<char>,std::allocator<char> >::_Myptr
	mov	r8, QWORD PTR _Count$[rsp]
	mov	rdx, QWORD PTR _Ptr$[rsp]
	mov	rcx, rax
	call	?copy@?$char_traits@D@std@@SAPEADPEADPEBD_K@Z ; std::char_traits<char>::copy
; Line 922
	mov	rdx, QWORD PTR _Count$[rsp]
	mov	rcx, QWORD PTR this$[rsp]
	call	?_Eos@?$basic_string@DU?$char_traits@D@std@@V?$allocator@D@2@@std@@QEAAX_K@Z ; std::basic_string<char,std::char_traits<char>,std::allocator<char> >::_Eos
$LN1@assign:
; Line 924
	mov	rax, QWORD PTR this$[rsp]
$LN4@assign:
; Line 925
	add	rsp, 32					; 00000020H
	pop	rdi
	ret	0
?assign@?$basic_string@DU?$char_traits@D@std@@V?$allocator@D@2@@std@@QEAAAEAV12@PEBD_K@Z ENDP ; std::basic_string<char,std::char_traits<char>,std::allocator<char> >::assign
_TEXT	ENDS
EXTRN	memcpy:PROC
;	COMDAT pdata
; File c:\program files (x86)\microsoft visual studio 10.0\vc\include\iosfwd
pdata	SEGMENT
$pdata$?copy@?$char_traits@D@std@@SAPEADPEADPEBD_K@Z DD imagerel $LN3
	DD	imagerel $LN3+66
	DD	imagerel $unwind$?copy@?$char_traits@D@std@@SAPEADPEADPEBD_K@Z
pdata	ENDS
;	COMDAT xdata
xdata	SEGMENT
$unwind$?copy@?$char_traits@D@std@@SAPEADPEADPEBD_K@Z DD 022801H
	DD	070103214H
; Function compile flags: /Odtp /RTCsu
xdata	ENDS
;	COMDAT ?copy@?$char_traits@D@std@@SAPEADPEADPEBD_K@Z
_TEXT	SEGMENT
_First1$ = 48
_First2$ = 56
_Count$ = 64
?copy@?$char_traits@D@std@@SAPEADPEADPEBD_K@Z PROC	; std::char_traits<char>::copy, COMDAT
; Line 496
$LN3:
	mov	QWORD PTR [rsp+24], r8
	mov	QWORD PTR [rsp+16], rdx
	mov	QWORD PTR [rsp+8], rcx
	push	rdi
	sub	rsp, 32					; 00000020H
	mov	rdi, rsp
	mov	ecx, 8
	mov	eax, -858993460				; ccccccccH
	rep stosd
	mov	rcx, QWORD PTR [rsp+48]
; Line 497
	mov	r8, QWORD PTR _Count$[rsp]
	mov	rdx, QWORD PTR _First2$[rsp]
	mov	rcx, QWORD PTR _First1$[rsp]
	call	memcpy
; Line 498
	add	rsp, 32					; 00000020H
	pop	rdi
	ret	0
?copy@?$char_traits@D@std@@SAPEADPEADPEBD_K@Z ENDP	; std::char_traits<char>::copy
_TEXT	ENDS
PUBLIC	??1ios_base@std@@UEAA@XZ			; std::ios_base::~ios_base
PUBLIC	??_7?$basic_ios@DU?$char_traits@D@std@@@std@@6B@ ; std::basic_ios<char,std::char_traits<char> >::`vftable'
PUBLIC	??_R4?$basic_ios@DU?$char_traits@D@std@@@std@@6B@ ; std::basic_ios<char,std::char_traits<char> >::`RTTI Complete Object Locator'
PUBLIC	??_R0?AV?$basic_ios@DU?$char_traits@D@std@@@std@@@8 ; std::basic_ios<char,std::char_traits<char> > `RTTI Type Descriptor'
PUBLIC	??_R3?$basic_ios@DU?$char_traits@D@std@@@std@@8	; std::basic_ios<char,std::char_traits<char> >::`RTTI Class Hierarchy Descriptor'
PUBLIC	??_R2?$basic_ios@DU?$char_traits@D@std@@@std@@8	; std::basic_ios<char,std::char_traits<char> >::`RTTI Base Class Array'
PUBLIC	??_R1A@?0A@EA@?$basic_ios@DU?$char_traits@D@std@@@std@@8 ; std::basic_ios<char,std::char_traits<char> >::`RTTI Base Class Descriptor at (0,-1,0,64)'
PUBLIC	??_R1A@?0A@EA@ios_base@std@@8			; std::ios_base::`RTTI Base Class Descriptor at (0,-1,0,64)'
PUBLIC	??_R0?AVios_base@std@@@8			; std::ios_base `RTTI Type Descriptor'
PUBLIC	??_R3ios_base@std@@8				; std::ios_base::`RTTI Class Hierarchy Descriptor'
PUBLIC	??_R2ios_base@std@@8				; std::ios_base::`RTTI Base Class Array'
PUBLIC	??_R17?0A@EA@?$_Iosb@H@std@@8			; std::_Iosb<int>::`RTTI Base Class Descriptor at (8,-1,0,64)'
PUBLIC	??_R0?AV?$_Iosb@H@std@@@8			; std::_Iosb<int> `RTTI Type Descriptor'
PUBLIC	??_R3?$_Iosb@H@std@@8				; std::_Iosb<int>::`RTTI Class Hierarchy Descriptor'
PUBLIC	??_R2?$_Iosb@H@std@@8				; std::_Iosb<int>::`RTTI Base Class Array'
PUBLIC	??_R1A@?0A@EA@?$_Iosb@H@std@@8			; std::_Iosb<int>::`RTTI Base Class Descriptor at (0,-1,0,64)'
EXTRN	??_7type_info@@6B@:BYTE				; type_info::`vftable'
EXTRN	??_E?$basic_ios@DU?$char_traits@D@std@@@std@@UEAAPEAXI@Z:PROC ; std::basic_ios<char,std::char_traits<char> >::`vector deleting destructor'
;	COMDAT pdata
; File c:\program files (x86)\microsoft visual studio 10.0\vc\include\ios
pdata	SEGMENT
$pdata$??1?$basic_ios@DU?$char_traits@D@std@@@std@@UEAA@XZ DD imagerel $LN4
	DD	imagerel $LN4+61
	DD	imagerel $unwind$??1?$basic_ios@DU?$char_traits@D@std@@@std@@UEAA@XZ
pdata	ENDS
;	COMDAT ??_R1A@?0A@EA@?$_Iosb@H@std@@8
rdata$r	SEGMENT
??_R1A@?0A@EA@?$_Iosb@H@std@@8 DD imagerel ??_R0?AV?$_Iosb@H@std@@@8 ; std::_Iosb<int>::`RTTI Base Class Descriptor at (0,-1,0,64)'
	DD	00H
	DD	00H
	DD	0ffffffffH
	DD	00H
	DD	040H
	DD	imagerel ??_R3?$_Iosb@H@std@@8
rdata$r	ENDS
;	COMDAT ??_R2?$_Iosb@H@std@@8
rdata$r	SEGMENT
??_R2?$_Iosb@H@std@@8 DD imagerel ??_R1A@?0A@EA@?$_Iosb@H@std@@8 ; std::_Iosb<int>::`RTTI Base Class Array'
	ORG $+3
rdata$r	ENDS
;	COMDAT ??_R3?$_Iosb@H@std@@8
rdata$r	SEGMENT
??_R3?$_Iosb@H@std@@8 DD 00H				; std::_Iosb<int>::`RTTI Class Hierarchy Descriptor'
	DD	00H
	DD	01H
	DD	imagerel ??_R2?$_Iosb@H@std@@8
rdata$r	ENDS
;	COMDAT ??_R0?AV?$_Iosb@H@std@@@8
_DATA	SEGMENT
??_R0?AV?$_Iosb@H@std@@@8 DQ FLAT:??_7type_info@@6B@	; std::_Iosb<int> `RTTI Type Descriptor'
	DQ	0000000000000000H
	DB	'.?AV?$_Iosb@H@std@@', 00H
_DATA	ENDS
;	COMDAT ??_R17?0A@EA@?$_Iosb@H@std@@8
rdata$r	SEGMENT
??_R17?0A@EA@?$_Iosb@H@std@@8 DD imagerel ??_R0?AV?$_Iosb@H@std@@@8 ; std::_Iosb<int>::`RTTI Base Class Descriptor at (8,-1,0,64)'
	DD	00H
	DD	08H
	DD	0ffffffffH
	DD	00H
	DD	040H
	DD	imagerel ??_R3?$_Iosb@H@std@@8
rdata$r	ENDS
;	COMDAT ??_R2ios_base@std@@8
rdata$r	SEGMENT
??_R2ios_base@std@@8 DD imagerel ??_R1A@?0A@EA@ios_base@std@@8 ; std::ios_base::`RTTI Base Class Array'
	DD	imagerel ??_R17?0A@EA@?$_Iosb@H@std@@8
	ORG $+3
rdata$r	ENDS
;	COMDAT ??_R3ios_base@std@@8
rdata$r	SEGMENT
??_R3ios_base@std@@8 DD 00H				; std::ios_base::`RTTI Class Hierarchy Descriptor'
	DD	00H
	DD	02H
	DD	imagerel ??_R2ios_base@std@@8
rdata$r	ENDS
;	COMDAT ??_R0?AVios_base@std@@@8
_DATA	SEGMENT
??_R0?AVios_base@std@@@8 DQ FLAT:??_7type_info@@6B@	; std::ios_base `RTTI Type Descriptor'
	DQ	0000000000000000H
	DB	'.?AVios_base@std@@', 00H
_DATA	ENDS
;	COMDAT ??_R1A@?0A@EA@ios_base@std@@8
rdata$r	SEGMENT
??_R1A@?0A@EA@ios_base@std@@8 DD imagerel ??_R0?AVios_base@std@@@8 ; std::ios_base::`RTTI Base Class Descriptor at (0,-1,0,64)'
	DD	01H
	DD	00H
	DD	0ffffffffH
	DD	00H
	DD	040H
	DD	imagerel ??_R3ios_base@std@@8
rdata$r	ENDS
;	COMDAT ??_R1A@?0A@EA@?$basic_ios@DU?$char_traits@D@std@@@std@@8
rdata$r	SEGMENT
??_R1A@?0A@EA@?$basic_ios@DU?$char_traits@D@std@@@std@@8 DD imagerel ??_R0?AV?$basic_ios@DU?$char_traits@D@std@@@std@@@8 ; std::basic_ios<char,std::char_traits<char> >::`RTTI Base Class Descriptor at (0,-1,0,64)'
	DD	02H
	DD	00H
	DD	0ffffffffH
	DD	00H
	DD	040H
	DD	imagerel ??_R3?$basic_ios@DU?$char_traits@D@std@@@std@@8
rdata$r	ENDS
;	COMDAT ??_R2?$basic_ios@DU?$char_traits@D@std@@@std@@8
rdata$r	SEGMENT
??_R2?$basic_ios@DU?$char_traits@D@std@@@std@@8 DD imagerel ??_R1A@?0A@EA@?$basic_ios@DU?$char_traits@D@std@@@std@@8 ; std::basic_ios<char,std::char_traits<char> >::`RTTI Base Class Array'
	DD	imagerel ??_R1A@?0A@EA@ios_base@std@@8
	DD	imagerel ??_R17?0A@EA@?$_Iosb@H@std@@8
	ORG $+3
rdata$r	ENDS
;	COMDAT ??_R3?$basic_ios@DU?$char_traits@D@std@@@std@@8
rdata$r	SEGMENT
??_R3?$basic_ios@DU?$char_traits@D@std@@@std@@8 DD 00H	; std::basic_ios<char,std::char_traits<char> >::`RTTI Class Hierarchy Descriptor'
	DD	00H
	DD	03H
	DD	imagerel ??_R2?$basic_ios@DU?$char_traits@D@std@@@std@@8
rdata$r	ENDS
;	COMDAT ??_R0?AV?$basic_ios@DU?$char_traits@D@std@@@std@@@8
_DATA	SEGMENT
??_R0?AV?$basic_ios@DU?$char_traits@D@std@@@std@@@8 DQ FLAT:??_7type_info@@6B@ ; std::basic_ios<char,std::char_traits<char> > `RTTI Type Descriptor'
	DQ	0000000000000000H
	DB	'.?AV?$basic_ios@DU?$char_traits@D@std@@@std@@', 00H
_DATA	ENDS
;	COMDAT ??_R4?$basic_ios@DU?$char_traits@D@std@@@std@@6B@
rdata$r	SEGMENT
??_R4?$basic_ios@DU?$char_traits@D@std@@@std@@6B@ DD 01H ; std::basic_ios<char,std::char_traits<char> >::`RTTI Complete Object Locator'
	DD	00H
	DD	00H
	DD	imagerel ??_R0?AV?$basic_ios@DU?$char_traits@D@std@@@std@@@8
	DD	imagerel ??_R3?$basic_ios@DU?$char_traits@D@std@@@std@@8
	DD	imagerel ??_R4?$basic_ios@DU?$char_traits@D@std@@@std@@6B@
rdata$r	ENDS
;	COMDAT xdata
xdata	SEGMENT
$unwind$??1?$basic_ios@DU?$char_traits@D@std@@@std@@UEAA@XZ DD 021e01H
	DD	07006320aH
xdata	ENDS
;	COMDAT ??_7?$basic_ios@DU?$char_traits@D@std@@@std@@6B@
CONST	SEGMENT
??_7?$basic_ios@DU?$char_traits@D@std@@@std@@6B@ DQ FLAT:??_R4?$basic_ios@DU?$char_traits@D@std@@@std@@6B@ ; std::basic_ios<char,std::char_traits<char> >::`vftable'
	DQ	FLAT:??_E?$basic_ios@DU?$char_traits@D@std@@@std@@UEAAPEAXI@Z
; Function compile flags: /Odtp /RTCsu
CONST	ENDS
;	COMDAT ??1?$basic_ios@DU?$char_traits@D@std@@@std@@UEAA@XZ
_TEXT	SEGMENT
this$ = 48
??1?$basic_ios@DU?$char_traits@D@std@@@std@@UEAA@XZ PROC ; std::basic_ios<char,std::char_traits<char> >::~basic_ios<char,std::char_traits<char> >, COMDAT
; Line 37
$LN4:
	mov	QWORD PTR [rsp+8], rcx
	push	rdi
	sub	rsp, 32					; 00000020H
	mov	rdi, rsp
	mov	ecx, 8
	mov	eax, -858993460				; ccccccccH
	rep stosd
	mov	rcx, QWORD PTR [rsp+48]
	mov	rax, QWORD PTR this$[rsp]
	lea	rcx, OFFSET FLAT:??_7?$basic_ios@DU?$char_traits@D@std@@@std@@6B@
	mov	QWORD PTR [rax], rcx
; Line 38
	mov	rcx, QWORD PTR this$[rsp]
	call	??1ios_base@std@@UEAA@XZ		; std::ios_base::~ios_base
	add	rsp, 32					; 00000020H
	pop	rdi
	ret	0
??1?$basic_ios@DU?$char_traits@D@std@@@std@@UEAA@XZ ENDP ; std::basic_ios<char,std::char_traits<char> >::~basic_ios<char,std::char_traits<char> >
_TEXT	ENDS
PUBLIC	??_7ios_base@std@@6B@				; std::ios_base::`vftable'
PUBLIC	??_R4ios_base@std@@6B@				; std::ios_base::`RTTI Complete Object Locator'
EXTRN	?_Ios_base_dtor@ios_base@std@@CAXPEAV12@@Z:PROC	; std::ios_base::_Ios_base_dtor
EXTRN	??_Eios_base@std@@UEAAPEAXI@Z:PROC		; std::ios_base::`vector deleting destructor'
;	COMDAT pdata
; File c:\program files (x86)\microsoft visual studio 10.0\vc\include\xiosbase
pdata	SEGMENT
$pdata$??1ios_base@std@@UEAA@XZ DD imagerel $LN3
	DD	imagerel $LN3+61
	DD	imagerel $unwind$??1ios_base@std@@UEAA@XZ
pdata	ENDS
;	COMDAT ??_R4ios_base@std@@6B@
rdata$r	SEGMENT
??_R4ios_base@std@@6B@ DD 01H				; std::ios_base::`RTTI Complete Object Locator'
	DD	00H
	DD	00H
	DD	imagerel ??_R0?AVios_base@std@@@8
	DD	imagerel ??_R3ios_base@std@@8
	DD	imagerel ??_R4ios_base@std@@6B@
rdata$r	ENDS
;	COMDAT xdata
xdata	SEGMENT
$unwind$??1ios_base@std@@UEAA@XZ DD 021e01H
	DD	07006320aH
xdata	ENDS
;	COMDAT ??_7ios_base@std@@6B@
CONST	SEGMENT
??_7ios_base@std@@6B@ DQ FLAT:??_R4ios_base@std@@6B@	; std::ios_base::`vftable'
	DQ	FLAT:??_Eios_base@std@@UEAAPEAXI@Z
; Function compile flags: /Odtp /RTCsu
CONST	ENDS
;	COMDAT ??1ios_base@std@@UEAA@XZ
_TEXT	SEGMENT
this$ = 48
??1ios_base@std@@UEAA@XZ PROC				; std::ios_base::~ios_base, COMDAT
; Line 540
$LN3:
	mov	QWORD PTR [rsp+8], rcx
	push	rdi
	sub	rsp, 32					; 00000020H
	mov	rdi, rsp
	mov	ecx, 8
	mov	eax, -858993460				; ccccccccH
	rep stosd
	mov	rcx, QWORD PTR [rsp+48]
	mov	rax, QWORD PTR this$[rsp]
	lea	rcx, OFFSET FLAT:??_7ios_base@std@@6B@
	mov	QWORD PTR [rax], rcx
; Line 541
	mov	rcx, QWORD PTR this$[rsp]
	call	?_Ios_base_dtor@ios_base@std@@CAXPEAV12@@Z ; std::ios_base::_Ios_base_dtor
; Line 542
	add	rsp, 32					; 00000020H
	pop	rdi
	ret	0
??1ios_base@std@@UEAA@XZ ENDP				; std::ios_base::~ios_base
_TEXT	ENDS
EXTRN	??3@YAXPEAX@Z:PROC				; operator delete
;	COMDAT pdata
pdata	SEGMENT
$pdata$??_Gios_base@std@@UEAAPEAXI@Z DD imagerel $LN4
	DD	imagerel $LN4+76
	DD	imagerel $unwind$??_Gios_base@std@@UEAAPEAXI@Z
pdata	ENDS
;	COMDAT xdata
xdata	SEGMENT
$unwind$??_Gios_base@std@@UEAAPEAXI@Z DD 022201H
	DD	0700a320eH
; Function compile flags: /Odtp /RTCsu
xdata	ENDS
;	COMDAT ??_Gios_base@std@@UEAAPEAXI@Z
_TEXT	SEGMENT
this$ = 48
__flags$ = 56
??_Gios_base@std@@UEAAPEAXI@Z PROC			; std::ios_base::`scalar deleting destructor', COMDAT
$LN4:
	mov	DWORD PTR [rsp+16], edx
	mov	QWORD PTR [rsp+8], rcx
	push	rdi
	sub	rsp, 32					; 00000020H
	mov	rdi, rsp
	mov	ecx, 8
	mov	eax, -858993460				; ccccccccH
	rep stosd
	mov	rcx, QWORD PTR [rsp+48]
	mov	rcx, QWORD PTR this$[rsp]
	call	??1ios_base@std@@UEAA@XZ		; std::ios_base::~ios_base
	mov	eax, DWORD PTR __flags$[rsp]
	and	eax, 1
	test	eax, eax
	je	SHORT $LN1@scalar
	mov	rcx, QWORD PTR this$[rsp]
	call	??3@YAXPEAX@Z				; operator delete
$LN1@scalar:
	mov	rax, QWORD PTR this$[rsp]
	add	rsp, 32					; 00000020H
	pop	rdi
	ret	0
??_Gios_base@std@@UEAAPEAXI@Z ENDP			; std::ios_base::`scalar deleting destructor'
_TEXT	ENDS
PUBLIC	??1sentry@?$basic_istream@DU?$char_traits@D@std@@@std@@QEAA@XZ ; std::basic_istream<char,std::char_traits<char> >::sentry::~sentry
PUBLIC	?setstate@?$basic_ios@DU?$char_traits@D@std@@@std@@QEAAXH_N@Z ; std::basic_ios<char,std::char_traits<char> >::setstate
PUBLIC	?sgetn@?$basic_streambuf@DU?$char_traits@D@std@@@std@@QEAA_JPEAD_J@Z ; std::basic_streambuf<char,std::char_traits<char> >::sgetn
PUBLIC	?rdbuf@?$basic_ios@DU?$char_traits@D@std@@@std@@QEBAPEAV?$basic_streambuf@DU?$char_traits@D@std@@@2@XZ ; std::basic_ios<char,std::char_traits<char> >::rdbuf
PUBLIC	??Bsentry@?$basic_istream@DU?$char_traits@D@std@@@std@@QEBAPEQ_Bool_struct@2@HXZ ; std::basic_istream<char,std::char_traits<char> >::sentry::operator int std::_Bool_struct::* __ptr64
PUBLIC	??0sentry@?$basic_istream@DU?$char_traits@D@std@@@std@@QEAA@AEAV12@_N@Z ; std::basic_istream<char,std::char_traits<char> >::sentry::sentry
PUBLIC	??$_Debug_pointer@D@std@@YAXPEADPEB_WI@Z	; std::_Debug_pointer<char>
PUBLIC	??_C@_1IO@NIMDGDKK@?$AAc?$AA?3?$AA?2?$AAP?$AAr?$AAo?$AAg?$AAr?$AAa?$AAm?$AA?5?$AAF?$AAi?$AAl?$AAe?$AAs?$AA?5?$AA?$CI?$AAx?$AA8?$AA6?$AA?$CJ?$AA?2?$AAM?$AAi?$AAc?$AAr?$AAo?$AAs?$AAo?$AAf?$AAt@ ; `string'
;	COMDAT pdata
; File c:\program files (x86)\microsoft visual studio 10.0\vc\include\istream
pdata	SEGMENT
$pdata$?read@?$basic_istream@DU?$char_traits@D@std@@@std@@QEAAAEAV12@PEAD_J@Z DD imagerel $LN12
	DD	imagerel $LN12+386
	DD	imagerel $unwind$?read@?$basic_istream@DU?$char_traits@D@std@@@std@@QEAAAEAV12@PEAD_J@Z
pdata	ENDS
;	COMDAT pdata
pdata	SEGMENT
$pdata$?dtor$0@?0??read@?$basic_istream@DU?$char_traits@D@std@@@std@@QEAAAEAV12@PEAD_J@Z@4HA DD imagerel ?dtor$0@?0??read@?$basic_istream@DU?$char_traits@D@std@@@std@@QEAAAEAV12@PEAD_J@Z@4HA
	DD	imagerel ?dtor$0@?0??read@?$basic_istream@DU?$char_traits@D@std@@@std@@QEAAAEAV12@PEAD_J@Z@4HA+35
	DD	imagerel $unwind$?dtor$0@?0??read@?$basic_istream@DU?$char_traits@D@std@@@std@@QEAAAEAV12@PEAD_J@Z@4HA
pdata	ENDS
;	COMDAT pdata
pdata	SEGMENT
$pdata$?catch$0@?0??read@?$basic_istream@DU?$char_traits@D@std@@@std@@QEAAAEAV12@PEAD_J@Z@4HA DD imagerel ?catch$0@?0??read@?$basic_istream@DU?$char_traits@D@std@@@std@@QEAAAEAV12@PEAD_J@Z@4HA
	DD	imagerel ?catch$0@?0??read@?$basic_istream@DU?$char_traits@D@std@@@std@@QEAAAEAV12@PEAD_J@Z@4HA+78
	DD	imagerel $unwind$?catch$0@?0??read@?$basic_istream@DU?$char_traits@D@std@@@std@@QEAAAEAV12@PEAD_J@Z@4HA
pdata	ENDS
;	COMDAT xdata
xdata	SEGMENT
$ip2state$?read@?$basic_istream@DU?$char_traits@D@std@@@std@@QEAAAEAV12@PEAD_J@Z DD imagerel ?read@?$basic_istream@DU?$char_traits@D@std@@@std@@QEAAAEAV12@PEAD_J@Z
	DD	0ffffffffH
	DD	imagerel ?read@?$basic_istream@DU?$char_traits@D@std@@@std@@QEAAAEAV12@PEAD_J@Z+127
	DD	00H
	DD	imagerel ?read@?$basic_istream@DU?$char_traits@D@std@@@std@@QEAAAEAV12@PEAD_J@Z+146
	DD	01H
	DD	imagerel ?read@?$basic_istream@DU?$char_traits@D@std@@@std@@QEAAAEAV12@PEAD_J@Z+284
	DD	00H
	DD	imagerel ?read@?$basic_istream@DU?$char_traits@D@std@@@std@@QEAAAEAV12@PEAD_J@Z+341
	DD	0ffffffffH
	DD	imagerel ?catch$0@?0??read@?$basic_istream@DU?$char_traits@D@std@@@std@@QEAAAEAV12@PEAD_J@Z@4HA
	DD	00H
	DD	imagerel ?catch$0@?0??read@?$basic_istream@DU?$char_traits@D@std@@@std@@QEAAAEAV12@PEAD_J@Z@4HA+19
	DD	02H
	DD	imagerel ?catch$0@?0??read@?$basic_istream@DU?$char_traits@D@std@@@std@@QEAAAEAV12@PEAD_J@Z@4HA+63
	DD	00H
xdata	ENDS
;	COMDAT xdata
xdata	SEGMENT
$unwind$?catch$0@?0??read@?$basic_istream@DU?$char_traits@D@std@@@std@@QEAAAEAV12@PEAD_J@Z@4HA DD 031019H
	DD	0700c4210H
	DD	0500bH
	DD	imagerel __CxxFrameHandler3
	DD	imagerel $cppxdata$?read@?$basic_istream@DU?$char_traits@D@std@@@std@@QEAAAEAV12@PEAD_J@Z
xdata	ENDS
;	COMDAT xdata
xdata	SEGMENT
$unwind$?dtor$0@?0??read@?$basic_istream@DU?$char_traits@D@std@@@std@@QEAAAEAV12@PEAD_J@Z@4HA DD 031001H
	DD	0700c4210H
	DD	0500bH
xdata	ENDS
;	COMDAT xdata
xdata	SEGMENT
$unwind$?read@?$basic_istream@DU?$char_traits@D@std@@@std@@QEAAAEAV12@PEAD_J@Z DD 023719H
	DD	07010f217H
	DD	imagerel __CxxFrameHandler3
	DD	imagerel $cppxdata$?read@?$basic_istream@DU?$char_traits@D@std@@@std@@QEAAAEAV12@PEAD_J@Z
xdata	ENDS
;	COMDAT xdata
xdata	SEGMENT
$tryMap$?read@?$basic_istream@DU?$char_traits@D@std@@@std@@QEAAAEAV12@PEAD_J@Z DD 01H
	DD	01H
	DD	02H
	DD	01H
	DD	imagerel $handlerMap$0$?read@?$basic_istream@DU?$char_traits@D@std@@@std@@QEAAAEAV12@PEAD_J@Z
xdata	ENDS
;	COMDAT xdata
xdata	SEGMENT
$handlerMap$0$?read@?$basic_istream@DU?$char_traits@D@std@@@std@@QEAAAEAV12@PEAD_J@Z DD 040H
	DD	00H
	DD	00H
	DD	imagerel ?catch$0@?0??read@?$basic_istream@DU?$char_traits@D@std@@@std@@QEAAAEAV12@PEAD_J@Z@4HA
	DD	048H
xdata	ENDS
;	COMDAT xdata
xdata	SEGMENT
$stateUnwindMap$?read@?$basic_istream@DU?$char_traits@D@std@@@std@@QEAAAEAV12@PEAD_J@Z DD 0ffffffffH
	DD	imagerel ?dtor$0@?0??read@?$basic_istream@DU?$char_traits@D@std@@@std@@QEAAAEAV12@PEAD_J@Z@4HA
	DD	00H
	DD	00H
	DD	00H
	DD	00H
xdata	ENDS
;	COMDAT ??_C@_1IO@NIMDGDKK@?$AAc?$AA?3?$AA?2?$AAP?$AAr?$AAo?$AAg?$AAr?$AAa?$AAm?$AA?5?$AAF?$AAi?$AAl?$AAe?$AAs?$AA?5?$AA?$CI?$AAx?$AA8?$AA6?$AA?$CJ?$AA?2?$AAM?$AAi?$AAc?$AAr?$AAo?$AAs?$AAo?$AAf?$AAt@
CONST	SEGMENT
??_C@_1IO@NIMDGDKK@?$AAc?$AA?3?$AA?2?$AAP?$AAr?$AAo?$AAg?$AAr?$AAa?$AAm?$AA?5?$AAF?$AAi?$AAl?$AAe?$AAs?$AA?5?$AA?$CI?$AAx?$AA8?$AA6?$AA?$CJ?$AA?2?$AAM?$AAi?$AAc?$AAr?$AAo?$AAs?$AAo?$AAf?$AAt@ DB 'c'
	DB	00H, ':', 00H, '\', 00H, 'P', 00H, 'r', 00H, 'o', 00H, 'g', 00H
	DB	'r', 00H, 'a', 00H, 'm', 00H, ' ', 00H, 'F', 00H, 'i', 00H, 'l'
	DB	00H, 'e', 00H, 's', 00H, ' ', 00H, '(', 00H, 'x', 00H, '8', 00H
	DB	'6', 00H, ')', 00H, '\', 00H, 'M', 00H, 'i', 00H, 'c', 00H, 'r'
	DB	00H, 'o', 00H, 's', 00H, 'o', 00H, 'f', 00H, 't', 00H, ' ', 00H
	DB	'V', 00H, 'i', 00H, 's', 00H, 'u', 00H, 'a', 00H, 'l', 00H, ' '
	DB	00H, 'S', 00H, 't', 00H, 'u', 00H, 'd', 00H, 'i', 00H, 'o', 00H
	DB	' ', 00H, '1', 00H, '0', 00H, '.', 00H, '0', 00H, '\', 00H, 'V'
	DB	00H, 'C', 00H, '\', 00H, 'i', 00H, 'n', 00H, 'c', 00H, 'l', 00H
	DB	'u', 00H, 'd', 00H, 'e', 00H, '\', 00H, 'i', 00H, 's', 00H, 't'
	DB	00H, 'r', 00H, 'e', 00H, 'a', 00H, 'm', 00H, 00H, 00H ; `string'
CONST	ENDS
;	COMDAT CONST
CONST	SEGMENT
?read@?$basic_istream@DU?$char_traits@D@std@@@std@@QEAAAEAV12@PEAD_J@Z$rtcName$0 DB 05fH ; std::basic_istream<char,std::char_traits<char> >::read
	DB	04fH
	DB	06bH
	DB	00H
	ORG $+12
?read@?$basic_istream@DU?$char_traits@D@std@@@std@@QEAAAEAV12@PEAD_J@Z$rtcVarDesc DD 038H ; std::basic_istream<char,std::char_traits<char> >::read
	DD	010H
	DQ	FLAT:?read@?$basic_istream@DU?$char_traits@D@std@@@std@@QEAAAEAV12@PEAD_J@Z$rtcName$0
	ORG $+48
?read@?$basic_istream@DU?$char_traits@D@std@@@std@@QEAAAEAV12@PEAD_J@Z$rtcFrameData DD 01H ; std::basic_istream<char,std::char_traits<char> >::read
	DD	00H
	DQ	FLAT:?read@?$basic_istream@DU?$char_traits@D@std@@@std@@QEAAAEAV12@PEAD_J@Z$rtcVarDesc
$cppxdata$?read@?$basic_istream@DU?$char_traits@D@std@@@std@@QEAAAEAV12@PEAD_J@Z DD 019930522H
	DD	03H
	DD	imagerel $stateUnwindMap$?read@?$basic_istream@DU?$char_traits@D@std@@@std@@QEAAAEAV12@PEAD_J@Z
	DD	01H
	DD	imagerel $tryMap$?read@?$basic_istream@DU?$char_traits@D@std@@@std@@QEAAAEAV12@PEAD_J@Z
	DD	08H
	DD	imagerel $ip2state$?read@?$basic_istream@DU?$char_traits@D@std@@@std@@QEAAAEAV12@PEAD_J@Z
	DD	068H
	DD	00H
	DD	01H
; Function compile flags: /Odtp /RTCsu
CONST	ENDS
;	COMDAT ?read@?$basic_istream@DU?$char_traits@D@std@@@std@@QEAAAEAV12@PEAD_J@Z
_TEXT	SEGMENT
_State$ = 32
_Ok$ = 56
_Num$32276 = 88
$T37747 = 96
$T37757 = 104
tv69 = 112
tv158 = 120
this$ = 144
_Str$ = 152
_Count$ = 160
?read@?$basic_istream@DU?$char_traits@D@std@@@std@@QEAAAEAV12@PEAD_J@Z PROC ; std::basic_istream<char,std::char_traits<char> >::read, COMDAT
; Line 707
$LN12:
	mov	QWORD PTR [rsp+24], r8
	mov	QWORD PTR [rsp+16], rdx
	mov	QWORD PTR [rsp+8], rcx
	push	rdi
	sub	rsp, 128				; 00000080H
	mov	rdi, rsp
	mov	ecx, 32					; 00000020H
	mov	eax, -858993460				; ccccccccH
	rep stosd
	mov	rcx, QWORD PTR [rsp+144]
	mov	QWORD PTR $T37757[rsp], -2
; Line 708
	mov	r8d, 708				; 000002c4H
	lea	rdx, OFFSET FLAT:??_C@_1IO@NIMDGDKK@?$AAc?$AA?3?$AA?2?$AAP?$AAr?$AAo?$AAg?$AAr?$AAa?$AAm?$AA?5?$AAF?$AAi?$AAl?$AAe?$AAs?$AA?5?$AA?$CI?$AAx?$AA8?$AA6?$AA?$CJ?$AA?2?$AAM?$AAi?$AAc?$AAr?$AAo?$AAs?$AAo?$AAf?$AAt@
	mov	rcx, QWORD PTR _Str$[rsp]
	call	??$_Debug_pointer@D@std@@YAXPEADPEB_WI@Z ; std::_Debug_pointer<char>
; Line 709
	mov	DWORD PTR _State$[rsp], 0
; Line 710
	mov	rax, QWORD PTR this$[rsp]
	mov	QWORD PTR [rax+8], 0
; Line 711
	mov	r8b, 1
	mov	rdx, QWORD PTR this$[rsp]
	lea	rcx, QWORD PTR _Ok$[rsp]
	call	??0sentry@?$basic_istream@DU?$char_traits@D@std@@@std@@QEAA@AEAV12@_N@Z ; std::basic_istream<char,std::char_traits<char> >::sentry::sentry
	npad	1
; Line 713
	lea	rcx, QWORD PTR _Ok$[rsp]
	call	??Bsentry@?$basic_istream@DU?$char_traits@D@std@@@std@@QEBAPEQ_Bool_struct@2@HXZ ; std::basic_istream<char,std::char_traits<char> >::sentry::operator int std::_Bool_struct::* __ptr64
	cmp	eax, -1
	je	$LN10@read
; Line 716
	mov	rax, QWORD PTR this$[rsp]
	mov	rax, QWORD PTR [rax]
	movsxd	rax, DWORD PTR [rax+4]
	mov	rcx, QWORD PTR this$[rsp]
	add	rcx, rax
	mov	rax, rcx
	mov	rcx, rax
	call	?rdbuf@?$basic_ios@DU?$char_traits@D@std@@@std@@QEBAPEAV?$basic_streambuf@DU?$char_traits@D@std@@@2@XZ ; std::basic_ios<char,std::char_traits<char> >::rdbuf
	mov	QWORD PTR tv69[rsp], rax
	mov	r8, QWORD PTR _Count$[rsp]
	mov	rdx, QWORD PTR _Str$[rsp]
	mov	rcx, QWORD PTR tv69[rsp]
	call	?sgetn@?$basic_streambuf@DU?$char_traits@D@std@@@std@@QEAA_JPEAD_J@Z ; std::basic_streambuf<char,std::char_traits<char> >::sgetn
	mov	QWORD PTR tv158[rsp], rax
	mov	rax, QWORD PTR tv158[rsp]
	mov	QWORD PTR _Num$32276[rsp], rax
; Line 717
	mov	rax, QWORD PTR this$[rsp]
	mov	rax, QWORD PTR [rax+8]
	add	rax, QWORD PTR _Num$32276[rsp]
	mov	rcx, QWORD PTR this$[rsp]
	mov	QWORD PTR [rcx+8], rax
; Line 718
	mov	rax, QWORD PTR _Count$[rsp]
	cmp	QWORD PTR _Num$32276[rsp], rax
	je	SHORT $LN1@read
; Line 719
	mov	eax, DWORD PTR _State$[rsp]
	or	eax, 3
	mov	DWORD PTR _State$[rsp], eax
$LN1@read:
$LN10@read:
; Line 723
	mov	rax, QWORD PTR this$[rsp]
	mov	rax, QWORD PTR [rax]
	movsxd	rax, DWORD PTR [rax+4]
	mov	rcx, QWORD PTR this$[rsp]
	add	rcx, rax
	mov	rax, rcx
	xor	r8d, r8d
	mov	edx, DWORD PTR _State$[rsp]
	mov	rcx, rax
	call	?setstate@?$basic_ios@DU?$char_traits@D@std@@@std@@QEAAXH_N@Z ; std::basic_ios<char,std::char_traits<char> >::setstate
; Line 724
	mov	rax, QWORD PTR this$[rsp]
	mov	QWORD PTR $T37747[rsp], rax
	lea	rcx, QWORD PTR _Ok$[rsp]
	call	??1sentry@?$basic_istream@DU?$char_traits@D@std@@@std@@QEAA@XZ
	mov	rax, QWORD PTR $T37747[rsp]
; Line 725
	mov	rdi, rax
	mov	rcx, rsp
	lea	rdx, OFFSET FLAT:?read@?$basic_istream@DU?$char_traits@D@std@@@std@@QEAAAEAV12@PEAD_J@Z$rtcFrameData
	call	_RTC_CheckStackVars
	mov	rax, rdi
	add	rsp, 128				; 00000080H
	pop	rdi
	ret	0
?read@?$basic_istream@DU?$char_traits@D@std@@@std@@QEAAAEAV12@PEAD_J@Z ENDP ; std::basic_istream<char,std::char_traits<char> >::read
; Function compile flags: /Odtp /RTCsu
_TEXT	ENDS
;	COMDAT text$x
text$x	SEGMENT
_State$ = 32
_Ok$ = 56
_Num$32276 = 88
$T37747 = 96
$T37757 = 104
tv69 = 112
tv158 = 120
this$ = 144
_Str$ = 152
_Count$ = 160
?dtor$0@?0??read@?$basic_istream@DU?$char_traits@D@std@@@std@@QEAAAEAV12@PEAD_J@Z@4HA PROC ; `std::basic_istream<char,std::char_traits<char> >::read'::`1'::dtor$0
	mov	QWORD PTR [rsp+8], rcx
	mov	QWORD PTR [rsp+16], rdx
	push	rbp
	push	rdi
	sub	rsp, 40					; 00000028H
	mov	rbp, rdx
	lea	rcx, QWORD PTR _Ok$[rbp]
	call	??1sentry@?$basic_istream@DU?$char_traits@D@std@@@std@@QEAA@XZ
	add	rsp, 40					; 00000028H
	pop	rdi
	pop	rbp
	ret	0
?dtor$0@?0??read@?$basic_istream@DU?$char_traits@D@std@@@std@@QEAAAEAV12@PEAD_J@Z@4HA ENDP ; `std::basic_istream<char,std::char_traits<char> >::read'::`1'::dtor$0
; Function compile flags: /Odtp /RTCsu
_State$ = 32
_Ok$ = 56
_Num$32276 = 88
$T37747 = 96
$T37757 = 104
tv69 = 112
tv158 = 120
this$ = 144
_Str$ = 152
_Count$ = 160
?catch$0@?0??read@?$basic_istream@DU?$char_traits@D@std@@@std@@QEAAAEAV12@PEAD_J@Z@4HA PROC ; `std::basic_istream<char,std::char_traits<char> >::read'::`1'::catch$0
; Line 720
	mov	QWORD PTR [rsp+8], rcx
	mov	QWORD PTR [rsp+16], rdx
	push	rbp
	push	rdi
	sub	rsp, 40					; 00000028H
	mov	rbp, rdx
__catch$?read@?$basic_istream@DU?$char_traits@D@std@@@std@@QEAAAEAV12@PEAD_J@Z$0:
	mov	rax, QWORD PTR this$[rbp]
	mov	rax, QWORD PTR [rax]
	movsxd	rax, DWORD PTR [rax+4]
	mov	rcx, QWORD PTR this$[rbp]
	add	rcx, rax
	mov	rax, rcx
	mov	r8b, 1
	mov	edx, 4
	mov	rcx, rax
	call	?setstate@?$basic_ios@DU?$char_traits@D@std@@@std@@QEAAXH_N@Z ; std::basic_ios<char,std::char_traits<char> >::setstate
	npad	1
	lea	rax, $LN10@catch$0
	add	rsp, 40					; 00000028H
	pop	rdi
	pop	rbp
	ret	0
	int	3
?catch$0@?0??read@?$basic_istream@DU?$char_traits@D@std@@@std@@QEAAAEAV12@PEAD_J@Z@4HA ENDP ; `std::basic_istream<char,std::char_traits<char> >::read'::`1'::catch$0
text$x	ENDS
PUBLIC	??1_Sentry_base@?$basic_istream@DU?$char_traits@D@std@@@std@@QEAA@XZ ; std::basic_istream<char,std::char_traits<char> >::_Sentry_base::~_Sentry_base
;	COMDAT pdata
pdata	SEGMENT
$pdata$??1sentry@?$basic_istream@DU?$char_traits@D@std@@@std@@QEAA@XZ DD imagerel $LN4
	DD	imagerel $LN4+46
	DD	imagerel $unwind$??1sentry@?$basic_istream@DU?$char_traits@D@std@@@std@@QEAA@XZ
pdata	ENDS
;	COMDAT xdata
xdata	SEGMENT
$unwind$??1sentry@?$basic_istream@DU?$char_traits@D@std@@@std@@QEAA@XZ DD 021e01H
	DD	07006320aH
; Function compile flags: /Odtp /RTCsu
xdata	ENDS
;	COMDAT ??1sentry@?$basic_istream@DU?$char_traits@D@std@@@std@@QEAA@XZ
_TEXT	SEGMENT
this$ = 48
??1sentry@?$basic_istream@DU?$char_traits@D@std@@@std@@QEAA@XZ PROC ; std::basic_istream<char,std::char_traits<char> >::sentry::~sentry, COMDAT
$LN4:
	mov	QWORD PTR [rsp+8], rcx
	push	rdi
	sub	rsp, 32					; 00000020H
	mov	rdi, rsp
	mov	ecx, 8
	mov	eax, -858993460				; ccccccccH
	rep stosd
	mov	rcx, QWORD PTR [rsp+48]
	mov	rcx, QWORD PTR this$[rsp]
	call	??1_Sentry_base@?$basic_istream@DU?$char_traits@D@std@@@std@@QEAA@XZ ; std::basic_istream<char,std::char_traits<char> >::_Sentry_base::~_Sentry_base
	add	rsp, 32					; 00000020H
	pop	rdi
	ret	0
??1sentry@?$basic_istream@DU?$char_traits@D@std@@@std@@QEAA@XZ ENDP ; std::basic_istream<char,std::char_traits<char> >::sentry::~sentry
_TEXT	ENDS
PUBLIC	?clear@?$basic_ios@DU?$char_traits@D@std@@@std@@QEAAXH_N@Z ; std::basic_ios<char,std::char_traits<char> >::clear
PUBLIC	?rdstate@ios_base@std@@QEBAHXZ			; std::ios_base::rdstate
;	COMDAT pdata
; File c:\program files (x86)\microsoft visual studio 10.0\vc\include\ios
pdata	SEGMENT
$pdata$?setstate@?$basic_ios@DU?$char_traits@D@std@@@std@@QEAAXH_N@Z DD imagerel $LN4
	DD	imagerel $LN4+84
	DD	imagerel $unwind$?setstate@?$basic_ios@DU?$char_traits@D@std@@@std@@QEAAXH_N@Z
pdata	ENDS
;	COMDAT xdata
xdata	SEGMENT
$unwind$?setstate@?$basic_ios@DU?$char_traits@D@std@@@std@@QEAAXH_N@Z DD 022701H
	DD	0700f3213H
; Function compile flags: /Odtp /RTCsu
xdata	ENDS
;	COMDAT ?setstate@?$basic_ios@DU?$char_traits@D@std@@@std@@QEAAXH_N@Z
_TEXT	SEGMENT
this$ = 48
_State$ = 56
_Reraise$ = 64
?setstate@?$basic_ios@DU?$char_traits@D@std@@@std@@QEAAXH_N@Z PROC ; std::basic_ios<char,std::char_traits<char> >::setstate, COMDAT
; Line 54
$LN4:
	mov	BYTE PTR [rsp+24], r8b
	mov	DWORD PTR [rsp+16], edx
	mov	QWORD PTR [rsp+8], rcx
	push	rdi
	sub	rsp, 32					; 00000020H
	mov	rdi, rsp
	mov	ecx, 8
	mov	eax, -858993460				; ccccccccH
	rep stosd
	mov	rcx, QWORD PTR [rsp+48]
; Line 55
	cmp	DWORD PTR _State$[rsp], 0
	je	SHORT $LN1@setstate
; Line 56
	mov	rcx, QWORD PTR this$[rsp]
	call	?rdstate@ios_base@std@@QEBAHXZ		; std::ios_base::rdstate
	or	eax, DWORD PTR _State$[rsp]
	movzx	r8d, BYTE PTR _Reraise$[rsp]
	mov	edx, eax
	mov	rcx, QWORD PTR this$[rsp]
	call	?clear@?$basic_ios@DU?$char_traits@D@std@@@std@@QEAAXH_N@Z ; std::basic_ios<char,std::char_traits<char> >::clear
$LN1@setstate:
; Line 57
	add	rsp, 32					; 00000020H
	pop	rdi
	ret	0
?setstate@?$basic_ios@DU?$char_traits@D@std@@@std@@QEAAXH_N@Z ENDP ; std::basic_ios<char,std::char_traits<char> >::setstate
_TEXT	ENDS
;	COMDAT pdata
; File c:\program files (x86)\microsoft visual studio 10.0\vc\include\xiosbase
pdata	SEGMENT
$pdata$?rdstate@ios_base@std@@QEBAHXZ DD imagerel $LN3
	DD	imagerel $LN3+16
	DD	imagerel $unwind$?rdstate@ios_base@std@@QEBAHXZ
pdata	ENDS
;	COMDAT xdata
xdata	SEGMENT
$unwind$?rdstate@ios_base@std@@QEBAHXZ DD 010601H
	DD	07006H
; Function compile flags: /Odtp /RTCsu
xdata	ENDS
;	COMDAT ?rdstate@ios_base@std@@QEBAHXZ
_TEXT	SEGMENT
this$ = 16
?rdstate@ios_base@std@@QEBAHXZ PROC			; std::ios_base::rdstate, COMDAT
; Line 335
$LN3:
	mov	QWORD PTR [rsp+8], rcx
	push	rdi
; Line 336
	mov	rax, QWORD PTR this$[rsp]
	mov	eax, DWORD PTR [rax+16]
; Line 337
	pop	rdi
	ret	0
?rdstate@ios_base@std@@QEBAHXZ ENDP			; std::ios_base::rdstate
_TEXT	ENDS
;	COMDAT pdata
; File c:\program files (x86)\microsoft visual studio 10.0\vc\include\ios
pdata	SEGMENT
$pdata$?rdbuf@?$basic_ios@DU?$char_traits@D@std@@@std@@QEBAPEAV?$basic_streambuf@DU?$char_traits@D@std@@@2@XZ DD imagerel $LN3
	DD	imagerel $LN3+17
	DD	imagerel $unwind$?rdbuf@?$basic_ios@DU?$char_traits@D@std@@@std@@QEBAPEAV?$basic_streambuf@DU?$char_traits@D@std@@@2@XZ
pdata	ENDS
;	COMDAT xdata
xdata	SEGMENT
$unwind$?rdbuf@?$basic_ios@DU?$char_traits@D@std@@@std@@QEBAPEAV?$basic_streambuf@DU?$char_traits@D@std@@@2@XZ DD 010601H
	DD	07006H
; Function compile flags: /Odtp /RTCsu
xdata	ENDS
;	COMDAT ?rdbuf@?$basic_ios@DU?$char_traits@D@std@@@std@@QEBAPEAV?$basic_streambuf@DU?$char_traits@D@std@@@2@XZ
_TEXT	SEGMENT
this$ = 16
?rdbuf@?$basic_ios@DU?$char_traits@D@std@@@std@@QEBAPEAV?$basic_streambuf@DU?$char_traits@D@std@@@2@XZ PROC ; std::basic_ios<char,std::char_traits<char> >::rdbuf, COMDAT
; Line 85
$LN3:
	mov	QWORD PTR [rsp+8], rcx
	push	rdi
; Line 86
	mov	rax, QWORD PTR this$[rsp]
	mov	rax, QWORD PTR [rax+72]
; Line 87
	pop	rdi
	ret	0
?rdbuf@?$basic_ios@DU?$char_traits@D@std@@@std@@QEBAPEAV?$basic_streambuf@DU?$char_traits@D@std@@@2@XZ ENDP ; std::basic_ios<char,std::char_traits<char> >::rdbuf
_TEXT	ENDS
PUBLIC	?pubseekoff@?$basic_streambuf@DU?$char_traits@D@std@@@std@@QEAA?AV?$fpos@H@2@_JHH@Z ; std::basic_streambuf<char,std::char_traits<char> >::pubseekoff
PUBLIC	?fail@ios_base@std@@QEBA_NXZ			; std::ios_base::fail
EXTRN	?_BADOFF@std@@3_JB:QWORD			; std::_BADOFF
;	COMDAT pdata
; File c:\program files (x86)\microsoft visual studio 10.0\vc\include\istream
pdata	SEGMENT
$pdata$?seekg@?$basic_istream@DU?$char_traits@D@std@@@std@@QEAAAEAV12@_JH@Z DD imagerel $LN4
	DD	imagerel $LN4+207
	DD	imagerel $unwind$?seekg@?$basic_istream@DU?$char_traits@D@std@@@std@@QEAAAEAV12@_JH@Z
pdata	ENDS
;	COMDAT xdata
xdata	SEGMENT
$unwind$?seekg@?$basic_istream@DU?$char_traits@D@std@@@std@@QEAAAEAV12@_JH@Z DD 022801H
	DD	070109214H
; Function compile flags: /Odtp /RTCsu
xdata	ENDS
;	COMDAT ?seekg@?$basic_istream@DU?$char_traits@D@std@@@std@@QEAAAEAV12@_JH@Z
_TEXT	SEGMENT
$T37820 = 48
this$ = 96
_Off$ = 104
_Way$ = 112
?seekg@?$basic_istream@DU?$char_traits@D@std@@@std@@QEAAAEAV12@_JH@Z PROC ; std::basic_istream<char,std::char_traits<char> >::seekg, COMDAT
; Line 841
$LN4:
	mov	DWORD PTR [rsp+24], r8d
	mov	QWORD PTR [rsp+16], rdx
	mov	QWORD PTR [rsp+8], rcx
	push	rdi
	sub	rsp, 80					; 00000050H
	mov	rdi, rsp
	mov	ecx, 20
	mov	eax, -858993460				; ccccccccH
	rep stosd
	mov	rcx, QWORD PTR [rsp+96]
; Line 844
	mov	rax, QWORD PTR this$[rsp]
	mov	rax, QWORD PTR [rax]
	movsxd	rax, DWORD PTR [rax+4]
	mov	rcx, QWORD PTR this$[rsp]
	add	rcx, rax
	mov	rax, rcx
	mov	rcx, rax
	call	?fail@ios_base@std@@QEBA_NXZ		; std::ios_base::fail
	movzx	eax, al
	test	eax, eax
	jne	SHORT $LN1@seekg
	mov	rax, QWORD PTR this$[rsp]
	mov	rax, QWORD PTR [rax]
	movsxd	rax, DWORD PTR [rax+4]
	mov	rcx, QWORD PTR this$[rsp]
	add	rcx, rax
	mov	rax, rcx
	mov	rcx, rax
	call	?rdbuf@?$basic_ios@DU?$char_traits@D@std@@@std@@QEBAPEAV?$basic_streambuf@DU?$char_traits@D@std@@@2@XZ ; std::basic_ios<char,std::char_traits<char> >::rdbuf
	mov	DWORD PTR [rsp+32], 1
	mov	r9d, DWORD PTR _Way$[rsp]
	mov	r8, QWORD PTR _Off$[rsp]
	lea	rdx, QWORD PTR $T37820[rsp]
	mov	rcx, rax
	call	?pubseekoff@?$basic_streambuf@DU?$char_traits@D@std@@@std@@QEAA?AV?$fpos@H@2@_JHH@Z ; std::basic_streambuf<char,std::char_traits<char> >::pubseekoff
	mov	rcx, rax
	call	??B?$fpos@H@std@@QEBA_JXZ		; std::fpos<int>::operator __int64
	cmp	rax, QWORD PTR ?_BADOFF@std@@3_JB	; std::_BADOFF
	jne	SHORT $LN1@seekg
; Line 845
	mov	rax, QWORD PTR this$[rsp]
	mov	rax, QWORD PTR [rax]
	movsxd	rax, DWORD PTR [rax+4]
	mov	rcx, QWORD PTR this$[rsp]
	add	rcx, rax
	mov	rax, rcx
	xor	r8d, r8d
	mov	edx, 2
	mov	rcx, rax
	call	?setstate@?$basic_ios@DU?$char_traits@D@std@@@std@@QEAAXH_N@Z ; std::basic_ios<char,std::char_traits<char> >::setstate
$LN1@seekg:
; Line 846
	mov	rax, QWORD PTR this$[rsp]
; Line 847
	add	rsp, 80					; 00000050H
	pop	rdi
	ret	0
?seekg@?$basic_istream@DU?$char_traits@D@std@@@std@@QEAAAEAV12@_JH@Z ENDP ; std::basic_istream<char,std::char_traits<char> >::seekg
_TEXT	ENDS
;	COMDAT pdata
; File c:\program files (x86)\microsoft visual studio 10.0\vc\include\xiosbase
pdata	SEGMENT
$pdata$?fail@ios_base@std@@QEBA_NXZ DD imagerel $LN5
	DD	imagerel $LN5+76
	DD	imagerel $unwind$?fail@ios_base@std@@QEBA_NXZ
pdata	ENDS
;	COMDAT xdata
xdata	SEGMENT
$unwind$?fail@ios_base@std@@QEBA_NXZ DD 021e01H
	DD	07006520aH
; Function compile flags: /Odtp /RTCsu
xdata	ENDS
;	COMDAT ?fail@ios_base@std@@QEBA_NXZ
_TEXT	SEGMENT
tv68 = 32
this$ = 64
?fail@ios_base@std@@QEBA_NXZ PROC			; std::ios_base::fail, COMDAT
; Line 367
$LN5:
	mov	QWORD PTR [rsp+8], rcx
	push	rdi
	sub	rsp, 48					; 00000030H
	mov	rdi, rsp
	mov	ecx, 12
	mov	eax, -858993460				; ccccccccH
	rep stosd
	mov	rcx, QWORD PTR [rsp+64]
; Line 369
	mov	rcx, QWORD PTR this$[rsp]
	call	?rdstate@ios_base@std@@QEBAHXZ		; std::ios_base::rdstate
	and	eax, 6
	test	eax, eax
	je	SHORT $LN3@fail
	mov	DWORD PTR tv68[rsp], 1
	jmp	SHORT $LN4@fail
$LN3@fail:
	mov	DWORD PTR tv68[rsp], 0
$LN4@fail:
	movzx	eax, BYTE PTR tv68[rsp]
; Line 370
	add	rsp, 48					; 00000030H
	pop	rdi
	ret	0
?fail@ios_base@std@@QEBA_NXZ ENDP			; std::ios_base::fail
_TEXT	ENDS
PUBLIC	??0?$fpos@H@std@@QEAA@_J@Z			; std::fpos<int>::fpos<int>
;	COMDAT pdata
; File c:\program files (x86)\microsoft visual studio 10.0\vc\include\istream
pdata	SEGMENT
$pdata$?tellg@?$basic_istream@DU?$char_traits@D@std@@@std@@QEAA?AV?$fpos@H@2@XZ DD imagerel $LN5
	DD	imagerel $LN5+171
	DD	imagerel $unwind$?tellg@?$basic_istream@DU?$char_traits@D@std@@@std@@QEAA?AV?$fpos@H@2@XZ
pdata	ENDS
;	COMDAT xdata
xdata	SEGMENT
$unwind$?tellg@?$basic_istream@DU?$char_traits@D@std@@@std@@QEAA?AV?$fpos@H@2@XZ DD 022301H
	DD	0700b520fH
; Function compile flags: /Odtp /RTCsu
xdata	ENDS
;	COMDAT ?tellg@?$basic_istream@DU?$char_traits@D@std@@@std@@QEAA?AV?$fpos@H@2@XZ
_TEXT	SEGMENT
this$ = 64
__$ReturnUdt$ = 72
?tellg@?$basic_istream@DU?$char_traits@D@std@@@std@@QEAA?AV?$fpos@H@2@XZ PROC ; std::basic_istream<char,std::char_traits<char> >::tellg, COMDAT
; Line 850
$LN5:
	mov	QWORD PTR [rsp+16], rdx
	mov	QWORD PTR [rsp+8], rcx
	push	rdi
	sub	rsp, 48					; 00000030H
	mov	rdi, rsp
	mov	ecx, 12
	mov	eax, -858993460				; ccccccccH
	rep stosd
	mov	rcx, QWORD PTR [rsp+64]
; Line 851
	mov	rax, QWORD PTR this$[rsp]
	mov	rax, QWORD PTR [rax]
	movsxd	rax, DWORD PTR [rax+4]
	mov	rcx, QWORD PTR this$[rsp]
	add	rcx, rax
	mov	rax, rcx
	mov	rcx, rax
	call	?fail@ios_base@std@@QEBA_NXZ		; std::ios_base::fail
	movzx	eax, al
	test	eax, eax
	jne	SHORT $LN2@tellg
; Line 853
	mov	rax, QWORD PTR this$[rsp]
	mov	rax, QWORD PTR [rax]
	movsxd	rax, DWORD PTR [rax+4]
	mov	rcx, QWORD PTR this$[rsp]
	add	rcx, rax
	mov	rax, rcx
	mov	rcx, rax
	call	?rdbuf@?$basic_ios@DU?$char_traits@D@std@@@std@@QEBAPEAV?$basic_streambuf@DU?$char_traits@D@std@@@2@XZ ; std::basic_ios<char,std::char_traits<char> >::rdbuf
	mov	DWORD PTR [rsp+32], 1
	mov	r9d, 1
	xor	r8d, r8d
	mov	rdx, QWORD PTR __$ReturnUdt$[rsp]
	mov	rcx, rax
	call	?pubseekoff@?$basic_streambuf@DU?$char_traits@D@std@@@std@@QEAA?AV?$fpos@H@2@_JHH@Z ; std::basic_streambuf<char,std::char_traits<char> >::pubseekoff
	mov	rax, QWORD PTR __$ReturnUdt$[rsp]
	jmp	SHORT $LN3@tellg
; Line 854
	jmp	SHORT $LN1@tellg
$LN2@tellg:
; Line 855
	mov	rdx, QWORD PTR ?_BADOFF@std@@3_JB	; std::_BADOFF
	mov	rcx, QWORD PTR __$ReturnUdt$[rsp]
	call	??0?$fpos@H@std@@QEAA@_J@Z		; std::fpos<int>::fpos<int>
	mov	rax, QWORD PTR __$ReturnUdt$[rsp]
$LN1@tellg:
$LN3@tellg:
; Line 856
	add	rsp, 48					; 00000030H
	pop	rdi
	ret	0
?tellg@?$basic_istream@DU?$char_traits@D@std@@@std@@QEAA?AV?$fpos@H@2@XZ ENDP ; std::basic_istream<char,std::char_traits<char> >::tellg
_TEXT	ENDS
PUBLIC	?_Ipfx@?$basic_istream@DU?$char_traits@D@std@@@std@@QEAA_N_N@Z ; std::basic_istream<char,std::char_traits<char> >::_Ipfx
PUBLIC	??0_Sentry_base@?$basic_istream@DU?$char_traits@D@std@@@std@@QEAA@AEAV12@@Z ; std::basic_istream<char,std::char_traits<char> >::_Sentry_base::_Sentry_base
;	COMDAT pdata
pdata	SEGMENT
$pdata$??0sentry@?$basic_istream@DU?$char_traits@D@std@@@std@@QEAA@AEAV12@_N@Z DD imagerel $LN4
	DD	imagerel $LN4+102
	DD	imagerel $unwind$??0sentry@?$basic_istream@DU?$char_traits@D@std@@@std@@QEAA@AEAV12@_N@Z
pdata	ENDS
;	COMDAT pdata
pdata	SEGMENT
$pdata$?dtor$0@?0???0sentry@?$basic_istream@DU?$char_traits@D@std@@@std@@QEAA@AEAV12@_N@Z@4HA DD imagerel ?dtor$0@?0???0sentry@?$basic_istream@DU?$char_traits@D@std@@@std@@QEAA@AEAV12@_N@Z@4HA
	DD	imagerel ?dtor$0@?0???0sentry@?$basic_istream@DU?$char_traits@D@std@@@std@@QEAA@AEAV12@_N@Z@4HA+35
	DD	imagerel $unwind$?dtor$0@?0???0sentry@?$basic_istream@DU?$char_traits@D@std@@@std@@QEAA@AEAV12@_N@Z@4HA
pdata	ENDS
;	COMDAT xdata
xdata	SEGMENT
$ip2state$??0sentry@?$basic_istream@DU?$char_traits@D@std@@@std@@QEAA@AEAV12@_N@Z DD imagerel ??0sentry@?$basic_istream@DU?$char_traits@D@std@@@std@@QEAA@AEAV12@_N@Z
	DD	0ffffffffH
	DD	imagerel ??0sentry@?$basic_istream@DU?$char_traits@D@std@@@std@@QEAA@AEAV12@_N@Z+65
	DD	00H
	DD	imagerel ??0sentry@?$basic_istream@DU?$char_traits@D@std@@@std@@QEAA@AEAV12@_N@Z+91
	DD	0ffffffffH
xdata	ENDS
;	COMDAT xdata
xdata	SEGMENT
$unwind$?dtor$0@?0???0sentry@?$basic_istream@DU?$char_traits@D@std@@@std@@QEAA@AEAV12@_N@Z@4HA DD 031001H
	DD	0700c4210H
	DD	0500bH
xdata	ENDS
;	COMDAT xdata
xdata	SEGMENT
$unwind$??0sentry@?$basic_istream@DU?$char_traits@D@std@@@std@@QEAA@AEAV12@_N@Z DD 023111H
	DD	070105214H
	DD	imagerel __CxxFrameHandler3
	DD	imagerel $cppxdata$??0sentry@?$basic_istream@DU?$char_traits@D@std@@@std@@QEAA@AEAV12@_N@Z
xdata	ENDS
;	COMDAT CONST
CONST	SEGMENT
$cppxdata$??0sentry@?$basic_istream@DU?$char_traits@D@std@@@std@@QEAA@AEAV12@_N@Z DD 019930522H
	DD	01H
	DD	imagerel $stateUnwindMap$??0sentry@?$basic_istream@DU?$char_traits@D@std@@@std@@QEAA@AEAV12@_N@Z
	DD	00H
	DD	00H
	DD	03H
	DD	imagerel $ip2state$??0sentry@?$basic_istream@DU?$char_traits@D@std@@@std@@QEAA@AEAV12@_N@Z
	DD	020H
	DD	00H
	DD	01H
CONST	ENDS
;	COMDAT xdata
xdata	SEGMENT
$stateUnwindMap$??0sentry@?$basic_istream@DU?$char_traits@D@std@@@std@@QEAA@AEAV12@_N@Z DD 0ffffffffH
	DD	imagerel ?dtor$0@?0???0sentry@?$basic_istream@DU?$char_traits@D@std@@@std@@QEAA@AEAV12@_N@Z@4HA
; Function compile flags: /Odtp /RTCsu
xdata	ENDS
;	COMDAT ??0sentry@?$basic_istream@DU?$char_traits@D@std@@@std@@QEAA@AEAV12@_N@Z
_TEXT	SEGMENT
$T37849 = 32
this$ = 64
_Istr$ = 72
_Noskip$ = 80
??0sentry@?$basic_istream@DU?$char_traits@D@std@@@std@@QEAA@AEAV12@_N@Z PROC ; std::basic_istream<char,std::char_traits<char> >::sentry::sentry, COMDAT
; Line 99
$LN4:
	mov	BYTE PTR [rsp+24], r8b
	mov	QWORD PTR [rsp+16], rdx
	mov	QWORD PTR [rsp+8], rcx
	push	rdi
	sub	rsp, 48					; 00000030H
	mov	rdi, rsp
	mov	ecx, 12
	mov	eax, -858993460				; ccccccccH
	rep stosd
	mov	rcx, QWORD PTR [rsp+64]
	mov	QWORD PTR $T37849[rsp], -2
	mov	rdx, QWORD PTR _Istr$[rsp]
	mov	rcx, QWORD PTR this$[rsp]
	call	??0_Sentry_base@?$basic_istream@DU?$char_traits@D@std@@@std@@QEAA@AEAV12@@Z ; std::basic_istream<char,std::char_traits<char> >::_Sentry_base::_Sentry_base
	npad	1
; Line 100
	movzx	edx, BYTE PTR _Noskip$[rsp]
	mov	rax, QWORD PTR this$[rsp]
	mov	rcx, QWORD PTR [rax]
	call	?_Ipfx@?$basic_istream@DU?$char_traits@D@std@@@std@@QEAA_N_N@Z ; std::basic_istream<char,std::char_traits<char> >::_Ipfx
	mov	rcx, QWORD PTR this$[rsp]
	mov	BYTE PTR [rcx+8], al
; Line 101
	mov	rax, QWORD PTR this$[rsp]
	add	rsp, 48					; 00000030H
	pop	rdi
	ret	0
??0sentry@?$basic_istream@DU?$char_traits@D@std@@@std@@QEAA@AEAV12@_N@Z ENDP ; std::basic_istream<char,std::char_traits<char> >::sentry::sentry
; Function compile flags: /Odtp /RTCsu
_TEXT	ENDS
;	COMDAT text$x
text$x	SEGMENT
$T37849 = 32
this$ = 64
_Istr$ = 72
_Noskip$ = 80
?dtor$0@?0???0sentry@?$basic_istream@DU?$char_traits@D@std@@@std@@QEAA@AEAV12@_N@Z@4HA PROC ; `std::basic_istream<char,std::char_traits<char> >::sentry::sentry'::`1'::dtor$0
	mov	QWORD PTR [rsp+8], rcx
	mov	QWORD PTR [rsp+16], rdx
	push	rbp
	push	rdi
	sub	rsp, 40					; 00000028H
	mov	rbp, rdx
	mov	rcx, QWORD PTR this$[rbp]
	call	??1_Sentry_base@?$basic_istream@DU?$char_traits@D@std@@@std@@QEAA@XZ ; std::basic_istream<char,std::char_traits<char> >::_Sentry_base::~_Sentry_base
	add	rsp, 40					; 00000028H
	pop	rdi
	pop	rbp
	ret	0
?dtor$0@?0???0sentry@?$basic_istream@DU?$char_traits@D@std@@@std@@QEAA@AEAV12@_N@Z@4HA ENDP ; `std::basic_istream<char,std::char_traits<char> >::sentry::sentry'::`1'::dtor$0
text$x	ENDS
;	COMDAT pdata
pdata	SEGMENT
$pdata$??Bsentry@?$basic_istream@DU?$char_traits@D@std@@@std@@QEBAPEQ_Bool_struct@2@HXZ DD imagerel $LN5
	DD	imagerel $LN5+68
	DD	imagerel $unwind$??Bsentry@?$basic_istream@DU?$char_traits@D@std@@@std@@QEBAPEQ_Bool_struct@2@HXZ
pdata	ENDS
;	COMDAT xdata
xdata	SEGMENT
$unwind$??Bsentry@?$basic_istream@DU?$char_traits@D@std@@@std@@QEBAPEQ_Bool_struct@2@HXZ DD 021e01H
	DD	07006120aH
; Function compile flags: /Odtp /RTCsu
xdata	ENDS
;	COMDAT ??Bsentry@?$basic_istream@DU?$char_traits@D@std@@@std@@QEBAPEQ_Bool_struct@2@HXZ
_TEXT	SEGMENT
tv67 = 0
this$ = 32
??Bsentry@?$basic_istream@DU?$char_traits@D@std@@@std@@QEBAPEQ_Bool_struct@2@HXZ PROC ; std::basic_istream<char,std::char_traits<char> >::sentry::operator int std::_Bool_struct::* __ptr64, COMDAT
; Line 104
$LN5:
	mov	QWORD PTR [rsp+8], rcx
	push	rdi
	sub	rsp, 16
	mov	rdi, rsp
	mov	ecx, 4
	mov	eax, -858993460				; ccccccccH
	rep stosd
	mov	rcx, QWORD PTR [rsp+32]
; Line 105
	mov	rax, QWORD PTR this$[rsp]
	movzx	eax, BYTE PTR [rax+8]
	test	eax, eax
	je	SHORT $LN3@
	mov	DWORD PTR tv67[rsp], 0
	jmp	SHORT $LN4@
$LN3@:
	mov	DWORD PTR tv67[rsp], -1
$LN4@:
	mov	eax, DWORD PTR tv67[rsp]
; Line 106
	add	rsp, 16
	pop	rdi
	ret	0
??Bsentry@?$basic_istream@DU?$char_traits@D@std@@@std@@QEBAPEQ_Bool_struct@2@HXZ ENDP ; std::basic_istream<char,std::char_traits<char> >::sentry::operator int std::_Bool_struct::* __ptr64
_TEXT	ENDS
;	COMDAT pdata
pdata	SEGMENT
$pdata$??1_Sentry_base@?$basic_istream@DU?$char_traits@D@std@@@std@@QEAA@XZ DD imagerel $LN4
	DD	imagerel $LN4+124
	DD	imagerel $unwind$??1_Sentry_base@?$basic_istream@DU?$char_traits@D@std@@@std@@QEAA@XZ
pdata	ENDS
;	COMDAT xdata
xdata	SEGMENT
$unwind$??1_Sentry_base@?$basic_istream@DU?$char_traits@D@std@@@std@@QEAA@XZ DD 021e01H
	DD	07006520aH
; Function compile flags: /Odtp /RTCsu
xdata	ENDS
;	COMDAT ??1_Sentry_base@?$basic_istream@DU?$char_traits@D@std@@@std@@QEAA@XZ
_TEXT	SEGMENT
tv92 = 32
this$ = 64
??1_Sentry_base@?$basic_istream@DU?$char_traits@D@std@@@std@@QEAA@XZ PROC ; std::basic_istream<char,std::char_traits<char> >::_Sentry_base::~_Sentry_base, COMDAT
; Line 82
$LN4:
	mov	QWORD PTR [rsp+8], rcx
	push	rdi
	sub	rsp, 48					; 00000030H
	mov	rdi, rsp
	mov	ecx, 12
	mov	eax, -858993460				; ccccccccH
	rep stosd
	mov	rcx, QWORD PTR [rsp+64]
; Line 83
	mov	rax, QWORD PTR this$[rsp]
	mov	rax, QWORD PTR [rax]
	mov	rax, QWORD PTR [rax]
	movsxd	rax, DWORD PTR [rax+4]
	mov	rcx, QWORD PTR this$[rsp]
	add	rax, QWORD PTR [rcx]
	mov	rcx, rax
	call	?rdbuf@?$basic_ios@DU?$char_traits@D@std@@@std@@QEBAPEAV?$basic_streambuf@DU?$char_traits@D@std@@@2@XZ ; std::basic_ios<char,std::char_traits<char> >::rdbuf
	test	rax, rax
	je	SHORT $LN1@Sentry_bas
; Line 84
	mov	rax, QWORD PTR this$[rsp]
	mov	rax, QWORD PTR [rax]
	mov	rax, QWORD PTR [rax]
	movsxd	rax, DWORD PTR [rax+4]
	mov	rcx, QWORD PTR this$[rsp]
	add	rax, QWORD PTR [rcx]
	mov	rcx, rax
	call	?rdbuf@?$basic_ios@DU?$char_traits@D@std@@@std@@QEBAPEAV?$basic_streambuf@DU?$char_traits@D@std@@@2@XZ ; std::basic_ios<char,std::char_traits<char> >::rdbuf
	mov	QWORD PTR tv92[rsp], rax
	mov	rax, QWORD PTR tv92[rsp]
	mov	rax, QWORD PTR [rax]
	mov	rcx, QWORD PTR tv92[rsp]
	call	QWORD PTR [rax+16]
$LN1@Sentry_bas:
; Line 85
	add	rsp, 48					; 00000030H
	pop	rdi
	ret	0
??1_Sentry_base@?$basic_istream@DU?$char_traits@D@std@@@std@@QEAA@XZ ENDP ; std::basic_istream<char,std::char_traits<char> >::_Sentry_base::~_Sentry_base
_TEXT	ENDS
PUBLIC	??1?$basic_filebuf@DU?$char_traits@D@std@@@std@@UEAA@XZ ; std::basic_filebuf<char,std::char_traits<char> >::~basic_filebuf<char,std::char_traits<char> >
PUBLIC	??1?$basic_iostream@DU?$char_traits@D@std@@@std@@UEAA@XZ ; std::basic_iostream<char,std::char_traits<char> >::~basic_iostream<char,std::char_traits<char> >
PUBLIC	?open@?$basic_filebuf@DU?$char_traits@D@std@@@std@@QEAAPEAV12@PEBDHH@Z ; std::basic_filebuf<char,std::char_traits<char> >::open
PUBLIC	??0?$basic_filebuf@DU?$char_traits@D@std@@@std@@QEAA@PEAU_iobuf@@@Z ; std::basic_filebuf<char,std::char_traits<char> >::basic_filebuf<char,std::char_traits<char> >
PUBLIC	??_7?$basic_fstream@DU?$char_traits@D@std@@@std@@6B@ ; std::basic_fstream<char,std::char_traits<char> >::`vftable'
PUBLIC	??0?$basic_iostream@DU?$char_traits@D@std@@@std@@QEAA@PEAV?$basic_streambuf@DU?$char_traits@D@std@@@1@@Z ; std::basic_iostream<char,std::char_traits<char> >::basic_iostream<char,std::char_traits<char> >
PUBLIC	??0?$basic_ios@DU?$char_traits@D@std@@@std@@IEAA@XZ ; std::basic_ios<char,std::char_traits<char> >::basic_ios<char,std::char_traits<char> >
PUBLIC	??_8?$basic_fstream@DU?$char_traits@D@std@@@std@@7B?$basic_ostream@DU?$char_traits@D@std@@@1@@ ; std::basic_fstream<char,std::char_traits<char> >::`vbtable'
PUBLIC	??_8?$basic_fstream@DU?$char_traits@D@std@@@std@@7B?$basic_istream@DU?$char_traits@D@std@@@1@@ ; std::basic_fstream<char,std::char_traits<char> >::`vbtable'
PUBLIC	??_R4?$basic_fstream@DU?$char_traits@D@std@@@std@@6B@ ; std::basic_fstream<char,std::char_traits<char> >::`RTTI Complete Object Locator'
PUBLIC	??_R0?AV?$basic_fstream@DU?$char_traits@D@std@@@std@@@8 ; std::basic_fstream<char,std::char_traits<char> > `RTTI Type Descriptor'
PUBLIC	??_R3?$basic_fstream@DU?$char_traits@D@std@@@std@@8 ; std::basic_fstream<char,std::char_traits<char> >::`RTTI Class Hierarchy Descriptor'
PUBLIC	??_R2?$basic_fstream@DU?$char_traits@D@std@@@std@@8 ; std::basic_fstream<char,std::char_traits<char> >::`RTTI Base Class Array'
PUBLIC	??_R1A@?0A@EA@?$basic_fstream@DU?$char_traits@D@std@@@std@@8 ; std::basic_fstream<char,std::char_traits<char> >::`RTTI Base Class Descriptor at (0,-1,0,64)'
PUBLIC	??_R1A@?0A@EA@?$basic_iostream@DU?$char_traits@D@std@@@std@@8 ; std::basic_iostream<char,std::char_traits<char> >::`RTTI Base Class Descriptor at (0,-1,0,64)'
PUBLIC	??_R0?AV?$basic_iostream@DU?$char_traits@D@std@@@std@@@8 ; std::basic_iostream<char,std::char_traits<char> > `RTTI Type Descriptor'
PUBLIC	??_R3?$basic_iostream@DU?$char_traits@D@std@@@std@@8 ; std::basic_iostream<char,std::char_traits<char> >::`RTTI Class Hierarchy Descriptor'
PUBLIC	??_R2?$basic_iostream@DU?$char_traits@D@std@@@std@@8 ; std::basic_iostream<char,std::char_traits<char> >::`RTTI Base Class Array'
PUBLIC	??_R1A@?0A@EA@?$basic_istream@DU?$char_traits@D@std@@@std@@8 ; std::basic_istream<char,std::char_traits<char> >::`RTTI Base Class Descriptor at (0,-1,0,64)'
PUBLIC	??_R0?AV?$basic_istream@DU?$char_traits@D@std@@@std@@@8 ; std::basic_istream<char,std::char_traits<char> > `RTTI Type Descriptor'
PUBLIC	??_R3?$basic_istream@DU?$char_traits@D@std@@@std@@8 ; std::basic_istream<char,std::char_traits<char> >::`RTTI Class Hierarchy Descriptor'
PUBLIC	??_R2?$basic_istream@DU?$char_traits@D@std@@@std@@8 ; std::basic_istream<char,std::char_traits<char> >::`RTTI Base Class Array'
PUBLIC	??_R1A@A@3FA@?$basic_ios@DU?$char_traits@D@std@@@std@@8 ; std::basic_ios<char,std::char_traits<char> >::`RTTI Base Class Descriptor at (0,0,4,80)'
PUBLIC	??_R1A@A@3EA@ios_base@std@@8			; std::ios_base::`RTTI Base Class Descriptor at (0,0,4,64)'
PUBLIC	??_R17A@3EA@?$_Iosb@H@std@@8			; std::_Iosb<int>::`RTTI Base Class Descriptor at (8,0,4,64)'
PUBLIC	??_R1BA@?0A@EA@?$basic_ostream@DU?$char_traits@D@std@@@std@@8 ; std::basic_ostream<char,std::char_traits<char> >::`RTTI Base Class Descriptor at (16,-1,0,64)'
PUBLIC	??_R0?AV?$basic_ostream@DU?$char_traits@D@std@@@std@@@8 ; std::basic_ostream<char,std::char_traits<char> > `RTTI Type Descriptor'
PUBLIC	??_R3?$basic_ostream@DU?$char_traits@D@std@@@std@@8 ; std::basic_ostream<char,std::char_traits<char> >::`RTTI Class Hierarchy Descriptor'
PUBLIC	??_R2?$basic_ostream@DU?$char_traits@D@std@@@std@@8 ; std::basic_ostream<char,std::char_traits<char> >::`RTTI Base Class Array'
PUBLIC	??_R1A@?0A@EA@?$basic_ostream@DU?$char_traits@D@std@@@std@@8 ; std::basic_ostream<char,std::char_traits<char> >::`RTTI Base Class Descriptor at (0,-1,0,64)'
EXTRN	??_E?$basic_fstream@DU?$char_traits@D@std@@@std@@UEAAPEAXI@Z:PROC ; std::basic_fstream<char,std::char_traits<char> >::`vector deleting destructor'
;	COMDAT pdata
; File c:\program files (x86)\microsoft visual studio 10.0\vc\include\fstream
pdata	SEGMENT
$pdata$??0?$basic_fstream@DU?$char_traits@D@std@@@std@@QEAA@PEBDHH@Z DD imagerel $LN9
	DD	imagerel $LN9+293
	DD	imagerel $unwind$??0?$basic_fstream@DU?$char_traits@D@std@@@std@@QEAA@PEBDHH@Z
pdata	ENDS
;	COMDAT pdata
pdata	SEGMENT
$pdata$?dtor$0@?0???0?$basic_fstream@DU?$char_traits@D@std@@@std@@QEAA@PEBDHH@Z@4HA DD imagerel ?dtor$0@?0???0?$basic_fstream@DU?$char_traits@D@std@@@std@@QEAA@PEBDHH@Z@4HA
	DD	imagerel ?dtor$0@?0???0?$basic_fstream@DU?$char_traits@D@std@@@std@@QEAA@PEBDHH@Z@4HA+56
	DD	imagerel $unwind$?dtor$0@?0???0?$basic_fstream@DU?$char_traits@D@std@@@std@@QEAA@PEBDHH@Z@4HA
pdata	ENDS
;	COMDAT pdata
pdata	SEGMENT
$pdata$?dtor$1@?0???0?$basic_fstream@DU?$char_traits@D@std@@@std@@QEAA@PEBDHH@Z@4HA DD imagerel ?dtor$1@?0???0?$basic_fstream@DU?$char_traits@D@std@@@std@@QEAA@PEBDHH@Z@4HA
	DD	imagerel ?dtor$1@?0???0?$basic_fstream@DU?$char_traits@D@std@@@std@@QEAA@PEBDHH@Z@4HA+39
	DD	imagerel $unwind$?dtor$1@?0???0?$basic_fstream@DU?$char_traits@D@std@@@std@@QEAA@PEBDHH@Z@4HA
pdata	ENDS
;	COMDAT pdata
pdata	SEGMENT
$pdata$?dtor$2@?0???0?$basic_fstream@DU?$char_traits@D@std@@@std@@QEAA@PEBDHH@Z@4HA DD imagerel ?dtor$2@?0???0?$basic_fstream@DU?$char_traits@D@std@@@std@@QEAA@PEBDHH@Z@4HA
	DD	imagerel ?dtor$2@?0???0?$basic_fstream@DU?$char_traits@D@std@@@std@@QEAA@PEBDHH@Z@4HA+39
	DD	imagerel $unwind$?dtor$2@?0???0?$basic_fstream@DU?$char_traits@D@std@@@std@@QEAA@PEBDHH@Z@4HA
pdata	ENDS
;	COMDAT xdata
xdata	SEGMENT
$ip2state$??0?$basic_fstream@DU?$char_traits@D@std@@@std@@QEAA@PEBDHH@Z DD imagerel ??0?$basic_fstream@DU?$char_traits@D@std@@@std@@QEAA@PEBDHH@Z
	DD	0ffffffffH
	DD	imagerel ??0?$basic_fstream@DU?$char_traits@D@std@@@std@@QEAA@PEBDHH@Z+120
	DD	00H
	DD	imagerel ??0?$basic_fstream@DU?$char_traits@D@std@@@std@@QEAA@PEBDHH@Z+157
	DD	01H
	DD	imagerel ??0?$basic_fstream@DU?$char_traits@D@std@@@std@@QEAA@PEBDHH@Z+205
	DD	02H
	DD	imagerel ??0?$basic_fstream@DU?$char_traits@D@std@@@std@@QEAA@PEBDHH@Z+282
	DD	0ffffffffH
xdata	ENDS
;	COMDAT ??_R1A@?0A@EA@?$basic_ostream@DU?$char_traits@D@std@@@std@@8
rdata$r	SEGMENT
??_R1A@?0A@EA@?$basic_ostream@DU?$char_traits@D@std@@@std@@8 DD imagerel ??_R0?AV?$basic_ostream@DU?$char_traits@D@std@@@std@@@8 ; std::basic_ostream<char,std::char_traits<char> >::`RTTI Base Class Descriptor at (0,-1,0,64)'
	DD	03H
	DD	00H
	DD	0ffffffffH
	DD	00H
	DD	040H
	DD	imagerel ??_R3?$basic_ostream@DU?$char_traits@D@std@@@std@@8
rdata$r	ENDS
;	COMDAT ??_R2?$basic_ostream@DU?$char_traits@D@std@@@std@@8
rdata$r	SEGMENT
??_R2?$basic_ostream@DU?$char_traits@D@std@@@std@@8 DD imagerel ??_R1A@?0A@EA@?$basic_ostream@DU?$char_traits@D@std@@@std@@8 ; std::basic_ostream<char,std::char_traits<char> >::`RTTI Base Class Array'
	DD	imagerel ??_R1A@A@3FA@?$basic_ios@DU?$char_traits@D@std@@@std@@8
	DD	imagerel ??_R1A@A@3EA@ios_base@std@@8
	DD	imagerel ??_R17A@3EA@?$_Iosb@H@std@@8
	ORG $+3
rdata$r	ENDS
;	COMDAT ??_R3?$basic_ostream@DU?$char_traits@D@std@@@std@@8
rdata$r	SEGMENT
??_R3?$basic_ostream@DU?$char_traits@D@std@@@std@@8 DD 00H ; std::basic_ostream<char,std::char_traits<char> >::`RTTI Class Hierarchy Descriptor'
	DD	00H
	DD	04H
	DD	imagerel ??_R2?$basic_ostream@DU?$char_traits@D@std@@@std@@8
rdata$r	ENDS
;	COMDAT ??_R0?AV?$basic_ostream@DU?$char_traits@D@std@@@std@@@8
_DATA	SEGMENT
??_R0?AV?$basic_ostream@DU?$char_traits@D@std@@@std@@@8 DQ FLAT:??_7type_info@@6B@ ; std::basic_ostream<char,std::char_traits<char> > `RTTI Type Descriptor'
	DQ	0000000000000000H
	DB	'.?AV?$basic_ostream@DU?$char_traits@D@std@@@std@@', 00H
_DATA	ENDS
;	COMDAT ??_R1BA@?0A@EA@?$basic_ostream@DU?$char_traits@D@std@@@std@@8
rdata$r	SEGMENT
??_R1BA@?0A@EA@?$basic_ostream@DU?$char_traits@D@std@@@std@@8 DD imagerel ??_R0?AV?$basic_ostream@DU?$char_traits@D@std@@@std@@@8 ; std::basic_ostream<char,std::char_traits<char> >::`RTTI Base Class Descriptor at (16,-1,0,64)'
	DD	03H
	DD	010H
	DD	0ffffffffH
	DD	00H
	DD	040H
	DD	imagerel ??_R3?$basic_ostream@DU?$char_traits@D@std@@@std@@8
rdata$r	ENDS
;	COMDAT ??_R17A@3EA@?$_Iosb@H@std@@8
rdata$r	SEGMENT
??_R17A@3EA@?$_Iosb@H@std@@8 DD imagerel ??_R0?AV?$_Iosb@H@std@@@8 ; std::_Iosb<int>::`RTTI Base Class Descriptor at (8,0,4,64)'
	DD	00H
	DD	08H
	DD	00H
	DD	04H
	DD	040H
	DD	imagerel ??_R3?$_Iosb@H@std@@8
rdata$r	ENDS
;	COMDAT ??_R1A@A@3EA@ios_base@std@@8
rdata$r	SEGMENT
??_R1A@A@3EA@ios_base@std@@8 DD imagerel ??_R0?AVios_base@std@@@8 ; std::ios_base::`RTTI Base Class Descriptor at (0,0,4,64)'
	DD	01H
	DD	00H
	DD	00H
	DD	04H
	DD	040H
	DD	imagerel ??_R3ios_base@std@@8
rdata$r	ENDS
;	COMDAT ??_R1A@A@3FA@?$basic_ios@DU?$char_traits@D@std@@@std@@8
rdata$r	SEGMENT
??_R1A@A@3FA@?$basic_ios@DU?$char_traits@D@std@@@std@@8 DD imagerel ??_R0?AV?$basic_ios@DU?$char_traits@D@std@@@std@@@8 ; std::basic_ios<char,std::char_traits<char> >::`RTTI Base Class Descriptor at (0,0,4,80)'
	DD	02H
	DD	00H
	DD	00H
	DD	04H
	DD	050H
	DD	imagerel ??_R3?$basic_ios@DU?$char_traits@D@std@@@std@@8
rdata$r	ENDS
;	COMDAT ??_R2?$basic_istream@DU?$char_traits@D@std@@@std@@8
rdata$r	SEGMENT
??_R2?$basic_istream@DU?$char_traits@D@std@@@std@@8 DD imagerel ??_R1A@?0A@EA@?$basic_istream@DU?$char_traits@D@std@@@std@@8 ; std::basic_istream<char,std::char_traits<char> >::`RTTI Base Class Array'
	DD	imagerel ??_R1A@A@3FA@?$basic_ios@DU?$char_traits@D@std@@@std@@8
	DD	imagerel ??_R1A@A@3EA@ios_base@std@@8
	DD	imagerel ??_R17A@3EA@?$_Iosb@H@std@@8
	ORG $+3
rdata$r	ENDS
;	COMDAT ??_R3?$basic_istream@DU?$char_traits@D@std@@@std@@8
rdata$r	SEGMENT
??_R3?$basic_istream@DU?$char_traits@D@std@@@std@@8 DD 00H ; std::basic_istream<char,std::char_traits<char> >::`RTTI Class Hierarchy Descriptor'
	DD	00H
	DD	04H
	DD	imagerel ??_R2?$basic_istream@DU?$char_traits@D@std@@@std@@8
rdata$r	ENDS
;	COMDAT ??_R0?AV?$basic_istream@DU?$char_traits@D@std@@@std@@@8
_DATA	SEGMENT
??_R0?AV?$basic_istream@DU?$char_traits@D@std@@@std@@@8 DQ FLAT:??_7type_info@@6B@ ; std::basic_istream<char,std::char_traits<char> > `RTTI Type Descriptor'
	DQ	0000000000000000H
	DB	'.?AV?$basic_istream@DU?$char_traits@D@std@@@std@@', 00H
_DATA	ENDS
;	COMDAT ??_R1A@?0A@EA@?$basic_istream@DU?$char_traits@D@std@@@std@@8
rdata$r	SEGMENT
??_R1A@?0A@EA@?$basic_istream@DU?$char_traits@D@std@@@std@@8 DD imagerel ??_R0?AV?$basic_istream@DU?$char_traits@D@std@@@std@@@8 ; std::basic_istream<char,std::char_traits<char> >::`RTTI Base Class Descriptor at (0,-1,0,64)'
	DD	03H
	DD	00H
	DD	0ffffffffH
	DD	00H
	DD	040H
	DD	imagerel ??_R3?$basic_istream@DU?$char_traits@D@std@@@std@@8
rdata$r	ENDS
;	COMDAT ??_R2?$basic_iostream@DU?$char_traits@D@std@@@std@@8
rdata$r	SEGMENT
??_R2?$basic_iostream@DU?$char_traits@D@std@@@std@@8 DD imagerel ??_R1A@?0A@EA@?$basic_iostream@DU?$char_traits@D@std@@@std@@8 ; std::basic_iostream<char,std::char_traits<char> >::`RTTI Base Class Array'
	DD	imagerel ??_R1A@?0A@EA@?$basic_istream@DU?$char_traits@D@std@@@std@@8
	DD	imagerel ??_R1A@A@3FA@?$basic_ios@DU?$char_traits@D@std@@@std@@8
	DD	imagerel ??_R1A@A@3EA@ios_base@std@@8
	DD	imagerel ??_R17A@3EA@?$_Iosb@H@std@@8
	DD	imagerel ??_R1BA@?0A@EA@?$basic_ostream@DU?$char_traits@D@std@@@std@@8
	DD	imagerel ??_R1A@A@3FA@?$basic_ios@DU?$char_traits@D@std@@@std@@8
	DD	imagerel ??_R1A@A@3EA@ios_base@std@@8
	DD	imagerel ??_R17A@3EA@?$_Iosb@H@std@@8
	ORG $+3
rdata$r	ENDS
;	COMDAT ??_R3?$basic_iostream@DU?$char_traits@D@std@@@std@@8
rdata$r	SEGMENT
??_R3?$basic_iostream@DU?$char_traits@D@std@@@std@@8 DD 00H ; std::basic_iostream<char,std::char_traits<char> >::`RTTI Class Hierarchy Descriptor'
	DD	03H
	DD	09H
	DD	imagerel ??_R2?$basic_iostream@DU?$char_traits@D@std@@@std@@8
rdata$r	ENDS
;	COMDAT ??_R0?AV?$basic_iostream@DU?$char_traits@D@std@@@std@@@8
_DATA	SEGMENT
??_R0?AV?$basic_iostream@DU?$char_traits@D@std@@@std@@@8 DQ FLAT:??_7type_info@@6B@ ; std::basic_iostream<char,std::char_traits<char> > `RTTI Type Descriptor'
	DQ	0000000000000000H
	DB	'.?AV?$basic_iostream@DU?$char_traits@D@std@@@std@@', 00H
_DATA	ENDS
;	COMDAT ??_R1A@?0A@EA@?$basic_iostream@DU?$char_traits@D@std@@@std@@8
rdata$r	SEGMENT
??_R1A@?0A@EA@?$basic_iostream@DU?$char_traits@D@std@@@std@@8 DD imagerel ??_R0?AV?$basic_iostream@DU?$char_traits@D@std@@@std@@@8 ; std::basic_iostream<char,std::char_traits<char> >::`RTTI Base Class Descriptor at (0,-1,0,64)'
	DD	08H
	DD	00H
	DD	0ffffffffH
	DD	00H
	DD	040H
	DD	imagerel ??_R3?$basic_iostream@DU?$char_traits@D@std@@@std@@8
rdata$r	ENDS
;	COMDAT ??_R1A@?0A@EA@?$basic_fstream@DU?$char_traits@D@std@@@std@@8
rdata$r	SEGMENT
??_R1A@?0A@EA@?$basic_fstream@DU?$char_traits@D@std@@@std@@8 DD imagerel ??_R0?AV?$basic_fstream@DU?$char_traits@D@std@@@std@@@8 ; std::basic_fstream<char,std::char_traits<char> >::`RTTI Base Class Descriptor at (0,-1,0,64)'
	DD	09H
	DD	00H
	DD	0ffffffffH
	DD	00H
	DD	040H
	DD	imagerel ??_R3?$basic_fstream@DU?$char_traits@D@std@@@std@@8
rdata$r	ENDS
;	COMDAT ??_R2?$basic_fstream@DU?$char_traits@D@std@@@std@@8
rdata$r	SEGMENT
??_R2?$basic_fstream@DU?$char_traits@D@std@@@std@@8 DD imagerel ??_R1A@?0A@EA@?$basic_fstream@DU?$char_traits@D@std@@@std@@8 ; std::basic_fstream<char,std::char_traits<char> >::`RTTI Base Class Array'
	DD	imagerel ??_R1A@?0A@EA@?$basic_iostream@DU?$char_traits@D@std@@@std@@8
	DD	imagerel ??_R1A@?0A@EA@?$basic_istream@DU?$char_traits@D@std@@@std@@8
	DD	imagerel ??_R1A@A@3FA@?$basic_ios@DU?$char_traits@D@std@@@std@@8
	DD	imagerel ??_R1A@A@3EA@ios_base@std@@8
	DD	imagerel ??_R17A@3EA@?$_Iosb@H@std@@8
	DD	imagerel ??_R1BA@?0A@EA@?$basic_ostream@DU?$char_traits@D@std@@@std@@8
	DD	imagerel ??_R1A@A@3FA@?$basic_ios@DU?$char_traits@D@std@@@std@@8
	DD	imagerel ??_R1A@A@3EA@ios_base@std@@8
	DD	imagerel ??_R17A@3EA@?$_Iosb@H@std@@8
	ORG $+3
rdata$r	ENDS
;	COMDAT ??_R3?$basic_fstream@DU?$char_traits@D@std@@@std@@8
rdata$r	SEGMENT
??_R3?$basic_fstream@DU?$char_traits@D@std@@@std@@8 DD 00H ; std::basic_fstream<char,std::char_traits<char> >::`RTTI Class Hierarchy Descriptor'
	DD	03H
	DD	0aH
	DD	imagerel ??_R2?$basic_fstream@DU?$char_traits@D@std@@@std@@8
rdata$r	ENDS
;	COMDAT ??_R0?AV?$basic_fstream@DU?$char_traits@D@std@@@std@@@8
_DATA	SEGMENT
??_R0?AV?$basic_fstream@DU?$char_traits@D@std@@@std@@@8 DQ FLAT:??_7type_info@@6B@ ; std::basic_fstream<char,std::char_traits<char> > `RTTI Type Descriptor'
	DQ	0000000000000000H
	DB	'.?AV?$basic_fstream@DU?$char_traits@D@std@@@std@@', 00H
_DATA	ENDS
;	COMDAT ??_R4?$basic_fstream@DU?$char_traits@D@std@@@std@@6B@
rdata$r	SEGMENT
??_R4?$basic_fstream@DU?$char_traits@D@std@@@std@@6B@ DD 01H ; std::basic_fstream<char,std::char_traits<char> >::`RTTI Complete Object Locator'
	DD	0b8H
	DD	00H
	DD	imagerel ??_R0?AV?$basic_fstream@DU?$char_traits@D@std@@@std@@@8
	DD	imagerel ??_R3?$basic_fstream@DU?$char_traits@D@std@@@std@@8
	DD	imagerel ??_R4?$basic_fstream@DU?$char_traits@D@std@@@std@@6B@
rdata$r	ENDS
;	COMDAT xdata
xdata	SEGMENT
$unwind$?dtor$2@?0???0?$basic_fstream@DU?$char_traits@D@std@@@std@@QEAA@PEBDHH@Z@4HA DD 031001H
	DD	0700c4210H
	DD	0500bH
xdata	ENDS
;	COMDAT xdata
xdata	SEGMENT
$unwind$?dtor$1@?0???0?$basic_fstream@DU?$char_traits@D@std@@@std@@QEAA@PEBDHH@Z@4HA DD 031001H
	DD	0700c4210H
	DD	0500bH
xdata	ENDS
;	COMDAT xdata
xdata	SEGMENT
$unwind$?dtor$0@?0???0?$basic_fstream@DU?$char_traits@D@std@@@std@@QEAA@PEBDHH@Z@4HA DD 031001H
	DD	0700c4210H
	DD	0500bH
xdata	ENDS
;	COMDAT xdata
xdata	SEGMENT
$unwind$??0?$basic_fstream@DU?$char_traits@D@std@@@std@@QEAA@PEBDHH@Z DD 023611H
	DD	070155219H
	DD	imagerel __CxxFrameHandler3
	DD	imagerel $cppxdata$??0?$basic_fstream@DU?$char_traits@D@std@@@std@@QEAA@PEBDHH@Z
xdata	ENDS
;	COMDAT CONST
CONST	SEGMENT
$cppxdata$??0?$basic_fstream@DU?$char_traits@D@std@@@std@@QEAA@PEBDHH@Z DD 019930522H
	DD	03H
	DD	imagerel $stateUnwindMap$??0?$basic_fstream@DU?$char_traits@D@std@@@std@@QEAA@PEBDHH@Z
	DD	00H
	DD	00H
	DD	05H
	DD	imagerel $ip2state$??0?$basic_fstream@DU?$char_traits@D@std@@@std@@QEAA@PEBDHH@Z
	DD	028H
	DD	00H
	DD	01H
CONST	ENDS
;	COMDAT xdata
xdata	SEGMENT
$stateUnwindMap$??0?$basic_fstream@DU?$char_traits@D@std@@@std@@QEAA@PEBDHH@Z DD 0ffffffffH
	DD	imagerel ?dtor$0@?0???0?$basic_fstream@DU?$char_traits@D@std@@@std@@QEAA@PEBDHH@Z@4HA
	DD	00H
	DD	imagerel ?dtor$1@?0???0?$basic_fstream@DU?$char_traits@D@std@@@std@@QEAA@PEBDHH@Z@4HA
	DD	01H
	DD	imagerel ?dtor$2@?0???0?$basic_fstream@DU?$char_traits@D@std@@@std@@QEAA@PEBDHH@Z@4HA
xdata	ENDS
;	COMDAT ??_7?$basic_fstream@DU?$char_traits@D@std@@@std@@6B@
CONST	SEGMENT
??_7?$basic_fstream@DU?$char_traits@D@std@@@std@@6B@ DQ FLAT:??_R4?$basic_fstream@DU?$char_traits@D@std@@@std@@6B@ ; std::basic_fstream<char,std::char_traits<char> >::`vftable'
	DQ	FLAT:??_E?$basic_fstream@DU?$char_traits@D@std@@@std@@UEAAPEAXI@Z
CONST	ENDS
;	COMDAT ??_8?$basic_fstream@DU?$char_traits@D@std@@@std@@7B?$basic_ostream@DU?$char_traits@D@std@@@1@@
CONST	SEGMENT
??_8?$basic_fstream@DU?$char_traits@D@std@@@std@@7B?$basic_ostream@DU?$char_traits@D@std@@@1@@ DD 00H ; std::basic_fstream<char,std::char_traits<char> >::`vbtable'
	DD	0a8H
CONST	ENDS
;	COMDAT ??_8?$basic_fstream@DU?$char_traits@D@std@@@std@@7B?$basic_istream@DU?$char_traits@D@std@@@1@@
CONST	SEGMENT
??_8?$basic_fstream@DU?$char_traits@D@std@@@std@@7B?$basic_istream@DU?$char_traits@D@std@@@1@@ DD 00H ; std::basic_fstream<char,std::char_traits<char> >::`vbtable'
	DD	0b8H
; Function compile flags: /Odtp /RTCsu
CONST	ENDS
;	COMDAT ??0?$basic_fstream@DU?$char_traits@D@std@@@std@@QEAA@PEBDHH@Z
_TEXT	SEGMENT
$T37883 = 32
$T37894 = 40
this$ = 64
_Filename$ = 72
_Mode$ = 80
_Prot$ = 88
$initVBases$ = 96
??0?$basic_fstream@DU?$char_traits@D@std@@@std@@QEAA@PEBDHH@Z PROC ; std::basic_fstream<char,std::char_traits<char> >::basic_fstream<char,std::char_traits<char> >, COMDAT
; Line 1171
$LN9:
	mov	DWORD PTR [rsp+32], r9d
	mov	DWORD PTR [rsp+24], r8d
	mov	QWORD PTR [rsp+16], rdx
	mov	QWORD PTR [rsp+8], rcx
	push	rdi
	sub	rsp, 48					; 00000030H
	mov	rdi, rsp
	mov	ecx, 12
	mov	eax, -858993460				; ccccccccH
	rep stosd
	mov	rcx, QWORD PTR [rsp+64]
	mov	QWORD PTR $T37894[rsp], -2
	mov	DWORD PTR $T37883[rsp], 0
	cmp	DWORD PTR $initVBases$[rsp], 0
	je	SHORT $LN2@basic_fstr
	mov	rax, QWORD PTR this$[rsp]
	lea	rcx, OFFSET FLAT:??_8?$basic_fstream@DU?$char_traits@D@std@@@std@@7B?$basic_istream@DU?$char_traits@D@std@@@1@@
	mov	QWORD PTR [rax], rcx
	mov	rax, QWORD PTR this$[rsp]
	lea	rcx, OFFSET FLAT:??_8?$basic_fstream@DU?$char_traits@D@std@@@std@@7B?$basic_ostream@DU?$char_traits@D@std@@@1@@
	mov	QWORD PTR [rax+16], rcx
	mov	rax, QWORD PTR this$[rsp]
	add	rax, 184				; 000000b8H
	mov	rcx, rax
	call	??0?$basic_ios@DU?$char_traits@D@std@@@std@@IEAA@XZ ; std::basic_ios<char,std::char_traits<char> >::basic_ios<char,std::char_traits<char> >
	npad	1
	mov	eax, DWORD PTR $T37883[rsp]
	or	eax, 1
	mov	DWORD PTR $T37883[rsp], eax
$LN2@basic_fstr:
	mov	rax, QWORD PTR this$[rsp]
	add	rax, 24
	xor	r8d, r8d
	mov	rdx, rax
	mov	rcx, QWORD PTR this$[rsp]
	call	??0?$basic_iostream@DU?$char_traits@D@std@@@std@@QEAA@PEAV?$basic_streambuf@DU?$char_traits@D@std@@@1@@Z ; std::basic_iostream<char,std::char_traits<char> >::basic_iostream<char,std::char_traits<char> >
	npad	1
	mov	rax, QWORD PTR this$[rsp]
	mov	rax, QWORD PTR [rax]
	movsxd	rax, DWORD PTR [rax+4]
	mov	rcx, QWORD PTR this$[rsp]
	lea	rdx, OFFSET FLAT:??_7?$basic_fstream@DU?$char_traits@D@std@@@std@@6B@
	mov	QWORD PTR [rcx+rax], rdx
	mov	rax, QWORD PTR this$[rsp]
	add	rax, 24
	xor	edx, edx
	mov	rcx, rax
	call	??0?$basic_filebuf@DU?$char_traits@D@std@@@std@@QEAA@PEAU_iobuf@@@Z ; std::basic_filebuf<char,std::char_traits<char> >::basic_filebuf<char,std::char_traits<char> >
	npad	1
; Line 1172
	mov	rax, QWORD PTR this$[rsp]
	add	rax, 24
	mov	r9d, DWORD PTR _Prot$[rsp]
	mov	r8d, DWORD PTR _Mode$[rsp]
	mov	rdx, QWORD PTR _Filename$[rsp]
	mov	rcx, rax
	call	?open@?$basic_filebuf@DU?$char_traits@D@std@@@std@@QEAAPEAV12@PEBDHH@Z ; std::basic_filebuf<char,std::char_traits<char> >::open
	test	rax, rax
	jne	SHORT $LN1@basic_fstr
; Line 1173
	mov	rax, QWORD PTR this$[rsp]
	mov	rax, QWORD PTR [rax]
	movsxd	rax, DWORD PTR [rax+4]
	mov	rcx, QWORD PTR this$[rsp]
	add	rcx, rax
	mov	rax, rcx
	xor	r8d, r8d
	mov	edx, 2
	mov	rcx, rax
	call	?setstate@?$basic_ios@DU?$char_traits@D@std@@@std@@QEAAXH_N@Z ; std::basic_ios<char,std::char_traits<char> >::setstate
	npad	1
$LN1@basic_fstr:
; Line 1174
	mov	rax, QWORD PTR this$[rsp]
	add	rsp, 48					; 00000030H
	pop	rdi
	ret	0
??0?$basic_fstream@DU?$char_traits@D@std@@@std@@QEAA@PEBDHH@Z ENDP ; std::basic_fstream<char,std::char_traits<char> >::basic_fstream<char,std::char_traits<char> >
; Function compile flags: /Odtp /RTCsu
_TEXT	ENDS
;	COMDAT text$x
text$x	SEGMENT
$T37883 = 32
$T37894 = 40
this$ = 64
_Filename$ = 72
_Mode$ = 80
_Prot$ = 88
$initVBases$ = 96
?dtor$0@?0???0?$basic_fstream@DU?$char_traits@D@std@@@std@@QEAA@PEBDHH@Z@4HA PROC ; `std::basic_fstream<char,std::char_traits<char> >::basic_fstream<char,std::char_traits<char> >'::`1'::dtor$0
	mov	QWORD PTR [rsp+8], rcx
	mov	QWORD PTR [rsp+16], rdx
	push	rbp
	push	rdi
	sub	rsp, 40					; 00000028H
	mov	rbp, rdx
	mov	eax, DWORD PTR $T37883[rbp]
	and	eax, 1
	test	eax, eax
	je	SHORT $LN6@dtor$0
	and	DWORD PTR $T37883[rbp], -2
	mov	rcx, QWORD PTR this$[rbp]
	add	rcx, 184				; 000000b8H
	call	??1?$basic_ios@DU?$char_traits@D@std@@@std@@UEAA@XZ ; std::basic_ios<char,std::char_traits<char> >::~basic_ios<char,std::char_traits<char> >
$LN6@dtor$0:
	add	rsp, 40					; 00000028H
	pop	rdi
	pop	rbp
	ret	0
?dtor$0@?0???0?$basic_fstream@DU?$char_traits@D@std@@@std@@QEAA@PEBDHH@Z@4HA ENDP ; `std::basic_fstream<char,std::char_traits<char> >::basic_fstream<char,std::char_traits<char> >'::`1'::dtor$0
; Function compile flags: /Odtp /RTCsu
$T37883 = 32
$T37894 = 40
this$ = 64
_Filename$ = 72
_Mode$ = 80
_Prot$ = 88
$initVBases$ = 96
?dtor$1@?0???0?$basic_fstream@DU?$char_traits@D@std@@@std@@QEAA@PEBDHH@Z@4HA PROC ; `std::basic_fstream<char,std::char_traits<char> >::basic_fstream<char,std::char_traits<char> >'::`1'::dtor$1
	mov	QWORD PTR [rsp+8], rcx
	mov	QWORD PTR [rsp+16], rdx
	push	rbp
	push	rdi
	sub	rsp, 40					; 00000028H
	mov	rbp, rdx
	mov	rcx, QWORD PTR this$[rbp]
	add	rcx, 24
	call	??1?$basic_iostream@DU?$char_traits@D@std@@@std@@UEAA@XZ ; std::basic_iostream<char,std::char_traits<char> >::~basic_iostream<char,std::char_traits<char> >
	add	rsp, 40					; 00000028H
	pop	rdi
	pop	rbp
	ret	0
?dtor$1@?0???0?$basic_fstream@DU?$char_traits@D@std@@@std@@QEAA@PEBDHH@Z@4HA ENDP ; `std::basic_fstream<char,std::char_traits<char> >::basic_fstream<char,std::char_traits<char> >'::`1'::dtor$1
; Function compile flags: /Odtp /RTCsu
$T37883 = 32
$T37894 = 40
this$ = 64
_Filename$ = 72
_Mode$ = 80
_Prot$ = 88
$initVBases$ = 96
?dtor$2@?0???0?$basic_fstream@DU?$char_traits@D@std@@@std@@QEAA@PEBDHH@Z@4HA PROC ; `std::basic_fstream<char,std::char_traits<char> >::basic_fstream<char,std::char_traits<char> >'::`1'::dtor$2
	mov	QWORD PTR [rsp+8], rcx
	mov	QWORD PTR [rsp+16], rdx
	push	rbp
	push	rdi
	sub	rsp, 40					; 00000028H
	mov	rbp, rdx
	mov	rcx, QWORD PTR this$[rbp]
	add	rcx, 24
	call	??1?$basic_filebuf@DU?$char_traits@D@std@@@std@@UEAA@XZ ; std::basic_filebuf<char,std::char_traits<char> >::~basic_filebuf<char,std::char_traits<char> >
	add	rsp, 40					; 00000028H
	pop	rdi
	pop	rbp
	ret	0
?dtor$2@?0???0?$basic_fstream@DU?$char_traits@D@std@@@std@@QEAA@PEBDHH@Z@4HA ENDP ; `std::basic_fstream<char,std::char_traits<char> >::basic_fstream<char,std::char_traits<char> >'::`1'::dtor$2
text$x	ENDS
;	COMDAT pdata
pdata	SEGMENT
$pdata$??1?$basic_fstream@DU?$char_traits@D@std@@@std@@UEAA@XZ DD imagerel $LN5
	DD	imagerel $LN5+120
	DD	imagerel $unwind$??1?$basic_fstream@DU?$char_traits@D@std@@@std@@UEAA@XZ
pdata	ENDS
;	COMDAT pdata
pdata	SEGMENT
$pdata$?dtor$0@?0???1?$basic_fstream@DU?$char_traits@D@std@@@std@@UEAA@XZ@4HA DD imagerel ?dtor$0@?0???1?$basic_fstream@DU?$char_traits@D@std@@@std@@UEAA@XZ@4HA
	DD	imagerel ?dtor$0@?0???1?$basic_fstream@DU?$char_traits@D@std@@@std@@UEAA@XZ@4HA+46
	DD	imagerel $unwind$?dtor$0@?0???1?$basic_fstream@DU?$char_traits@D@std@@@std@@UEAA@XZ@4HA
pdata	ENDS
;	COMDAT xdata
xdata	SEGMENT
$ip2state$??1?$basic_fstream@DU?$char_traits@D@std@@@std@@UEAA@XZ DD imagerel ??1?$basic_fstream@DU?$char_traits@D@std@@@std@@UEAA@XZ
	DD	0ffffffffH
	DD	imagerel ??1?$basic_fstream@DU?$char_traits@D@std@@@std@@UEAA@XZ+75
	DD	00H
	DD	imagerel ??1?$basic_fstream@DU?$char_traits@D@std@@@std@@UEAA@XZ+95
	DD	0ffffffffH
xdata	ENDS
;	COMDAT xdata
xdata	SEGMENT
$unwind$?dtor$0@?0???1?$basic_fstream@DU?$char_traits@D@std@@@std@@UEAA@XZ@4HA DD 031001H
	DD	0700c4210H
	DD	0500bH
xdata	ENDS
;	COMDAT xdata
xdata	SEGMENT
$unwind$??1?$basic_fstream@DU?$char_traits@D@std@@@std@@UEAA@XZ DD 022711H
	DD	07006520aH
	DD	imagerel __CxxFrameHandler3
	DD	imagerel $cppxdata$??1?$basic_fstream@DU?$char_traits@D@std@@@std@@UEAA@XZ
xdata	ENDS
;	COMDAT CONST
CONST	SEGMENT
$cppxdata$??1?$basic_fstream@DU?$char_traits@D@std@@@std@@UEAA@XZ DD 019930522H
	DD	01H
	DD	imagerel $stateUnwindMap$??1?$basic_fstream@DU?$char_traits@D@std@@@std@@UEAA@XZ
	DD	00H
	DD	00H
	DD	03H
	DD	imagerel $ip2state$??1?$basic_fstream@DU?$char_traits@D@std@@@std@@UEAA@XZ
	DD	020H
	DD	00H
	DD	01H
CONST	ENDS
;	COMDAT xdata
xdata	SEGMENT
$stateUnwindMap$??1?$basic_fstream@DU?$char_traits@D@std@@@std@@UEAA@XZ DD 0ffffffffH
	DD	imagerel ?dtor$0@?0???1?$basic_fstream@DU?$char_traits@D@std@@@std@@UEAA@XZ@4HA
; Function compile flags: /Odtp /RTCsu
xdata	ENDS
;	COMDAT ??1?$basic_fstream@DU?$char_traits@D@std@@@std@@UEAA@XZ
_TEXT	SEGMENT
$T37927 = 32
this$ = 64
??1?$basic_fstream@DU?$char_traits@D@std@@@std@@UEAA@XZ PROC ; std::basic_fstream<char,std::char_traits<char> >::~basic_fstream<char,std::char_traits<char> >, COMDAT
; Line 1302
$LN5:
	mov	QWORD PTR [rsp+8], rcx
	push	rdi
	sub	rsp, 48					; 00000030H
	mov	rdi, rsp
	mov	ecx, 12
	mov	eax, -858993460				; ccccccccH
	rep stosd
	mov	rcx, QWORD PTR [rsp+64]
	mov	QWORD PTR $T37927[rsp], -2
	mov	rax, QWORD PTR this$[rsp]
	mov	rax, QWORD PTR [rax-184]
	movsxd	rax, DWORD PTR [rax+4]
	mov	rcx, QWORD PTR this$[rsp]
	lea	rdx, OFFSET FLAT:??_7?$basic_fstream@DU?$char_traits@D@std@@@std@@6B@
	mov	QWORD PTR [rcx+rax-184], rdx
; Line 1303
	mov	rax, QWORD PTR this$[rsp]
	sub	rax, 160				; 000000a0H
	mov	rcx, rax
	call	??1?$basic_filebuf@DU?$char_traits@D@std@@@std@@UEAA@XZ ; std::basic_filebuf<char,std::char_traits<char> >::~basic_filebuf<char,std::char_traits<char> >
	npad	1
	mov	rax, QWORD PTR this$[rsp]
	sub	rax, 160				; 000000a0H
	mov	rcx, rax
	call	??1?$basic_iostream@DU?$char_traits@D@std@@@std@@UEAA@XZ ; std::basic_iostream<char,std::char_traits<char> >::~basic_iostream<char,std::char_traits<char> >
	add	rsp, 48					; 00000030H
	pop	rdi
	ret	0
??1?$basic_fstream@DU?$char_traits@D@std@@@std@@UEAA@XZ ENDP ; std::basic_fstream<char,std::char_traits<char> >::~basic_fstream<char,std::char_traits<char> >
; Function compile flags: /Odtp /RTCsu
_TEXT	ENDS
;	COMDAT text$x
text$x	SEGMENT
$T37927 = 32
this$ = 64
?dtor$0@?0???1?$basic_fstream@DU?$char_traits@D@std@@@std@@UEAA@XZ@4HA PROC ; `std::basic_fstream<char,std::char_traits<char> >::~basic_fstream<char,std::char_traits<char> >'::`1'::dtor$0
	mov	QWORD PTR [rsp+8], rcx
	mov	QWORD PTR [rsp+16], rdx
	push	rbp
	push	rdi
	sub	rsp, 40					; 00000028H
	mov	rbp, rdx
	mov	rcx, QWORD PTR this$[rbp]
	sub	rcx, 184				; 000000b8H
	add	rcx, 24
	call	??1?$basic_iostream@DU?$char_traits@D@std@@@std@@UEAA@XZ ; std::basic_iostream<char,std::char_traits<char> >::~basic_iostream<char,std::char_traits<char> >
	add	rsp, 40					; 00000028H
	pop	rdi
	pop	rbp
	ret	0
?dtor$0@?0???1?$basic_fstream@DU?$char_traits@D@std@@@std@@UEAA@XZ@4HA ENDP ; `std::basic_fstream<char,std::char_traits<char> >::~basic_fstream<char,std::char_traits<char> >'::`1'::dtor$0
text$x	ENDS
PUBLIC	?is_open@?$basic_filebuf@DU?$char_traits@D@std@@@std@@QEBA_NXZ ; std::basic_filebuf<char,std::char_traits<char> >::is_open
;	COMDAT pdata
pdata	SEGMENT
$pdata$?is_open@?$basic_fstream@DU?$char_traits@D@std@@@std@@QEBA_NXZ DD imagerel $LN3
	DD	imagerel $LN3+53
	DD	imagerel $unwind$?is_open@?$basic_fstream@DU?$char_traits@D@std@@@std@@QEBA_NXZ
pdata	ENDS
;	COMDAT xdata
xdata	SEGMENT
$unwind$?is_open@?$basic_fstream@DU?$char_traits@D@std@@@std@@QEBA_NXZ DD 021e01H
	DD	07006320aH
; Function compile flags: /Odtp /RTCsu
xdata	ENDS
;	COMDAT ?is_open@?$basic_fstream@DU?$char_traits@D@std@@@std@@QEBA_NXZ
_TEXT	SEGMENT
this$ = 48
?is_open@?$basic_fstream@DU?$char_traits@D@std@@@std@@QEBA_NXZ PROC ; std::basic_fstream<char,std::char_traits<char> >::is_open, COMDAT
; Line 1311
$LN3:
	mov	QWORD PTR [rsp+8], rcx
	push	rdi
	sub	rsp, 32					; 00000020H
	mov	rdi, rsp
	mov	ecx, 8
	mov	eax, -858993460				; ccccccccH
	rep stosd
	mov	rcx, QWORD PTR [rsp+48]
; Line 1312
	mov	rax, QWORD PTR this$[rsp]
	add	rax, 24
	mov	rcx, rax
	call	?is_open@?$basic_filebuf@DU?$char_traits@D@std@@@std@@QEBA_NXZ ; std::basic_filebuf<char,std::char_traits<char> >::is_open
; Line 1313
	add	rsp, 32					; 00000020H
	pop	rdi
	ret	0
?is_open@?$basic_fstream@DU?$char_traits@D@std@@@std@@QEBA_NXZ ENDP ; std::basic_fstream<char,std::char_traits<char> >::is_open
_TEXT	ENDS
PUBLIC	?close@?$basic_filebuf@DU?$char_traits@D@std@@@std@@QEAAPEAV12@XZ ; std::basic_filebuf<char,std::char_traits<char> >::close
;	COMDAT pdata
pdata	SEGMENT
$pdata$?close@?$basic_fstream@DU?$char_traits@D@std@@@std@@QEAAXXZ DD imagerel $LN4
	DD	imagerel $LN4+97
	DD	imagerel $unwind$?close@?$basic_fstream@DU?$char_traits@D@std@@@std@@QEAAXXZ
pdata	ENDS
;	COMDAT xdata
xdata	SEGMENT
$unwind$?close@?$basic_fstream@DU?$char_traits@D@std@@@std@@QEAAXXZ DD 021e01H
	DD	07006320aH
; Function compile flags: /Odtp /RTCsu
xdata	ENDS
;	COMDAT ?close@?$basic_fstream@DU?$char_traits@D@std@@@std@@QEAAXXZ
_TEXT	SEGMENT
this$ = 48
?close@?$basic_fstream@DU?$char_traits@D@std@@@std@@QEAAXXZ PROC ; std::basic_fstream<char,std::char_traits<char> >::close, COMDAT
; Line 1340
$LN4:
	mov	QWORD PTR [rsp+8], rcx
	push	rdi
	sub	rsp, 32					; 00000020H
	mov	rdi, rsp
	mov	ecx, 8
	mov	eax, -858993460				; ccccccccH
	rep stosd
	mov	rcx, QWORD PTR [rsp+48]
; Line 1341
	mov	rax, QWORD PTR this$[rsp]
	add	rax, 24
	mov	rcx, rax
	call	?close@?$basic_filebuf@DU?$char_traits@D@std@@@std@@QEAAPEAV12@XZ ; std::basic_filebuf<char,std::char_traits<char> >::close
	test	rax, rax
	jne	SHORT $LN1@close
; Line 1342
	mov	rax, QWORD PTR this$[rsp]
	mov	rax, QWORD PTR [rax]
	movsxd	rax, DWORD PTR [rax+4]
	mov	rcx, QWORD PTR this$[rsp]
	add	rcx, rax
	mov	rax, rcx
	xor	r8d, r8d
	mov	edx, 2
	mov	rcx, rax
	call	?setstate@?$basic_ios@DU?$char_traits@D@std@@@std@@QEAAXH_N@Z ; std::basic_ios<char,std::char_traits<char> >::setstate
$LN1@close:
; Line 1343
	add	rsp, 32					; 00000020H
	pop	rdi
	ret	0
?close@?$basic_fstream@DU?$char_traits@D@std@@@std@@QEAAXXZ ENDP ; std::basic_fstream<char,std::char_traits<char> >::close
_TEXT	ENDS
PUBLIC	??1?$basic_istream@DU?$char_traits@D@std@@@std@@UEAA@XZ ; std::basic_istream<char,std::char_traits<char> >::~basic_istream<char,std::char_traits<char> >
PUBLIC	??1?$basic_ostream@DU?$char_traits@D@std@@@std@@UEAA@XZ ; std::basic_ostream<char,std::char_traits<char> >::~basic_ostream<char,std::char_traits<char> >
PUBLIC	??_7?$basic_iostream@DU?$char_traits@D@std@@@std@@6B@ ; std::basic_iostream<char,std::char_traits<char> >::`vftable'
PUBLIC	??_R4?$basic_iostream@DU?$char_traits@D@std@@@std@@6B@ ; std::basic_iostream<char,std::char_traits<char> >::`RTTI Complete Object Locator'
EXTRN	??_E?$basic_iostream@DU?$char_traits@D@std@@@std@@UEAAPEAXI@Z:PROC ; std::basic_iostream<char,std::char_traits<char> >::`vector deleting destructor'
;	COMDAT pdata
; File c:\program files (x86)\microsoft visual studio 10.0\vc\include\istream
pdata	SEGMENT
$pdata$??1?$basic_iostream@DU?$char_traits@D@std@@@std@@UEAA@XZ DD imagerel $LN5
	DD	imagerel $LN5+106
	DD	imagerel $unwind$??1?$basic_iostream@DU?$char_traits@D@std@@@std@@UEAA@XZ
pdata	ENDS
;	COMDAT pdata
pdata	SEGMENT
$pdata$?dtor$0@?0???1?$basic_iostream@DU?$char_traits@D@std@@@std@@UEAA@XZ@4HA DD imagerel ?dtor$0@?0???1?$basic_iostream@DU?$char_traits@D@std@@@std@@UEAA@XZ@4HA
	DD	imagerel ?dtor$0@?0???1?$basic_iostream@DU?$char_traits@D@std@@@std@@UEAA@XZ@4HA+43
	DD	imagerel $unwind$?dtor$0@?0???1?$basic_iostream@DU?$char_traits@D@std@@@std@@UEAA@XZ@4HA
pdata	ENDS
;	COMDAT xdata
xdata	SEGMENT
$ip2state$??1?$basic_iostream@DU?$char_traits@D@std@@@std@@UEAA@XZ DD imagerel ??1?$basic_iostream@DU?$char_traits@D@std@@@std@@UEAA@XZ
	DD	0ffffffffH
	DD	imagerel ??1?$basic_iostream@DU?$char_traits@D@std@@@std@@UEAA@XZ+69
	DD	00H
	DD	imagerel ??1?$basic_iostream@DU?$char_traits@D@std@@@std@@UEAA@XZ+83
	DD	0ffffffffH
xdata	ENDS
;	COMDAT ??_R4?$basic_iostream@DU?$char_traits@D@std@@@std@@6B@
rdata$r	SEGMENT
??_R4?$basic_iostream@DU?$char_traits@D@std@@@std@@6B@ DD 01H ; std::basic_iostream<char,std::char_traits<char> >::`RTTI Complete Object Locator'
	DD	018H
	DD	00H
	DD	imagerel ??_R0?AV?$basic_iostream@DU?$char_traits@D@std@@@std@@@8
	DD	imagerel ??_R3?$basic_iostream@DU?$char_traits@D@std@@@std@@8
	DD	imagerel ??_R4?$basic_iostream@DU?$char_traits@D@std@@@std@@6B@
rdata$r	ENDS
;	COMDAT xdata
xdata	SEGMENT
$unwind$?dtor$0@?0???1?$basic_iostream@DU?$char_traits@D@std@@@std@@UEAA@XZ@4HA DD 031001H
	DD	0700c4210H
	DD	0500bH
xdata	ENDS
;	COMDAT xdata
xdata	SEGMENT
$unwind$??1?$basic_iostream@DU?$char_traits@D@std@@@std@@UEAA@XZ DD 022711H
	DD	07006520aH
	DD	imagerel __CxxFrameHandler3
	DD	imagerel $cppxdata$??1?$basic_iostream@DU?$char_traits@D@std@@@std@@UEAA@XZ
xdata	ENDS
;	COMDAT CONST
CONST	SEGMENT
$cppxdata$??1?$basic_iostream@DU?$char_traits@D@std@@@std@@UEAA@XZ DD 019930522H
	DD	01H
	DD	imagerel $stateUnwindMap$??1?$basic_iostream@DU?$char_traits@D@std@@@std@@UEAA@XZ
	DD	00H
	DD	00H
	DD	03H
	DD	imagerel $ip2state$??1?$basic_iostream@DU?$char_traits@D@std@@@std@@UEAA@XZ
	DD	020H
	DD	00H
	DD	01H
CONST	ENDS
;	COMDAT xdata
xdata	SEGMENT
$stateUnwindMap$??1?$basic_iostream@DU?$char_traits@D@std@@@std@@UEAA@XZ DD 0ffffffffH
	DD	imagerel ?dtor$0@?0???1?$basic_iostream@DU?$char_traits@D@std@@@std@@UEAA@XZ@4HA
xdata	ENDS
;	COMDAT ??_7?$basic_iostream@DU?$char_traits@D@std@@@std@@6B@
CONST	SEGMENT
??_7?$basic_iostream@DU?$char_traits@D@std@@@std@@6B@ DQ FLAT:??_R4?$basic_iostream@DU?$char_traits@D@std@@@std@@6B@ ; std::basic_iostream<char,std::char_traits<char> >::`vftable'
	DQ	FLAT:??_E?$basic_iostream@DU?$char_traits@D@std@@@std@@UEAAPEAXI@Z
; Function compile flags: /Odtp /RTCsu
CONST	ENDS
;	COMDAT ??1?$basic_iostream@DU?$char_traits@D@std@@@std@@UEAA@XZ
_TEXT	SEGMENT
$T37966 = 32
this$ = 64
??1?$basic_iostream@DU?$char_traits@D@std@@@std@@UEAA@XZ PROC ; std::basic_iostream<char,std::char_traits<char> >::~basic_iostream<char,std::char_traits<char> >, COMDAT
; Line 963
$LN5:
	mov	QWORD PTR [rsp+8], rcx
	push	rdi
	sub	rsp, 48					; 00000030H
	mov	rdi, rsp
	mov	ecx, 12
	mov	eax, -858993460				; ccccccccH
	rep stosd
	mov	rcx, QWORD PTR [rsp+64]
	mov	QWORD PTR $T37966[rsp], -2
	mov	rax, QWORD PTR this$[rsp]
	mov	rax, QWORD PTR [rax-24]
	movsxd	rax, DWORD PTR [rax+4]
	mov	rcx, QWORD PTR this$[rsp]
	lea	rdx, OFFSET FLAT:??_7?$basic_iostream@DU?$char_traits@D@std@@@std@@6B@
	mov	QWORD PTR [rcx+rax-24], rdx
; Line 964
	mov	rax, QWORD PTR this$[rsp]
	mov	rcx, rax
	call	??1?$basic_ostream@DU?$char_traits@D@std@@@std@@UEAA@XZ ; std::basic_ostream<char,std::char_traits<char> >::~basic_ostream<char,std::char_traits<char> >
	npad	1
	mov	rax, QWORD PTR this$[rsp]
	sub	rax, 8
	mov	rcx, rax
	call	??1?$basic_istream@DU?$char_traits@D@std@@@std@@UEAA@XZ ; std::basic_istream<char,std::char_traits<char> >::~basic_istream<char,std::char_traits<char> >
	add	rsp, 48					; 00000030H
	pop	rdi
	ret	0
??1?$basic_iostream@DU?$char_traits@D@std@@@std@@UEAA@XZ ENDP ; std::basic_iostream<char,std::char_traits<char> >::~basic_iostream<char,std::char_traits<char> >
; Function compile flags: /Odtp /RTCsu
_TEXT	ENDS
;	COMDAT text$x
text$x	SEGMENT
$T37966 = 32
this$ = 64
?dtor$0@?0???1?$basic_iostream@DU?$char_traits@D@std@@@std@@UEAA@XZ@4HA PROC ; `std::basic_iostream<char,std::char_traits<char> >::~basic_iostream<char,std::char_traits<char> >'::`1'::dtor$0
	mov	QWORD PTR [rsp+8], rcx
	mov	QWORD PTR [rsp+16], rdx
	push	rbp
	push	rdi
	sub	rsp, 40					; 00000028H
	mov	rbp, rdx
	mov	rcx, QWORD PTR this$[rbp]
	sub	rcx, 24
	add	rcx, 16
	call	??1?$basic_istream@DU?$char_traits@D@std@@@std@@UEAA@XZ ; std::basic_istream<char,std::char_traits<char> >::~basic_istream<char,std::char_traits<char> >
	add	rsp, 40					; 00000028H
	pop	rdi
	pop	rbp
	ret	0
?dtor$0@?0???1?$basic_iostream@DU?$char_traits@D@std@@@std@@UEAA@XZ@4HA ENDP ; `std::basic_iostream<char,std::char_traits<char> >::~basic_iostream<char,std::char_traits<char> >'::`1'::dtor$0
text$x	ENDS
PUBLIC	??_7?$basic_ostream@DU?$char_traits@D@std@@@std@@6B@ ; std::basic_ostream<char,std::char_traits<char> >::`vftable'
PUBLIC	??_R4?$basic_ostream@DU?$char_traits@D@std@@@std@@6B@ ; std::basic_ostream<char,std::char_traits<char> >::`RTTI Complete Object Locator'
EXTRN	??_E?$basic_ostream@DU?$char_traits@D@std@@@std@@UEAAPEAXI@Z:PROC ; std::basic_ostream<char,std::char_traits<char> >::`vector deleting destructor'
;	COMDAT pdata
; File c:\program files (x86)\microsoft visual studio 10.0\vc\include\ostream
pdata	SEGMENT
$pdata$??1?$basic_ostream@DU?$char_traits@D@std@@@std@@UEAA@XZ DD imagerel $LN3
	DD	imagerel $LN3+38
	DD	imagerel $unwind$??1?$basic_ostream@DU?$char_traits@D@std@@@std@@UEAA@XZ
pdata	ENDS
;	COMDAT ??_R4?$basic_ostream@DU?$char_traits@D@std@@@std@@6B@
rdata$r	SEGMENT
??_R4?$basic_ostream@DU?$char_traits@D@std@@@std@@6B@ DD 01H ; std::basic_ostream<char,std::char_traits<char> >::`RTTI Complete Object Locator'
	DD	08H
	DD	00H
	DD	imagerel ??_R0?AV?$basic_ostream@DU?$char_traits@D@std@@@std@@@8
	DD	imagerel ??_R3?$basic_ostream@DU?$char_traits@D@std@@@std@@8
	DD	imagerel ??_R4?$basic_ostream@DU?$char_traits@D@std@@@std@@6B@
rdata$r	ENDS
;	COMDAT xdata
xdata	SEGMENT
$unwind$??1?$basic_ostream@DU?$char_traits@D@std@@@std@@UEAA@XZ DD 010601H
	DD	07006H
xdata	ENDS
;	COMDAT ??_7?$basic_ostream@DU?$char_traits@D@std@@@std@@6B@
CONST	SEGMENT
??_7?$basic_ostream@DU?$char_traits@D@std@@@std@@6B@ DQ FLAT:??_R4?$basic_ostream@DU?$char_traits@D@std@@@std@@6B@ ; std::basic_ostream<char,std::char_traits<char> >::`vftable'
	DQ	FLAT:??_E?$basic_ostream@DU?$char_traits@D@std@@@std@@UEAAPEAXI@Z
; Function compile flags: /Odtp /RTCsu
CONST	ENDS
;	COMDAT ??1?$basic_ostream@DU?$char_traits@D@std@@@std@@UEAA@XZ
_TEXT	SEGMENT
this$ = 16
??1?$basic_ostream@DU?$char_traits@D@std@@@std@@UEAA@XZ PROC ; std::basic_ostream<char,std::char_traits<char> >::~basic_ostream<char,std::char_traits<char> >, COMDAT
; Line 79
$LN3:
	mov	QWORD PTR [rsp+8], rcx
	push	rdi
	mov	rax, QWORD PTR this$[rsp]
	mov	rax, QWORD PTR [rax-8]
	movsxd	rax, DWORD PTR [rax+4]
	mov	rcx, QWORD PTR this$[rsp]
	lea	rdx, OFFSET FLAT:??_7?$basic_ostream@DU?$char_traits@D@std@@@std@@6B@
	mov	QWORD PTR [rcx+rax-8], rdx
; Line 80
	pop	rdi
	ret	0
??1?$basic_ostream@DU?$char_traits@D@std@@@std@@UEAA@XZ ENDP ; std::basic_ostream<char,std::char_traits<char> >::~basic_ostream<char,std::char_traits<char> >
_TEXT	ENDS
PUBLIC	??_7?$basic_istream@DU?$char_traits@D@std@@@std@@6B@ ; std::basic_istream<char,std::char_traits<char> >::`vftable'
PUBLIC	??_R4?$basic_istream@DU?$char_traits@D@std@@@std@@6B@ ; std::basic_istream<char,std::char_traits<char> >::`RTTI Complete Object Locator'
EXTRN	??_E?$basic_istream@DU?$char_traits@D@std@@@std@@UEAAPEAXI@Z:PROC ; std::basic_istream<char,std::char_traits<char> >::`vector deleting destructor'
;	COMDAT pdata
; File c:\program files (x86)\microsoft visual studio 10.0\vc\include\istream
pdata	SEGMENT
$pdata$??1?$basic_istream@DU?$char_traits@D@std@@@std@@UEAA@XZ DD imagerel $LN3
	DD	imagerel $LN3+38
	DD	imagerel $unwind$??1?$basic_istream@DU?$char_traits@D@std@@@std@@UEAA@XZ
pdata	ENDS
;	COMDAT ??_R4?$basic_istream@DU?$char_traits@D@std@@@std@@6B@
rdata$r	SEGMENT
??_R4?$basic_istream@DU?$char_traits@D@std@@@std@@6B@ DD 01H ; std::basic_istream<char,std::char_traits<char> >::`RTTI Complete Object Locator'
	DD	010H
	DD	00H
	DD	imagerel ??_R0?AV?$basic_istream@DU?$char_traits@D@std@@@std@@@8
	DD	imagerel ??_R3?$basic_istream@DU?$char_traits@D@std@@@std@@8
	DD	imagerel ??_R4?$basic_istream@DU?$char_traits@D@std@@@std@@6B@
rdata$r	ENDS
;	COMDAT xdata
xdata	SEGMENT
$unwind$??1?$basic_istream@DU?$char_traits@D@std@@@std@@UEAA@XZ DD 010601H
	DD	07006H
xdata	ENDS
;	COMDAT ??_7?$basic_istream@DU?$char_traits@D@std@@@std@@6B@
CONST	SEGMENT
??_7?$basic_istream@DU?$char_traits@D@std@@@std@@6B@ DQ FLAT:??_R4?$basic_istream@DU?$char_traits@D@std@@@std@@6B@ ; std::basic_istream<char,std::char_traits<char> >::`vftable'
	DQ	FLAT:??_E?$basic_istream@DU?$char_traits@D@std@@@std@@UEAAPEAXI@Z
; Function compile flags: /Odtp /RTCsu
CONST	ENDS
;	COMDAT ??1?$basic_istream@DU?$char_traits@D@std@@@std@@UEAA@XZ
_TEXT	SEGMENT
this$ = 16
??1?$basic_istream@DU?$char_traits@D@std@@@std@@UEAA@XZ PROC ; std::basic_istream<char,std::char_traits<char> >::~basic_istream<char,std::char_traits<char> >, COMDAT
; Line 63
$LN3:
	mov	QWORD PTR [rsp+8], rcx
	push	rdi
	mov	rax, QWORD PTR this$[rsp]
	mov	rax, QWORD PTR [rax-16]
	movsxd	rax, DWORD PTR [rax+4]
	mov	rcx, QWORD PTR this$[rsp]
	lea	rdx, OFFSET FLAT:??_7?$basic_istream@DU?$char_traits@D@std@@@std@@6B@
	mov	QWORD PTR [rcx+rax-16], rdx
; Line 64
	pop	rdi
	ret	0
??1?$basic_istream@DU?$char_traits@D@std@@@std@@UEAA@XZ ENDP ; std::basic_istream<char,std::char_traits<char> >::~basic_istream<char,std::char_traits<char> >
_TEXT	ENDS
PUBLIC	??1?$basic_streambuf@DU?$char_traits@D@std@@@std@@UEAA@XZ ; std::basic_streambuf<char,std::char_traits<char> >::~basic_streambuf<char,std::char_traits<char> >
PUBLIC	?_Reset_back@?$basic_filebuf@DU?$char_traits@D@std@@@std@@AEAAXXZ ; std::basic_filebuf<char,std::char_traits<char> >::_Reset_back
PUBLIC	??_7?$basic_filebuf@DU?$char_traits@D@std@@@std@@6B@ ; std::basic_filebuf<char,std::char_traits<char> >::`vftable'
PUBLIC	??_R4?$basic_filebuf@DU?$char_traits@D@std@@@std@@6B@ ; std::basic_filebuf<char,std::char_traits<char> >::`RTTI Complete Object Locator'
PUBLIC	??_R0?AV?$basic_filebuf@DU?$char_traits@D@std@@@std@@@8 ; std::basic_filebuf<char,std::char_traits<char> > `RTTI Type Descriptor'
PUBLIC	??_R3?$basic_filebuf@DU?$char_traits@D@std@@@std@@8 ; std::basic_filebuf<char,std::char_traits<char> >::`RTTI Class Hierarchy Descriptor'
PUBLIC	??_R2?$basic_filebuf@DU?$char_traits@D@std@@@std@@8 ; std::basic_filebuf<char,std::char_traits<char> >::`RTTI Base Class Array'
PUBLIC	??_R1A@?0A@EA@?$basic_filebuf@DU?$char_traits@D@std@@@std@@8 ; std::basic_filebuf<char,std::char_traits<char> >::`RTTI Base Class Descriptor at (0,-1,0,64)'
PUBLIC	??_R1A@?0A@EA@?$basic_streambuf@DU?$char_traits@D@std@@@std@@8 ; std::basic_streambuf<char,std::char_traits<char> >::`RTTI Base Class Descriptor at (0,-1,0,64)'
PUBLIC	??_R0?AV?$basic_streambuf@DU?$char_traits@D@std@@@std@@@8 ; std::basic_streambuf<char,std::char_traits<char> > `RTTI Type Descriptor'
PUBLIC	??_R3?$basic_streambuf@DU?$char_traits@D@std@@@std@@8 ; std::basic_streambuf<char,std::char_traits<char> >::`RTTI Class Hierarchy Descriptor'
PUBLIC	??_R2?$basic_streambuf@DU?$char_traits@D@std@@@std@@8 ; std::basic_streambuf<char,std::char_traits<char> >::`RTTI Base Class Array'
PUBLIC	?_Lock@?$basic_filebuf@DU?$char_traits@D@std@@@std@@UEAAXXZ ; std::basic_filebuf<char,std::char_traits<char> >::_Lock
PUBLIC	?_Unlock@?$basic_filebuf@DU?$char_traits@D@std@@@std@@UEAAXXZ ; std::basic_filebuf<char,std::char_traits<char> >::_Unlock
PUBLIC	?overflow@?$basic_filebuf@DU?$char_traits@D@std@@@std@@MEAAHH@Z ; std::basic_filebuf<char,std::char_traits<char> >::overflow
PUBLIC	?pbackfail@?$basic_filebuf@DU?$char_traits@D@std@@@std@@MEAAHH@Z ; std::basic_filebuf<char,std::char_traits<char> >::pbackfail
PUBLIC	?showmanyc@?$basic_streambuf@DU?$char_traits@D@std@@@std@@MEAA_JXZ ; std::basic_streambuf<char,std::char_traits<char> >::showmanyc
PUBLIC	?underflow@?$basic_filebuf@DU?$char_traits@D@std@@@std@@MEAAHXZ ; std::basic_filebuf<char,std::char_traits<char> >::underflow
PUBLIC	?uflow@?$basic_filebuf@DU?$char_traits@D@std@@@std@@MEAAHXZ ; std::basic_filebuf<char,std::char_traits<char> >::uflow
PUBLIC	?xsgetn@?$basic_streambuf@DU?$char_traits@D@std@@@std@@MEAA_JPEAD_J@Z ; std::basic_streambuf<char,std::char_traits<char> >::xsgetn
PUBLIC	?xsputn@?$basic_streambuf@DU?$char_traits@D@std@@@std@@MEAA_JPEBD_J@Z ; std::basic_streambuf<char,std::char_traits<char> >::xsputn
PUBLIC	?seekoff@?$basic_filebuf@DU?$char_traits@D@std@@@std@@MEAA?AV?$fpos@H@2@_JHH@Z ; std::basic_filebuf<char,std::char_traits<char> >::seekoff
PUBLIC	?seekpos@?$basic_filebuf@DU?$char_traits@D@std@@@std@@MEAA?AV?$fpos@H@2@V32@H@Z ; std::basic_filebuf<char,std::char_traits<char> >::seekpos
PUBLIC	?setbuf@?$basic_filebuf@DU?$char_traits@D@std@@@std@@MEAAPEAV?$basic_streambuf@DU?$char_traits@D@std@@@2@PEAD_J@Z ; std::basic_filebuf<char,std::char_traits<char> >::setbuf
PUBLIC	?sync@?$basic_filebuf@DU?$char_traits@D@std@@@std@@MEAAHXZ ; std::basic_filebuf<char,std::char_traits<char> >::sync
PUBLIC	?imbue@?$basic_filebuf@DU?$char_traits@D@std@@@std@@MEAAXAEBVlocale@2@@Z ; std::basic_filebuf<char,std::char_traits<char> >::imbue
EXTRN	??_E?$basic_filebuf@DU?$char_traits@D@std@@@std@@UEAAPEAXI@Z:PROC ; std::basic_filebuf<char,std::char_traits<char> >::`vector deleting destructor'
;	COMDAT pdata
; File c:\program files (x86)\microsoft visual studio 10.0\vc\include\fstream
pdata	SEGMENT
$pdata$??1?$basic_filebuf@DU?$char_traits@D@std@@@std@@UEAA@XZ DD imagerel $LN6
	DD	imagerel $LN6+122
	DD	imagerel $unwind$??1?$basic_filebuf@DU?$char_traits@D@std@@@std@@UEAA@XZ
pdata	ENDS
;	COMDAT pdata
pdata	SEGMENT
$pdata$?dtor$0@?0???1?$basic_filebuf@DU?$char_traits@D@std@@@std@@UEAA@XZ@4HA DD imagerel ?dtor$0@?0???1?$basic_filebuf@DU?$char_traits@D@std@@@std@@UEAA@XZ@4HA
	DD	imagerel ?dtor$0@?0???1?$basic_filebuf@DU?$char_traits@D@std@@@std@@UEAA@XZ@4HA+35
	DD	imagerel $unwind$?dtor$0@?0???1?$basic_filebuf@DU?$char_traits@D@std@@@std@@UEAA@XZ@4HA
pdata	ENDS
;	COMDAT xdata
xdata	SEGMENT
$ip2state$??1?$basic_filebuf@DU?$char_traits@D@std@@@std@@UEAA@XZ DD imagerel ??1?$basic_filebuf@DU?$char_traits@D@std@@@std@@UEAA@XZ
	DD	0ffffffffH
	DD	imagerel ??1?$basic_filebuf@DU?$char_traits@D@std@@@std@@UEAA@XZ+54
	DD	00H
	DD	imagerel ??1?$basic_filebuf@DU?$char_traits@D@std@@@std@@UEAA@XZ+106
	DD	0ffffffffH
xdata	ENDS
;	COMDAT ??_R2?$basic_streambuf@DU?$char_traits@D@std@@@std@@8
rdata$r	SEGMENT
??_R2?$basic_streambuf@DU?$char_traits@D@std@@@std@@8 DD imagerel ??_R1A@?0A@EA@?$basic_streambuf@DU?$char_traits@D@std@@@std@@8 ; std::basic_streambuf<char,std::char_traits<char> >::`RTTI Base Class Array'
	ORG $+3
rdata$r	ENDS
;	COMDAT ??_R3?$basic_streambuf@DU?$char_traits@D@std@@@std@@8
rdata$r	SEGMENT
??_R3?$basic_streambuf@DU?$char_traits@D@std@@@std@@8 DD 00H ; std::basic_streambuf<char,std::char_traits<char> >::`RTTI Class Hierarchy Descriptor'
	DD	00H
	DD	01H
	DD	imagerel ??_R2?$basic_streambuf@DU?$char_traits@D@std@@@std@@8
rdata$r	ENDS
;	COMDAT ??_R0?AV?$basic_streambuf@DU?$char_traits@D@std@@@std@@@8
_DATA	SEGMENT
??_R0?AV?$basic_streambuf@DU?$char_traits@D@std@@@std@@@8 DQ FLAT:??_7type_info@@6B@ ; std::basic_streambuf<char,std::char_traits<char> > `RTTI Type Descriptor'
	DQ	0000000000000000H
	DB	'.?AV?$basic_streambuf@DU?$char_traits@D@std@@@std@@', 00H
_DATA	ENDS
;	COMDAT ??_R1A@?0A@EA@?$basic_streambuf@DU?$char_traits@D@std@@@std@@8
rdata$r	SEGMENT
??_R1A@?0A@EA@?$basic_streambuf@DU?$char_traits@D@std@@@std@@8 DD imagerel ??_R0?AV?$basic_streambuf@DU?$char_traits@D@std@@@std@@@8 ; std::basic_streambuf<char,std::char_traits<char> >::`RTTI Base Class Descriptor at (0,-1,0,64)'
	DD	00H
	DD	00H
	DD	0ffffffffH
	DD	00H
	DD	040H
	DD	imagerel ??_R3?$basic_streambuf@DU?$char_traits@D@std@@@std@@8
rdata$r	ENDS
;	COMDAT ??_R1A@?0A@EA@?$basic_filebuf@DU?$char_traits@D@std@@@std@@8
rdata$r	SEGMENT
??_R1A@?0A@EA@?$basic_filebuf@DU?$char_traits@D@std@@@std@@8 DD imagerel ??_R0?AV?$basic_filebuf@DU?$char_traits@D@std@@@std@@@8 ; std::basic_filebuf<char,std::char_traits<char> >::`RTTI Base Class Descriptor at (0,-1,0,64)'
	DD	01H
	DD	00H
	DD	0ffffffffH
	DD	00H
	DD	040H
	DD	imagerel ??_R3?$basic_filebuf@DU?$char_traits@D@std@@@std@@8
rdata$r	ENDS
;	COMDAT ??_R2?$basic_filebuf@DU?$char_traits@D@std@@@std@@8
rdata$r	SEGMENT
??_R2?$basic_filebuf@DU?$char_traits@D@std@@@std@@8 DD imagerel ??_R1A@?0A@EA@?$basic_filebuf@DU?$char_traits@D@std@@@std@@8 ; std::basic_filebuf<char,std::char_traits<char> >::`RTTI Base Class Array'
	DD	imagerel ??_R1A@?0A@EA@?$basic_streambuf@DU?$char_traits@D@std@@@std@@8
	ORG $+3
rdata$r	ENDS
;	COMDAT ??_R3?$basic_filebuf@DU?$char_traits@D@std@@@std@@8
rdata$r	SEGMENT
??_R3?$basic_filebuf@DU?$char_traits@D@std@@@std@@8 DD 00H ; std::basic_filebuf<char,std::char_traits<char> >::`RTTI Class Hierarchy Descriptor'
	DD	00H
	DD	02H
	DD	imagerel ??_R2?$basic_filebuf@DU?$char_traits@D@std@@@std@@8
rdata$r	ENDS
;	COMDAT ??_R0?AV?$basic_filebuf@DU?$char_traits@D@std@@@std@@@8
_DATA	SEGMENT
??_R0?AV?$basic_filebuf@DU?$char_traits@D@std@@@std@@@8 DQ FLAT:??_7type_info@@6B@ ; std::basic_filebuf<char,std::char_traits<char> > `RTTI Type Descriptor'
	DQ	0000000000000000H
	DB	'.?AV?$basic_filebuf@DU?$char_traits@D@std@@@std@@', 00H
_DATA	ENDS
;	COMDAT ??_R4?$basic_filebuf@DU?$char_traits@D@std@@@std@@6B@
rdata$r	SEGMENT
??_R4?$basic_filebuf@DU?$char_traits@D@std@@@std@@6B@ DD 01H ; std::basic_filebuf<char,std::char_traits<char> >::`RTTI Complete Object Locator'
	DD	00H
	DD	00H
	DD	imagerel ??_R0?AV?$basic_filebuf@DU?$char_traits@D@std@@@std@@@8
	DD	imagerel ??_R3?$basic_filebuf@DU?$char_traits@D@std@@@std@@8
	DD	imagerel ??_R4?$basic_filebuf@DU?$char_traits@D@std@@@std@@6B@
rdata$r	ENDS
;	COMDAT xdata
xdata	SEGMENT
$unwind$?dtor$0@?0???1?$basic_filebuf@DU?$char_traits@D@std@@@std@@UEAA@XZ@4HA DD 031001H
	DD	0700c4210H
	DD	0500bH
xdata	ENDS
;	COMDAT xdata
xdata	SEGMENT
$unwind$??1?$basic_filebuf@DU?$char_traits@D@std@@@std@@UEAA@XZ DD 022711H
	DD	07006520aH
	DD	imagerel __CxxFrameHandler3
	DD	imagerel $cppxdata$??1?$basic_filebuf@DU?$char_traits@D@std@@@std@@UEAA@XZ
xdata	ENDS
;	COMDAT CONST
CONST	SEGMENT
$cppxdata$??1?$basic_filebuf@DU?$char_traits@D@std@@@std@@UEAA@XZ DD 019930522H
	DD	01H
	DD	imagerel $stateUnwindMap$??1?$basic_filebuf@DU?$char_traits@D@std@@@std@@UEAA@XZ
	DD	00H
	DD	00H
	DD	03H
	DD	imagerel $ip2state$??1?$basic_filebuf@DU?$char_traits@D@std@@@std@@UEAA@XZ
	DD	020H
	DD	00H
	DD	01H
CONST	ENDS
;	COMDAT xdata
xdata	SEGMENT
$stateUnwindMap$??1?$basic_filebuf@DU?$char_traits@D@std@@@std@@UEAA@XZ DD 0ffffffffH
	DD	imagerel ?dtor$0@?0???1?$basic_filebuf@DU?$char_traits@D@std@@@std@@UEAA@XZ@4HA
xdata	ENDS
;	COMDAT ??_7?$basic_filebuf@DU?$char_traits@D@std@@@std@@6B@
CONST	SEGMENT
??_7?$basic_filebuf@DU?$char_traits@D@std@@@std@@6B@ DQ FLAT:??_R4?$basic_filebuf@DU?$char_traits@D@std@@@std@@6B@ ; std::basic_filebuf<char,std::char_traits<char> >::`vftable'
	DQ	FLAT:??_E?$basic_filebuf@DU?$char_traits@D@std@@@std@@UEAAPEAXI@Z
	DQ	FLAT:?_Lock@?$basic_filebuf@DU?$char_traits@D@std@@@std@@UEAAXXZ
	DQ	FLAT:?_Unlock@?$basic_filebuf@DU?$char_traits@D@std@@@std@@UEAAXXZ
	DQ	FLAT:?overflow@?$basic_filebuf@DU?$char_traits@D@std@@@std@@MEAAHH@Z
	DQ	FLAT:?pbackfail@?$basic_filebuf@DU?$char_traits@D@std@@@std@@MEAAHH@Z
	DQ	FLAT:?showmanyc@?$basic_streambuf@DU?$char_traits@D@std@@@std@@MEAA_JXZ
	DQ	FLAT:?underflow@?$basic_filebuf@DU?$char_traits@D@std@@@std@@MEAAHXZ
	DQ	FLAT:?uflow@?$basic_filebuf@DU?$char_traits@D@std@@@std@@MEAAHXZ
	DQ	FLAT:?xsgetn@?$basic_streambuf@DU?$char_traits@D@std@@@std@@MEAA_JPEAD_J@Z
	DQ	FLAT:?xsputn@?$basic_streambuf@DU?$char_traits@D@std@@@std@@MEAA_JPEBD_J@Z
	DQ	FLAT:?seekoff@?$basic_filebuf@DU?$char_traits@D@std@@@std@@MEAA?AV?$fpos@H@2@_JHH@Z
	DQ	FLAT:?seekpos@?$basic_filebuf@DU?$char_traits@D@std@@@std@@MEAA?AV?$fpos@H@2@V32@H@Z
	DQ	FLAT:?setbuf@?$basic_filebuf@DU?$char_traits@D@std@@@std@@MEAAPEAV?$basic_streambuf@DU?$char_traits@D@std@@@2@PEAD_J@Z
	DQ	FLAT:?sync@?$basic_filebuf@DU?$char_traits@D@std@@@std@@MEAAHXZ
	DQ	FLAT:?imbue@?$basic_filebuf@DU?$char_traits@D@std@@@std@@MEAAXAEBVlocale@2@@Z
; Function compile flags: /Odtp /RTCsu
CONST	ENDS
;	COMDAT ??1?$basic_filebuf@DU?$char_traits@D@std@@@std@@UEAA@XZ
_TEXT	SEGMENT
$T38003 = 32
this$ = 64
??1?$basic_filebuf@DU?$char_traits@D@std@@@std@@UEAA@XZ PROC ; std::basic_filebuf<char,std::char_traits<char> >::~basic_filebuf<char,std::char_traits<char> >, COMDAT
; Line 143
$LN6:
	mov	QWORD PTR [rsp+8], rcx
	push	rdi
	sub	rsp, 48					; 00000030H
	mov	rdi, rsp
	mov	ecx, 12
	mov	eax, -858993460				; ccccccccH
	rep stosd
	mov	rcx, QWORD PTR [rsp+64]
	mov	QWORD PTR $T38003[rsp], -2
	mov	rax, QWORD PTR this$[rsp]
	lea	rcx, OFFSET FLAT:??_7?$basic_filebuf@DU?$char_traits@D@std@@@std@@6B@
	mov	QWORD PTR [rax], rcx
; Line 144
	mov	rax, QWORD PTR this$[rsp]
	cmp	QWORD PTR [rax+152], 0
	je	SHORT $LN2@basic_file
; Line 145
	mov	rcx, QWORD PTR this$[rsp]
	call	?_Reset_back@?$basic_filebuf@DU?$char_traits@D@std@@@std@@AEAAXXZ ; std::basic_filebuf<char,std::char_traits<char> >::_Reset_back
$LN2@basic_file:
; Line 146
	mov	rax, QWORD PTR this$[rsp]
	movzx	eax, BYTE PTR [rax+144]
	test	eax, eax
	je	SHORT $LN1@basic_file
; Line 147
	mov	rcx, QWORD PTR this$[rsp]
	call	?close@?$basic_filebuf@DU?$char_traits@D@std@@@std@@QEAAPEAV12@XZ ; std::basic_filebuf<char,std::char_traits<char> >::close
	npad	1
$LN1@basic_file:
; Line 148
	mov	rcx, QWORD PTR this$[rsp]
	call	??1?$basic_streambuf@DU?$char_traits@D@std@@@std@@UEAA@XZ ; std::basic_streambuf<char,std::char_traits<char> >::~basic_streambuf<char,std::char_traits<char> >
	add	rsp, 48					; 00000030H
	pop	rdi
	ret	0
??1?$basic_filebuf@DU?$char_traits@D@std@@@std@@UEAA@XZ ENDP ; std::basic_filebuf<char,std::char_traits<char> >::~basic_filebuf<char,std::char_traits<char> >
; Function compile flags: /Odtp /RTCsu
_TEXT	ENDS
;	COMDAT text$x
text$x	SEGMENT
$T38003 = 32
this$ = 64
?dtor$0@?0???1?$basic_filebuf@DU?$char_traits@D@std@@@std@@UEAA@XZ@4HA PROC ; `std::basic_filebuf<char,std::char_traits<char> >::~basic_filebuf<char,std::char_traits<char> >'::`1'::dtor$0
	mov	QWORD PTR [rsp+8], rcx
	mov	QWORD PTR [rsp+16], rdx
	push	rbp
	push	rdi
	sub	rsp, 40					; 00000028H
	mov	rbp, rdx
	mov	rcx, QWORD PTR this$[rbp]
	call	??1?$basic_streambuf@DU?$char_traits@D@std@@@std@@UEAA@XZ ; std::basic_streambuf<char,std::char_traits<char> >::~basic_streambuf<char,std::char_traits<char> >
	add	rsp, 40					; 00000028H
	pop	rdi
	pop	rbp
	ret	0
?dtor$0@?0???1?$basic_filebuf@DU?$char_traits@D@std@@@std@@UEAA@XZ@4HA ENDP ; `std::basic_filebuf<char,std::char_traits<char> >::~basic_filebuf<char,std::char_traits<char> >'::`1'::dtor$0
text$x	ENDS
PUBLIC	??$_DebugHeapDelete@Vlocale@std@@@std@@YAXPEAVlocale@0@@Z ; std::_DebugHeapDelete<std::locale>
PUBLIC	??_7?$basic_streambuf@DU?$char_traits@D@std@@@std@@6B@ ; std::basic_streambuf<char,std::char_traits<char> >::`vftable'
PUBLIC	??_R4?$basic_streambuf@DU?$char_traits@D@std@@@std@@6B@ ; std::basic_streambuf<char,std::char_traits<char> >::`RTTI Complete Object Locator'
PUBLIC	?_Lock@?$basic_streambuf@DU?$char_traits@D@std@@@std@@UEAAXXZ ; std::basic_streambuf<char,std::char_traits<char> >::_Lock
PUBLIC	?_Unlock@?$basic_streambuf@DU?$char_traits@D@std@@@std@@UEAAXXZ ; std::basic_streambuf<char,std::char_traits<char> >::_Unlock
PUBLIC	?overflow@?$basic_streambuf@DU?$char_traits@D@std@@@std@@MEAAHH@Z ; std::basic_streambuf<char,std::char_traits<char> >::overflow
PUBLIC	?pbackfail@?$basic_streambuf@DU?$char_traits@D@std@@@std@@MEAAHH@Z ; std::basic_streambuf<char,std::char_traits<char> >::pbackfail
PUBLIC	?underflow@?$basic_streambuf@DU?$char_traits@D@std@@@std@@MEAAHXZ ; std::basic_streambuf<char,std::char_traits<char> >::underflow
PUBLIC	?uflow@?$basic_streambuf@DU?$char_traits@D@std@@@std@@MEAAHXZ ; std::basic_streambuf<char,std::char_traits<char> >::uflow
PUBLIC	?seekoff@?$basic_streambuf@DU?$char_traits@D@std@@@std@@MEAA?AV?$fpos@H@2@_JHH@Z ; std::basic_streambuf<char,std::char_traits<char> >::seekoff
PUBLIC	?seekpos@?$basic_streambuf@DU?$char_traits@D@std@@@std@@MEAA?AV?$fpos@H@2@V32@H@Z ; std::basic_streambuf<char,std::char_traits<char> >::seekpos
PUBLIC	?setbuf@?$basic_streambuf@DU?$char_traits@D@std@@@std@@MEAAPEAV12@PEAD_J@Z ; std::basic_streambuf<char,std::char_traits<char> >::setbuf
PUBLIC	?sync@?$basic_streambuf@DU?$char_traits@D@std@@@std@@MEAAHXZ ; std::basic_streambuf<char,std::char_traits<char> >::sync
PUBLIC	?imbue@?$basic_streambuf@DU?$char_traits@D@std@@@std@@MEAAXAEBVlocale@2@@Z ; std::basic_streambuf<char,std::char_traits<char> >::imbue
EXTRN	??1_Mutex@std@@QEAA@XZ:PROC			; std::_Mutex::~_Mutex
EXTRN	??_E?$basic_streambuf@DU?$char_traits@D@std@@@std@@UEAAPEAXI@Z:PROC ; std::basic_streambuf<char,std::char_traits<char> >::`vector deleting destructor'
;	COMDAT pdata
; File c:\program files (x86)\microsoft visual studio 10.0\vc\include\streambuf
pdata	SEGMENT
$pdata$??1?$basic_streambuf@DU?$char_traits@D@std@@@std@@UEAA@XZ DD imagerel $LN4
	DD	imagerel $LN4+92
	DD	imagerel $unwind$??1?$basic_streambuf@DU?$char_traits@D@std@@@std@@UEAA@XZ
pdata	ENDS
;	COMDAT pdata
pdata	SEGMENT
$pdata$?dtor$0@?0???1?$basic_streambuf@DU?$char_traits@D@std@@@std@@UEAA@XZ@4HA DD imagerel ?dtor$0@?0???1?$basic_streambuf@DU?$char_traits@D@std@@@std@@UEAA@XZ@4HA
	DD	imagerel ?dtor$0@?0???1?$basic_streambuf@DU?$char_traits@D@std@@@std@@UEAA@XZ@4HA+39
	DD	imagerel $unwind$?dtor$0@?0???1?$basic_streambuf@DU?$char_traits@D@std@@@std@@UEAA@XZ@4HA
pdata	ENDS
;	COMDAT xdata
xdata	SEGMENT
$ip2state$??1?$basic_streambuf@DU?$char_traits@D@std@@@std@@UEAA@XZ DD imagerel ??1?$basic_streambuf@DU?$char_traits@D@std@@@std@@UEAA@XZ
	DD	0ffffffffH
	DD	imagerel ??1?$basic_streambuf@DU?$char_traits@D@std@@@std@@UEAA@XZ+54
	DD	00H
	DD	imagerel ??1?$basic_streambuf@DU?$char_traits@D@std@@@std@@UEAA@XZ+69
	DD	0ffffffffH
xdata	ENDS
;	COMDAT ??_R4?$basic_streambuf@DU?$char_traits@D@std@@@std@@6B@
rdata$r	SEGMENT
??_R4?$basic_streambuf@DU?$char_traits@D@std@@@std@@6B@ DD 01H ; std::basic_streambuf<char,std::char_traits<char> >::`RTTI Complete Object Locator'
	DD	00H
	DD	00H
	DD	imagerel ??_R0?AV?$basic_streambuf@DU?$char_traits@D@std@@@std@@@8
	DD	imagerel ??_R3?$basic_streambuf@DU?$char_traits@D@std@@@std@@8
	DD	imagerel ??_R4?$basic_streambuf@DU?$char_traits@D@std@@@std@@6B@
rdata$r	ENDS
;	COMDAT xdata
xdata	SEGMENT
$unwind$?dtor$0@?0???1?$basic_streambuf@DU?$char_traits@D@std@@@std@@UEAA@XZ@4HA DD 031001H
	DD	0700c4210H
	DD	0500bH
xdata	ENDS
;	COMDAT xdata
xdata	SEGMENT
$unwind$??1?$basic_streambuf@DU?$char_traits@D@std@@@std@@UEAA@XZ DD 022711H
	DD	07006520aH
	DD	imagerel __CxxFrameHandler3
	DD	imagerel $cppxdata$??1?$basic_streambuf@DU?$char_traits@D@std@@@std@@UEAA@XZ
xdata	ENDS
;	COMDAT CONST
CONST	SEGMENT
$cppxdata$??1?$basic_streambuf@DU?$char_traits@D@std@@@std@@UEAA@XZ DD 019930522H
	DD	01H
	DD	imagerel $stateUnwindMap$??1?$basic_streambuf@DU?$char_traits@D@std@@@std@@UEAA@XZ
	DD	00H
	DD	00H
	DD	03H
	DD	imagerel $ip2state$??1?$basic_streambuf@DU?$char_traits@D@std@@@std@@UEAA@XZ
	DD	020H
	DD	00H
	DD	01H
CONST	ENDS
;	COMDAT xdata
xdata	SEGMENT
$stateUnwindMap$??1?$basic_streambuf@DU?$char_traits@D@std@@@std@@UEAA@XZ DD 0ffffffffH
	DD	imagerel ?dtor$0@?0???1?$basic_streambuf@DU?$char_traits@D@std@@@std@@UEAA@XZ@4HA
xdata	ENDS
;	COMDAT ??_7?$basic_streambuf@DU?$char_traits@D@std@@@std@@6B@
CONST	SEGMENT
??_7?$basic_streambuf@DU?$char_traits@D@std@@@std@@6B@ DQ FLAT:??_R4?$basic_streambuf@DU?$char_traits@D@std@@@std@@6B@ ; std::basic_streambuf<char,std::char_traits<char> >::`vftable'
	DQ	FLAT:??_E?$basic_streambuf@DU?$char_traits@D@std@@@std@@UEAAPEAXI@Z
	DQ	FLAT:?_Lock@?$basic_streambuf@DU?$char_traits@D@std@@@std@@UEAAXXZ
	DQ	FLAT:?_Unlock@?$basic_streambuf@DU?$char_traits@D@std@@@std@@UEAAXXZ
	DQ	FLAT:?overflow@?$basic_streambuf@DU?$char_traits@D@std@@@std@@MEAAHH@Z
	DQ	FLAT:?pbackfail@?$basic_streambuf@DU?$char_traits@D@std@@@std@@MEAAHH@Z
	DQ	FLAT:?showmanyc@?$basic_streambuf@DU?$char_traits@D@std@@@std@@MEAA_JXZ
	DQ	FLAT:?underflow@?$basic_streambuf@DU?$char_traits@D@std@@@std@@MEAAHXZ
	DQ	FLAT:?uflow@?$basic_streambuf@DU?$char_traits@D@std@@@std@@MEAAHXZ
	DQ	FLAT:?xsgetn@?$basic_streambuf@DU?$char_traits@D@std@@@std@@MEAA_JPEAD_J@Z
	DQ	FLAT:?xsputn@?$basic_streambuf@DU?$char_traits@D@std@@@std@@MEAA_JPEBD_J@Z
	DQ	FLAT:?seekoff@?$basic_streambuf@DU?$char_traits@D@std@@@std@@MEAA?AV?$fpos@H@2@_JHH@Z
	DQ	FLAT:?seekpos@?$basic_streambuf@DU?$char_traits@D@std@@@std@@MEAA?AV?$fpos@H@2@V32@H@Z
	DQ	FLAT:?setbuf@?$basic_streambuf@DU?$char_traits@D@std@@@std@@MEAAPEAV12@PEAD_J@Z
	DQ	FLAT:?sync@?$basic_streambuf@DU?$char_traits@D@std@@@std@@MEAAHXZ
	DQ	FLAT:?imbue@?$basic_streambuf@DU?$char_traits@D@std@@@std@@MEAAXAEBVlocale@2@@Z
; Function compile flags: /Odtp /RTCsu
CONST	ENDS
;	COMDAT ??1?$basic_streambuf@DU?$char_traits@D@std@@@std@@UEAA@XZ
_TEXT	SEGMENT
$T38026 = 32
this$ = 64
??1?$basic_streambuf@DU?$char_traits@D@std@@@std@@UEAA@XZ PROC ; std::basic_streambuf<char,std::char_traits<char> >::~basic_streambuf<char,std::char_traits<char> >, COMDAT
; Line 79
$LN4:
	mov	QWORD PTR [rsp+8], rcx
	push	rdi
	sub	rsp, 48					; 00000030H
	mov	rdi, rsp
	mov	ecx, 12
	mov	eax, -858993460				; ccccccccH
	rep stosd
	mov	rcx, QWORD PTR [rsp+64]
	mov	QWORD PTR $T38026[rsp], -2
	mov	rax, QWORD PTR this$[rsp]
	lea	rcx, OFFSET FLAT:??_7?$basic_streambuf@DU?$char_traits@D@std@@@std@@6B@
	mov	QWORD PTR [rax], rcx
; Line 80
	mov	rax, QWORD PTR this$[rsp]
	mov	rcx, QWORD PTR [rax+104]
	call	??$_DebugHeapDelete@Vlocale@std@@@std@@YAXPEAVlocale@0@@Z ; std::_DebugHeapDelete<std::locale>
	npad	1
; Line 81
	mov	rax, QWORD PTR this$[rsp]
	add	rax, 8
	mov	rcx, rax
	call	??1_Mutex@std@@QEAA@XZ			; std::_Mutex::~_Mutex
	add	rsp, 48					; 00000030H
	pop	rdi
	ret	0
??1?$basic_streambuf@DU?$char_traits@D@std@@@std@@UEAA@XZ ENDP ; std::basic_streambuf<char,std::char_traits<char> >::~basic_streambuf<char,std::char_traits<char> >
; Function compile flags: /Odtp /RTCsu
_TEXT	ENDS
;	COMDAT text$x
text$x	SEGMENT
$T38026 = 32
this$ = 64
?dtor$0@?0???1?$basic_streambuf@DU?$char_traits@D@std@@@std@@UEAA@XZ@4HA PROC ; `std::basic_streambuf<char,std::char_traits<char> >::~basic_streambuf<char,std::char_traits<char> >'::`1'::dtor$0
	mov	QWORD PTR [rsp+8], rcx
	mov	QWORD PTR [rsp+16], rdx
	push	rbp
	push	rdi
	sub	rsp, 40					; 00000028H
	mov	rbp, rdx
	mov	rcx, QWORD PTR this$[rbp]
	add	rcx, 8
	call	??1_Mutex@std@@QEAA@XZ			; std::_Mutex::~_Mutex
	add	rsp, 40					; 00000028H
	pop	rdi
	pop	rbp
	ret	0
?dtor$0@?0???1?$basic_streambuf@DU?$char_traits@D@std@@@std@@UEAA@XZ@4HA ENDP ; `std::basic_streambuf<char,std::char_traits<char> >::~basic_streambuf<char,std::char_traits<char> >'::`1'::dtor$0
text$x	ENDS
EXTRN	?_Lock@_Mutex@std@@QEAAXXZ:PROC			; std::_Mutex::_Lock
;	COMDAT pdata
pdata	SEGMENT
$pdata$?_Lock@?$basic_streambuf@DU?$char_traits@D@std@@@std@@UEAAXXZ DD imagerel $LN3
	DD	imagerel $LN3+53
	DD	imagerel $unwind$?_Lock@?$basic_streambuf@DU?$char_traits@D@std@@@std@@UEAAXXZ
pdata	ENDS
;	COMDAT xdata
xdata	SEGMENT
$unwind$?_Lock@?$basic_streambuf@DU?$char_traits@D@std@@@std@@UEAAXXZ DD 021e01H
	DD	07006320aH
; Function compile flags: /Odtp /RTCsu
xdata	ENDS
;	COMDAT ?_Lock@?$basic_streambuf@DU?$char_traits@D@std@@@std@@UEAAXXZ
_TEXT	SEGMENT
this$ = 48
?_Lock@?$basic_streambuf@DU?$char_traits@D@std@@@std@@UEAAXXZ PROC ; std::basic_streambuf<char,std::char_traits<char> >::_Lock, COMDAT
; Line 206
$LN3:
	mov	QWORD PTR [rsp+8], rcx
	push	rdi
	sub	rsp, 32					; 00000020H
	mov	rdi, rsp
	mov	ecx, 8
	mov	eax, -858993460				; ccccccccH
	rep stosd
	mov	rcx, QWORD PTR [rsp+48]
; Line 207
	mov	rax, QWORD PTR this$[rsp]
	add	rax, 8
	mov	rcx, rax
	call	?_Lock@_Mutex@std@@QEAAXXZ		; std::_Mutex::_Lock
; Line 208
	add	rsp, 32					; 00000020H
	pop	rdi
	ret	0
?_Lock@?$basic_streambuf@DU?$char_traits@D@std@@@std@@UEAAXXZ ENDP ; std::basic_streambuf<char,std::char_traits<char> >::_Lock
_TEXT	ENDS
EXTRN	?_Unlock@_Mutex@std@@QEAAXXZ:PROC		; std::_Mutex::_Unlock
;	COMDAT pdata
pdata	SEGMENT
$pdata$?_Unlock@?$basic_streambuf@DU?$char_traits@D@std@@@std@@UEAAXXZ DD imagerel $LN3
	DD	imagerel $LN3+53
	DD	imagerel $unwind$?_Unlock@?$basic_streambuf@DU?$char_traits@D@std@@@std@@UEAAXXZ
pdata	ENDS
;	COMDAT xdata
xdata	SEGMENT
$unwind$?_Unlock@?$basic_streambuf@DU?$char_traits@D@std@@@std@@UEAAXXZ DD 021e01H
	DD	07006320aH
; Function compile flags: /Odtp /RTCsu
xdata	ENDS
;	COMDAT ?_Unlock@?$basic_streambuf@DU?$char_traits@D@std@@@std@@UEAAXXZ
_TEXT	SEGMENT
this$ = 48
?_Unlock@?$basic_streambuf@DU?$char_traits@D@std@@@std@@UEAAXXZ PROC ; std::basic_streambuf<char,std::char_traits<char> >::_Unlock, COMDAT
; Line 211
$LN3:
	mov	QWORD PTR [rsp+8], rcx
	push	rdi
	sub	rsp, 32					; 00000020H
	mov	rdi, rsp
	mov	ecx, 8
	mov	eax, -858993460				; ccccccccH
	rep stosd
	mov	rcx, QWORD PTR [rsp+48]
; Line 212
	mov	rax, QWORD PTR this$[rsp]
	add	rax, 8
	mov	rcx, rax
	call	?_Unlock@_Mutex@std@@QEAAXXZ		; std::_Mutex::_Unlock
; Line 213
	add	rsp, 32					; 00000020H
	pop	rdi
	ret	0
?_Unlock@?$basic_streambuf@DU?$char_traits@D@std@@@std@@UEAAXXZ ENDP ; std::basic_streambuf<char,std::char_traits<char> >::_Unlock
_TEXT	ENDS
PUBLIC	?eof@?$char_traits@D@std@@SAHXZ			; std::char_traits<char>::eof
;	COMDAT pdata
pdata	SEGMENT
$pdata$?overflow@?$basic_streambuf@DU?$char_traits@D@std@@@std@@MEAAHH@Z DD imagerel $LN3
	DD	imagerel $LN3+45
	DD	imagerel $unwind$?overflow@?$basic_streambuf@DU?$char_traits@D@std@@@std@@MEAAHH@Z
pdata	ENDS
;	COMDAT xdata
xdata	SEGMENT
$unwind$?overflow@?$basic_streambuf@DU?$char_traits@D@std@@@std@@MEAAHH@Z DD 022201H
	DD	0700a320eH
; Function compile flags: /Odtp /RTCsu
xdata	ENDS
;	COMDAT ?overflow@?$basic_streambuf@DU?$char_traits@D@std@@@std@@MEAAHH@Z
_TEXT	SEGMENT
this$ = 48
__formal$ = 56
?overflow@?$basic_streambuf@DU?$char_traits@D@std@@@std@@MEAAHH@Z PROC ; std::basic_streambuf<char,std::char_traits<char> >::overflow, COMDAT
; Line 337
$LN3:
	mov	DWORD PTR [rsp+16], edx
	mov	QWORD PTR [rsp+8], rcx
	push	rdi
	sub	rsp, 32					; 00000020H
	mov	rdi, rsp
	mov	ecx, 8
	mov	eax, -858993460				; ccccccccH
	rep stosd
	mov	rcx, QWORD PTR [rsp+48]
; Line 338
	call	?eof@?$char_traits@D@std@@SAHXZ		; std::char_traits<char>::eof
; Line 339
	add	rsp, 32					; 00000020H
	pop	rdi
	ret	0
?overflow@?$basic_streambuf@DU?$char_traits@D@std@@@std@@MEAAHH@Z ENDP ; std::basic_streambuf<char,std::char_traits<char> >::overflow
_TEXT	ENDS
;	COMDAT pdata
; File c:\program files (x86)\microsoft visual studio 10.0\vc\include\iosfwd
pdata	SEGMENT
$pdata$?eof@?$char_traits@D@std@@SAHXZ DD imagerel $LN3
	DD	imagerel $LN3+9
	DD	imagerel $unwind$?eof@?$char_traits@D@std@@SAHXZ
pdata	ENDS
;	COMDAT xdata
xdata	SEGMENT
$unwind$?eof@?$char_traits@D@std@@SAHXZ DD 010201H
	DD	07002H
; Function compile flags: /Odtp /RTCsu
xdata	ENDS
;	COMDAT ?eof@?$char_traits@D@std@@SAHXZ
_TEXT	SEGMENT
?eof@?$char_traits@D@std@@SAHXZ PROC			; std::char_traits<char>::eof, COMDAT
; Line 562
$LN3:
	push	rdi
; Line 563
	mov	eax, -1
; Line 564
	pop	rdi
	ret	0
?eof@?$char_traits@D@std@@SAHXZ ENDP			; std::char_traits<char>::eof
_TEXT	ENDS
;	COMDAT pdata
; File c:\program files (x86)\microsoft visual studio 10.0\vc\include\streambuf
pdata	SEGMENT
$pdata$?pbackfail@?$basic_streambuf@DU?$char_traits@D@std@@@std@@MEAAHH@Z DD imagerel $LN3
	DD	imagerel $LN3+45
	DD	imagerel $unwind$?pbackfail@?$basic_streambuf@DU?$char_traits@D@std@@@std@@MEAAHH@Z
pdata	ENDS
;	COMDAT xdata
xdata	SEGMENT
$unwind$?pbackfail@?$basic_streambuf@DU?$char_traits@D@std@@@std@@MEAAHH@Z DD 022201H
	DD	0700a320eH
; Function compile flags: /Odtp /RTCsu
xdata	ENDS
;	COMDAT ?pbackfail@?$basic_streambuf@DU?$char_traits@D@std@@@std@@MEAAHH@Z
_TEXT	SEGMENT
this$ = 48
__formal$ = 56
?pbackfail@?$basic_streambuf@DU?$char_traits@D@std@@@std@@MEAAHH@Z PROC ; std::basic_streambuf<char,std::char_traits<char> >::pbackfail, COMDAT
; Line 342
$LN3:
	mov	DWORD PTR [rsp+16], edx
	mov	QWORD PTR [rsp+8], rcx
	push	rdi
	sub	rsp, 32					; 00000020H
	mov	rdi, rsp
	mov	ecx, 8
	mov	eax, -858993460				; ccccccccH
	rep stosd
	mov	rcx, QWORD PTR [rsp+48]
; Line 343
	call	?eof@?$char_traits@D@std@@SAHXZ		; std::char_traits<char>::eof
; Line 344
	add	rsp, 32					; 00000020H
	pop	rdi
	ret	0
?pbackfail@?$basic_streambuf@DU?$char_traits@D@std@@@std@@MEAAHH@Z ENDP ; std::basic_streambuf<char,std::char_traits<char> >::pbackfail
_TEXT	ENDS
;	COMDAT pdata
pdata	SEGMENT
$pdata$?showmanyc@?$basic_streambuf@DU?$char_traits@D@std@@@std@@MEAA_JXZ DD imagerel $LN3
	DD	imagerel $LN3+10
	DD	imagerel $unwind$?showmanyc@?$basic_streambuf@DU?$char_traits@D@std@@@std@@MEAA_JXZ
pdata	ENDS
;	COMDAT xdata
xdata	SEGMENT
$unwind$?showmanyc@?$basic_streambuf@DU?$char_traits@D@std@@@std@@MEAA_JXZ DD 010601H
	DD	07006H
; Function compile flags: /Odtp /RTCsu
xdata	ENDS
;	COMDAT ?showmanyc@?$basic_streambuf@DU?$char_traits@D@std@@@std@@MEAA_JXZ
_TEXT	SEGMENT
this$ = 16
?showmanyc@?$basic_streambuf@DU?$char_traits@D@std@@@std@@MEAA_JXZ PROC ; std::basic_streambuf<char,std::char_traits<char> >::showmanyc, COMDAT
; Line 347
$LN3:
	mov	QWORD PTR [rsp+8], rcx
	push	rdi
; Line 348
	xor	eax, eax
; Line 349
	pop	rdi
	ret	0
?showmanyc@?$basic_streambuf@DU?$char_traits@D@std@@@std@@MEAA_JXZ ENDP ; std::basic_streambuf<char,std::char_traits<char> >::showmanyc
_TEXT	ENDS
;	COMDAT pdata
pdata	SEGMENT
$pdata$?underflow@?$basic_streambuf@DU?$char_traits@D@std@@@std@@MEAAHXZ DD imagerel $LN3
	DD	imagerel $LN3+41
	DD	imagerel $unwind$?underflow@?$basic_streambuf@DU?$char_traits@D@std@@@std@@MEAAHXZ
pdata	ENDS
;	COMDAT xdata
xdata	SEGMENT
$unwind$?underflow@?$basic_streambuf@DU?$char_traits@D@std@@@std@@MEAAHXZ DD 021e01H
	DD	07006320aH
; Function compile flags: /Odtp /RTCsu
xdata	ENDS
;	COMDAT ?underflow@?$basic_streambuf@DU?$char_traits@D@std@@@std@@MEAAHXZ
_TEXT	SEGMENT
this$ = 48
?underflow@?$basic_streambuf@DU?$char_traits@D@std@@@std@@MEAAHXZ PROC ; std::basic_streambuf<char,std::char_traits<char> >::underflow, COMDAT
; Line 352
$LN3:
	mov	QWORD PTR [rsp+8], rcx
	push	rdi
	sub	rsp, 32					; 00000020H
	mov	rdi, rsp
	mov	ecx, 8
	mov	eax, -858993460				; ccccccccH
	rep stosd
	mov	rcx, QWORD PTR [rsp+48]
; Line 353
	call	?eof@?$char_traits@D@std@@SAHXZ		; std::char_traits<char>::eof
; Line 354
	add	rsp, 32					; 00000020H
	pop	rdi
	ret	0
?underflow@?$basic_streambuf@DU?$char_traits@D@std@@@std@@MEAAHXZ ENDP ; std::basic_streambuf<char,std::char_traits<char> >::underflow
_TEXT	ENDS
PUBLIC	?to_int_type@?$char_traits@D@std@@SAHAEBD@Z	; std::char_traits<char>::to_int_type
PUBLIC	?_Gninc@?$basic_streambuf@DU?$char_traits@D@std@@@std@@IEAAPEADXZ ; std::basic_streambuf<char,std::char_traits<char> >::_Gninc
PUBLIC	?eq_int_type@?$char_traits@D@std@@SA_NAEBH0@Z	; std::char_traits<char>::eq_int_type
;	COMDAT pdata
pdata	SEGMENT
$pdata$?uflow@?$basic_streambuf@DU?$char_traits@D@std@@@std@@MEAAHXZ DD imagerel $LN5
	DD	imagerel $LN5+124
	DD	imagerel $unwind$?uflow@?$basic_streambuf@DU?$char_traits@D@std@@@std@@MEAAHXZ
pdata	ENDS
;	COMDAT xdata
xdata	SEGMENT
$unwind$?uflow@?$basic_streambuf@DU?$char_traits@D@std@@@std@@MEAAHXZ DD 021e01H
	DD	07006520aH
; Function compile flags: /Odtp /RTCsu
xdata	ENDS
;	COMDAT ?uflow@?$basic_streambuf@DU?$char_traits@D@std@@@std@@MEAAHXZ
_TEXT	SEGMENT
$T38093 = 32
$T38094 = 36
tv79 = 40
this$ = 64
?uflow@?$basic_streambuf@DU?$char_traits@D@std@@@std@@MEAAHXZ PROC ; std::basic_streambuf<char,std::char_traits<char> >::uflow, COMDAT
; Line 357
$LN5:
	mov	QWORD PTR [rsp+8], rcx
	push	rdi
	sub	rsp, 48					; 00000030H
	mov	rdi, rsp
	mov	ecx, 12
	mov	eax, -858993460				; ccccccccH
	rep stosd
	mov	rcx, QWORD PTR [rsp+64]
; Line 359
	mov	rax, QWORD PTR this$[rsp]
	mov	rax, QWORD PTR [rax]
	mov	rcx, QWORD PTR this$[rsp]
	call	QWORD PTR [rax+48]
	mov	DWORD PTR $T38093[rsp], eax
	call	?eof@?$char_traits@D@std@@SAHXZ		; std::char_traits<char>::eof
	mov	DWORD PTR $T38094[rsp], eax
	lea	rdx, QWORD PTR $T38093[rsp]
	lea	rcx, QWORD PTR $T38094[rsp]
	call	?eq_int_type@?$char_traits@D@std@@SA_NAEBH0@Z ; std::char_traits<char>::eq_int_type
	movzx	eax, al
	test	eax, eax
	je	SHORT $LN3@uflow
	call	?eof@?$char_traits@D@std@@SAHXZ		; std::char_traits<char>::eof
	mov	DWORD PTR tv79[rsp], eax
	jmp	SHORT $LN4@uflow
$LN3@uflow:
	mov	rcx, QWORD PTR this$[rsp]
	call	?_Gninc@?$basic_streambuf@DU?$char_traits@D@std@@@std@@IEAAPEADXZ ; std::basic_streambuf<char,std::char_traits<char> >::_Gninc
	mov	rcx, rax
	call	?to_int_type@?$char_traits@D@std@@SAHAEBD@Z ; std::char_traits<char>::to_int_type
	mov	DWORD PTR tv79[rsp], eax
$LN4@uflow:
	mov	eax, DWORD PTR tv79[rsp]
; Line 360
	add	rsp, 48					; 00000030H
	pop	rdi
	ret	0
?uflow@?$basic_streambuf@DU?$char_traits@D@std@@@std@@MEAAHXZ ENDP ; std::basic_streambuf<char,std::char_traits<char> >::uflow
_TEXT	ENDS
;	COMDAT pdata
; File c:\program files (x86)\microsoft visual studio 10.0\vc\include\iosfwd
pdata	SEGMENT
$pdata$?to_int_type@?$char_traits@D@std@@SAHAEBD@Z DD imagerel $LN3
	DD	imagerel $LN3+16
	DD	imagerel $unwind$?to_int_type@?$char_traits@D@std@@SAHAEBD@Z
pdata	ENDS
;	COMDAT xdata
xdata	SEGMENT
$unwind$?to_int_type@?$char_traits@D@std@@SAHAEBD@Z DD 010601H
	DD	07006H
; Function compile flags: /Odtp /RTCsu
xdata	ENDS
;	COMDAT ?to_int_type@?$char_traits@D@std@@SAHAEBD@Z
_TEXT	SEGMENT
_Ch$ = 16
?to_int_type@?$char_traits@D@std@@SAHAEBD@Z PROC	; std::char_traits<char>::to_int_type, COMDAT
; Line 546
$LN3:
	mov	QWORD PTR [rsp+8], rcx
	push	rdi
; Line 547
	mov	rax, QWORD PTR _Ch$[rsp]
	movzx	eax, BYTE PTR [rax]
; Line 548
	pop	rdi
	ret	0
?to_int_type@?$char_traits@D@std@@SAHAEBD@Z ENDP	; std::char_traits<char>::to_int_type
_TEXT	ENDS
;	COMDAT pdata
pdata	SEGMENT
$pdata$?eq_int_type@?$char_traits@D@std@@SA_NAEBH0@Z DD imagerel $LN5
	DD	imagerel $LN5+77
	DD	imagerel $unwind$?eq_int_type@?$char_traits@D@std@@SA_NAEBH0@Z
pdata	ENDS
;	COMDAT xdata
xdata	SEGMENT
$unwind$?eq_int_type@?$char_traits@D@std@@SA_NAEBH0@Z DD 022301H
	DD	0700b120fH
; Function compile flags: /Odtp /RTCsu
xdata	ENDS
;	COMDAT ?eq_int_type@?$char_traits@D@std@@SA_NAEBH0@Z
_TEXT	SEGMENT
tv65 = 0
_Left$ = 32
_Right$ = 40
?eq_int_type@?$char_traits@D@std@@SA_NAEBH0@Z PROC	; std::char_traits<char>::eq_int_type, COMDAT
; Line 552
$LN5:
	mov	QWORD PTR [rsp+16], rdx
	mov	QWORD PTR [rsp+8], rcx
	push	rdi
	sub	rsp, 16
	mov	rdi, rsp
	mov	ecx, 4
	mov	eax, -858993460				; ccccccccH
	rep stosd
	mov	rcx, QWORD PTR [rsp+32]
; Line 553
	mov	rax, QWORD PTR _Left$[rsp]
	mov	rcx, QWORD PTR _Right$[rsp]
	mov	ecx, DWORD PTR [rcx]
	cmp	DWORD PTR [rax], ecx
	jne	SHORT $LN3@eq_int_typ
	mov	DWORD PTR tv65[rsp], 1
	jmp	SHORT $LN4@eq_int_typ
$LN3@eq_int_typ:
	mov	DWORD PTR tv65[rsp], 0
$LN4@eq_int_typ:
	movzx	eax, BYTE PTR tv65[rsp]
; Line 554
	add	rsp, 16
	pop	rdi
	ret	0
?eq_int_type@?$char_traits@D@std@@SA_NAEBH0@Z ENDP	; std::char_traits<char>::eq_int_type
_TEXT	ENDS
PUBLIC	?to_char_type@?$char_traits@D@std@@SADAEBH@Z	; std::char_traits<char>::to_char_type
PUBLIC	?gbump@?$basic_streambuf@DU?$char_traits@D@std@@@std@@IEAAXH@Z ; std::basic_streambuf<char,std::char_traits<char> >::gbump
PUBLIC	?gptr@?$basic_streambuf@DU?$char_traits@D@std@@@std@@IEBAPEADXZ ; std::basic_streambuf<char,std::char_traits<char> >::gptr
PUBLIC	?_Gnavail@?$basic_streambuf@DU?$char_traits@D@std@@@std@@IEBA_JXZ ; std::basic_streambuf<char,std::char_traits<char> >::_Gnavail
;	COMDAT pdata
; File c:\program files (x86)\microsoft visual studio 10.0\vc\include\streambuf
pdata	SEGMENT
$pdata$?xsgetn@?$basic_streambuf@DU?$char_traits@D@std@@@std@@MEAA_JPEAD_J@Z DD imagerel $LN10
	DD	imagerel $LN10+365
	DD	imagerel $unwind$?xsgetn@?$basic_streambuf@DU?$char_traits@D@std@@@std@@MEAA_JPEAD_J@Z
pdata	ENDS
;	COMDAT xdata
xdata	SEGMENT
$unwind$?xsgetn@?$basic_streambuf@DU?$char_traits@D@std@@@std@@MEAA_JPEAD_J@Z DD 022801H
	DD	070109214H
xdata	ENDS
;	COMDAT CONST
CONST	SEGMENT
?xsgetn@?$basic_streambuf@DU?$char_traits@D@std@@@std@@MEAA_JPEAD_J@Z$rtcName$0 DB 05fH ; std::basic_streambuf<char,std::char_traits<char> >::xsgetn
	DB	04dH
	DB	065H
	DB	074H
	DB	061H
	DB	00H
	ORG $+10
?xsgetn@?$basic_streambuf@DU?$char_traits@D@std@@@std@@MEAA_JPEAD_J@Z$rtcVarDesc DD 024H ; std::basic_streambuf<char,std::char_traits<char> >::xsgetn
	DD	04H
	DQ	FLAT:?xsgetn@?$basic_streambuf@DU?$char_traits@D@std@@@std@@MEAA_JPEAD_J@Z$rtcName$0
	ORG $+48
?xsgetn@?$basic_streambuf@DU?$char_traits@D@std@@@std@@MEAA_JPEAD_J@Z$rtcFrameData DD 01H ; std::basic_streambuf<char,std::char_traits<char> >::xsgetn
	DD	00H
	DQ	FLAT:?xsgetn@?$basic_streambuf@DU?$char_traits@D@std@@@std@@MEAA_JPEAD_J@Z$rtcVarDesc
; Function compile flags: /Odtp /RTCsu
CONST	ENDS
;	COMDAT ?xsgetn@?$basic_streambuf@DU?$char_traits@D@std@@@std@@MEAA_JPEAD_J@Z
_TEXT	SEGMENT
_Meta$ = 36
_Size$ = 56
_Copied$ = 64
$T38120 = 72
this$ = 96
_Ptr$ = 104
_Count$ = 112
?xsgetn@?$basic_streambuf@DU?$char_traits@D@std@@@std@@MEAA_JPEAD_J@Z PROC ; std::basic_streambuf<char,std::char_traits<char> >::xsgetn, COMDAT
; Line 364
$LN10:
	mov	QWORD PTR [rsp+24], r8
	mov	QWORD PTR [rsp+16], rdx
	mov	QWORD PTR [rsp+8], rcx
	push	rdi
	sub	rsp, 80					; 00000050H
	mov	rdi, rsp
	mov	ecx, 20
	mov	eax, -858993460				; ccccccccH
	rep stosd
	mov	rcx, QWORD PTR [rsp+96]
; Line 368
	mov	QWORD PTR _Copied$[rsp], 0
$LN7@xsgetn:
	cmp	QWORD PTR _Count$[rsp], 0
	jle	$LN6@xsgetn
; Line 369
	mov	rcx, QWORD PTR this$[rsp]
	call	?_Gnavail@?$basic_streambuf@DU?$char_traits@D@std@@@std@@IEBA_JXZ ; std::basic_streambuf<char,std::char_traits<char> >::_Gnavail
	mov	QWORD PTR _Size$[rsp], rax
	cmp	QWORD PTR _Size$[rsp], 0
	jle	$LN5@xsgetn
; Line 371
	mov	rax, QWORD PTR _Size$[rsp]
	cmp	QWORD PTR _Count$[rsp], rax
	jge	SHORT $LN4@xsgetn
; Line 372
	mov	rax, QWORD PTR _Count$[rsp]
	mov	QWORD PTR _Size$[rsp], rax
$LN4@xsgetn:
; Line 373
	mov	rcx, QWORD PTR this$[rsp]
	call	?gptr@?$basic_streambuf@DU?$char_traits@D@std@@@std@@IEBAPEADXZ ; std::basic_streambuf<char,std::char_traits<char> >::gptr
	mov	r8, QWORD PTR _Size$[rsp]
	mov	rdx, rax
	mov	rcx, QWORD PTR _Ptr$[rsp]
	call	?copy@?$char_traits@D@std@@SAPEADPEADPEBD_K@Z ; std::char_traits<char>::copy
; Line 374
	mov	rax, QWORD PTR _Size$[rsp]
	mov	rcx, QWORD PTR _Ptr$[rsp]
	add	rcx, rax
	mov	rax, rcx
	mov	QWORD PTR _Ptr$[rsp], rax
; Line 375
	mov	rax, QWORD PTR _Size$[rsp]
	mov	rcx, QWORD PTR _Copied$[rsp]
	add	rcx, rax
	mov	rax, rcx
	mov	QWORD PTR _Copied$[rsp], rax
; Line 376
	mov	rax, QWORD PTR _Size$[rsp]
	mov	rcx, QWORD PTR _Count$[rsp]
	sub	rcx, rax
	mov	rax, rcx
	mov	QWORD PTR _Count$[rsp], rax
; Line 377
	mov	edx, DWORD PTR _Size$[rsp]
	mov	rcx, QWORD PTR this$[rsp]
	call	?gbump@?$basic_streambuf@DU?$char_traits@D@std@@@std@@IEAAXH@Z ; std::basic_streambuf<char,std::char_traits<char> >::gbump
	jmp	SHORT $LN3@xsgetn
$LN5@xsgetn:
; Line 379
	mov	rax, QWORD PTR this$[rsp]
	mov	rax, QWORD PTR [rax]
	mov	rcx, QWORD PTR this$[rsp]
	call	QWORD PTR [rax+56]
	mov	DWORD PTR _Meta$[rsp], eax
	call	?eof@?$char_traits@D@std@@SAHXZ		; std::char_traits<char>::eof
	mov	DWORD PTR $T38120[rsp], eax
	lea	rdx, QWORD PTR _Meta$[rsp]
	lea	rcx, QWORD PTR $T38120[rsp]
	call	?eq_int_type@?$char_traits@D@std@@SA_NAEBH0@Z ; std::char_traits<char>::eq_int_type
	movzx	eax, al
	test	eax, eax
	je	SHORT $LN2@xsgetn
; Line 380
	jmp	SHORT $LN6@xsgetn
; Line 381
	jmp	SHORT $LN1@xsgetn
$LN2@xsgetn:
; Line 383
	lea	rcx, QWORD PTR _Meta$[rsp]
	call	?to_char_type@?$char_traits@D@std@@SADAEBH@Z ; std::char_traits<char>::to_char_type
	mov	rcx, QWORD PTR _Ptr$[rsp]
	mov	BYTE PTR [rcx], al
	mov	rax, QWORD PTR _Ptr$[rsp]
	inc	rax
	mov	QWORD PTR _Ptr$[rsp], rax
; Line 384
	mov	rax, QWORD PTR _Copied$[rsp]
	inc	rax
	mov	QWORD PTR _Copied$[rsp], rax
; Line 385
	mov	rax, QWORD PTR _Count$[rsp]
	dec	rax
	mov	QWORD PTR _Count$[rsp], rax
$LN1@xsgetn:
$LN3@xsgetn:
; Line 386
	jmp	$LN7@xsgetn
$LN6@xsgetn:
; Line 388
	mov	rax, QWORD PTR _Copied$[rsp]
; Line 389
	mov	rdi, rax
	mov	rcx, rsp
	lea	rdx, OFFSET FLAT:?xsgetn@?$basic_streambuf@DU?$char_traits@D@std@@@std@@MEAA_JPEAD_J@Z$rtcFrameData
	call	_RTC_CheckStackVars
	mov	rax, rdi
	add	rsp, 80					; 00000050H
	pop	rdi
	ret	0
?xsgetn@?$basic_streambuf@DU?$char_traits@D@std@@@std@@MEAA_JPEAD_J@Z ENDP ; std::basic_streambuf<char,std::char_traits<char> >::xsgetn
_TEXT	ENDS
;	COMDAT pdata
; File c:\program files (x86)\microsoft visual studio 10.0\vc\include\iosfwd
pdata	SEGMENT
$pdata$?to_char_type@?$char_traits@D@std@@SADAEBH@Z DD imagerel $LN3
	DD	imagerel $LN3+16
	DD	imagerel $unwind$?to_char_type@?$char_traits@D@std@@SADAEBH@Z
pdata	ENDS
;	COMDAT xdata
xdata	SEGMENT
$unwind$?to_char_type@?$char_traits@D@std@@SADAEBH@Z DD 010601H
	DD	07006H
; Function compile flags: /Odtp /RTCsu
xdata	ENDS
;	COMDAT ?to_char_type@?$char_traits@D@std@@SADAEBH@Z
_TEXT	SEGMENT
_Meta$ = 16
?to_char_type@?$char_traits@D@std@@SADAEBH@Z PROC	; std::char_traits<char>::to_char_type, COMDAT
; Line 541
$LN3:
	mov	QWORD PTR [rsp+8], rcx
	push	rdi
; Line 542
	mov	rax, QWORD PTR _Meta$[rsp]
	movzx	eax, BYTE PTR [rax]
; Line 543
	pop	rdi
	ret	0
?to_char_type@?$char_traits@D@std@@SADAEBH@Z ENDP	; std::char_traits<char>::to_char_type
_TEXT	ENDS
PUBLIC	?pbump@?$basic_streambuf@DU?$char_traits@D@std@@@std@@IEAAXH@Z ; std::basic_streambuf<char,std::char_traits<char> >::pbump
PUBLIC	?pptr@?$basic_streambuf@DU?$char_traits@D@std@@@std@@IEBAPEADXZ ; std::basic_streambuf<char,std::char_traits<char> >::pptr
PUBLIC	?_Pnavail@?$basic_streambuf@DU?$char_traits@D@std@@@std@@IEBA_JXZ ; std::basic_streambuf<char,std::char_traits<char> >::_Pnavail
;	COMDAT pdata
; File c:\program files (x86)\microsoft visual studio 10.0\vc\include\streambuf
pdata	SEGMENT
$pdata$?xsputn@?$basic_streambuf@DU?$char_traits@D@std@@@std@@MEAA_JPEBD_J@Z DD imagerel $LN10
	DD	imagerel $LN10+349
	DD	imagerel $unwind$?xsputn@?$basic_streambuf@DU?$char_traits@D@std@@@std@@MEAA_JPEBD_J@Z
pdata	ENDS
;	COMDAT xdata
xdata	SEGMENT
$unwind$?xsputn@?$basic_streambuf@DU?$char_traits@D@std@@@std@@MEAA_JPEBD_J@Z DD 022801H
	DD	070107214H
; Function compile flags: /Odtp /RTCsu
xdata	ENDS
;	COMDAT ?xsputn@?$basic_streambuf@DU?$char_traits@D@std@@@std@@MEAA_JPEBD_J@Z
_TEXT	SEGMENT
_Size$ = 32
_Copied$ = 40
$T38139 = 48
$T38140 = 52
tv95 = 56
this$ = 80
_Ptr$ = 88
_Count$ = 96
?xsputn@?$basic_streambuf@DU?$char_traits@D@std@@@std@@MEAA_JPEBD_J@Z PROC ; std::basic_streambuf<char,std::char_traits<char> >::xsputn, COMDAT
; Line 393
$LN10:
	mov	QWORD PTR [rsp+24], r8
	mov	QWORD PTR [rsp+16], rdx
	mov	QWORD PTR [rsp+8], rcx
	push	rdi
	sub	rsp, 64					; 00000040H
	mov	rdi, rsp
	mov	ecx, 16
	mov	eax, -858993460				; ccccccccH
	rep stosd
	mov	rcx, QWORD PTR [rsp+80]
; Line 396
	mov	QWORD PTR _Copied$[rsp], 0
$LN7@xsputn:
	cmp	QWORD PTR _Count$[rsp], 0
	jle	$LN6@xsputn
; Line 397
	mov	rcx, QWORD PTR this$[rsp]
	call	?_Pnavail@?$basic_streambuf@DU?$char_traits@D@std@@@std@@IEBA_JXZ ; std::basic_streambuf<char,std::char_traits<char> >::_Pnavail
	mov	QWORD PTR _Size$[rsp], rax
	cmp	QWORD PTR _Size$[rsp], 0
	jle	$LN5@xsputn
; Line 399
	mov	rax, QWORD PTR _Size$[rsp]
	cmp	QWORD PTR _Count$[rsp], rax
	jge	SHORT $LN4@xsputn
; Line 400
	mov	rax, QWORD PTR _Count$[rsp]
	mov	QWORD PTR _Size$[rsp], rax
$LN4@xsputn:
; Line 401
	mov	rcx, QWORD PTR this$[rsp]
	call	?pptr@?$basic_streambuf@DU?$char_traits@D@std@@@std@@IEBAPEADXZ ; std::basic_streambuf<char,std::char_traits<char> >::pptr
	mov	r8, QWORD PTR _Size$[rsp]
	mov	rdx, QWORD PTR _Ptr$[rsp]
	mov	rcx, rax
	call	?copy@?$char_traits@D@std@@SAPEADPEADPEBD_K@Z ; std::char_traits<char>::copy
; Line 402
	mov	rax, QWORD PTR _Size$[rsp]
	mov	rcx, QWORD PTR _Ptr$[rsp]
	add	rcx, rax
	mov	rax, rcx
	mov	QWORD PTR _Ptr$[rsp], rax
; Line 403
	mov	rax, QWORD PTR _Size$[rsp]
	mov	rcx, QWORD PTR _Copied$[rsp]
	add	rcx, rax
	mov	rax, rcx
	mov	QWORD PTR _Copied$[rsp], rax
; Line 404
	mov	rax, QWORD PTR _Size$[rsp]
	mov	rcx, QWORD PTR _Count$[rsp]
	sub	rcx, rax
	mov	rax, rcx
	mov	QWORD PTR _Count$[rsp], rax
; Line 405
	mov	edx, DWORD PTR _Size$[rsp]
	mov	rcx, QWORD PTR this$[rsp]
	call	?pbump@?$basic_streambuf@DU?$char_traits@D@std@@@std@@IEAAXH@Z ; std::basic_streambuf<char,std::char_traits<char> >::pbump
; Line 407
	jmp	SHORT $LN3@xsputn
$LN5@xsputn:
; Line 408
	mov	rcx, QWORD PTR _Ptr$[rsp]
	call	?to_int_type@?$char_traits@D@std@@SAHAEBD@Z ; std::char_traits<char>::to_int_type
	mov	rcx, QWORD PTR this$[rsp]
	mov	rcx, QWORD PTR [rcx]
	mov	QWORD PTR tv95[rsp], rcx
	mov	edx, eax
	mov	rcx, QWORD PTR this$[rsp]
	mov	rax, QWORD PTR tv95[rsp]
	call	QWORD PTR [rax+24]
	mov	DWORD PTR $T38139[rsp], eax
	call	?eof@?$char_traits@D@std@@SAHXZ		; std::char_traits<char>::eof
	mov	DWORD PTR $T38140[rsp], eax
	lea	rdx, QWORD PTR $T38139[rsp]
	lea	rcx, QWORD PTR $T38140[rsp]
	call	?eq_int_type@?$char_traits@D@std@@SA_NAEBH0@Z ; std::char_traits<char>::eq_int_type
	movzx	eax, al
	test	eax, eax
	je	SHORT $LN2@xsputn
; Line 409
	jmp	SHORT $LN6@xsputn
; Line 410
	jmp	SHORT $LN1@xsputn
$LN2@xsputn:
; Line 412
	mov	rax, QWORD PTR _Ptr$[rsp]
	inc	rax
	mov	QWORD PTR _Ptr$[rsp], rax
; Line 413
	mov	rax, QWORD PTR _Copied$[rsp]
	inc	rax
	mov	QWORD PTR _Copied$[rsp], rax
; Line 414
	mov	rax, QWORD PTR _Count$[rsp]
	dec	rax
	mov	QWORD PTR _Count$[rsp], rax
$LN1@xsputn:
$LN3@xsputn:
; Line 415
	jmp	$LN7@xsputn
$LN6@xsputn:
; Line 417
	mov	rax, QWORD PTR _Copied$[rsp]
; Line 418
	add	rsp, 64					; 00000040H
	pop	rdi
	ret	0
?xsputn@?$basic_streambuf@DU?$char_traits@D@std@@@std@@MEAA_JPEBD_J@Z ENDP ; std::basic_streambuf<char,std::char_traits<char> >::xsputn
_TEXT	ENDS
;	COMDAT pdata
pdata	SEGMENT
$pdata$?seekoff@?$basic_streambuf@DU?$char_traits@D@std@@@std@@MEAA?AV?$fpos@H@2@_JHH@Z DD imagerel $LN3
	DD	imagerel $LN3+73
	DD	imagerel $unwind$?seekoff@?$basic_streambuf@DU?$char_traits@D@std@@@std@@MEAA?AV?$fpos@H@2@_JHH@Z
pdata	ENDS
;	COMDAT xdata
xdata	SEGMENT
$unwind$?seekoff@?$basic_streambuf@DU?$char_traits@D@std@@@std@@MEAA?AV?$fpos@H@2@_JHH@Z DD 022d01H
	DD	070153219H
; Function compile flags: /Odtp /RTCsu
xdata	ENDS
;	COMDAT ?seekoff@?$basic_streambuf@DU?$char_traits@D@std@@@std@@MEAA?AV?$fpos@H@2@_JHH@Z
_TEXT	SEGMENT
this$ = 48
__$ReturnUdt$ = 56
__formal$ = 64
__formal$ = 72
__formal$ = 80
?seekoff@?$basic_streambuf@DU?$char_traits@D@std@@@std@@MEAA?AV?$fpos@H@2@_JHH@Z PROC ; std::basic_streambuf<char,std::char_traits<char> >::seekoff, COMDAT
; Line 423
$LN3:
	mov	DWORD PTR [rsp+32], r9d
	mov	QWORD PTR [rsp+24], r8
	mov	QWORD PTR [rsp+16], rdx
	mov	QWORD PTR [rsp+8], rcx
	push	rdi
	sub	rsp, 32					; 00000020H
	mov	rdi, rsp
	mov	ecx, 8
	mov	eax, -858993460				; ccccccccH
	rep stosd
	mov	rcx, QWORD PTR [rsp+48]
; Line 424
	mov	rdx, QWORD PTR ?_BADOFF@std@@3_JB	; std::_BADOFF
	mov	rcx, QWORD PTR __$ReturnUdt$[rsp]
	call	??0?$fpos@H@std@@QEAA@_J@Z		; std::fpos<int>::fpos<int>
	mov	rax, QWORD PTR __$ReturnUdt$[rsp]
; Line 425
	add	rsp, 32					; 00000020H
	pop	rdi
	ret	0
?seekoff@?$basic_streambuf@DU?$char_traits@D@std@@@std@@MEAA?AV?$fpos@H@2@_JHH@Z ENDP ; std::basic_streambuf<char,std::char_traits<char> >::seekoff
_TEXT	ENDS
;	COMDAT pdata
pdata	SEGMENT
$pdata$?seekpos@?$basic_streambuf@DU?$char_traits@D@std@@@std@@MEAA?AV?$fpos@H@2@V32@H@Z DD imagerel $LN3
	DD	imagerel $LN3+73
	DD	imagerel $unwind$?seekpos@?$basic_streambuf@DU?$char_traits@D@std@@@std@@MEAA?AV?$fpos@H@2@V32@H@Z
pdata	ENDS
;	COMDAT xdata
xdata	SEGMENT
$unwind$?seekpos@?$basic_streambuf@DU?$char_traits@D@std@@@std@@MEAA?AV?$fpos@H@2@V32@H@Z DD 022d01H
	DD	070153219H
; Function compile flags: /Odtp /RTCsu
xdata	ENDS
;	COMDAT ?seekpos@?$basic_streambuf@DU?$char_traits@D@std@@@std@@MEAA?AV?$fpos@H@2@V32@H@Z
_TEXT	SEGMENT
this$ = 48
__$ReturnUdt$ = 56
__formal$ = 64
__formal$ = 72
?seekpos@?$basic_streambuf@DU?$char_traits@D@std@@@std@@MEAA?AV?$fpos@H@2@V32@H@Z PROC ; std::basic_streambuf<char,std::char_traits<char> >::seekpos, COMDAT
; Line 429
$LN3:
	mov	DWORD PTR [rsp+32], r9d
	mov	QWORD PTR [rsp+24], r8
	mov	QWORD PTR [rsp+16], rdx
	mov	QWORD PTR [rsp+8], rcx
	push	rdi
	sub	rsp, 32					; 00000020H
	mov	rdi, rsp
	mov	ecx, 8
	mov	eax, -858993460				; ccccccccH
	rep stosd
	mov	rcx, QWORD PTR [rsp+48]
; Line 430
	mov	rdx, QWORD PTR ?_BADOFF@std@@3_JB	; std::_BADOFF
	mov	rcx, QWORD PTR __$ReturnUdt$[rsp]
	call	??0?$fpos@H@std@@QEAA@_J@Z		; std::fpos<int>::fpos<int>
	mov	rax, QWORD PTR __$ReturnUdt$[rsp]
; Line 431
	add	rsp, 32					; 00000020H
	pop	rdi
	ret	0
?seekpos@?$basic_streambuf@DU?$char_traits@D@std@@@std@@MEAA?AV?$fpos@H@2@V32@H@Z ENDP ; std::basic_streambuf<char,std::char_traits<char> >::seekpos
_TEXT	ENDS
;	COMDAT pdata
pdata	SEGMENT
$pdata$?setbuf@?$basic_streambuf@DU?$char_traits@D@std@@@std@@MEAAPEAV12@PEAD_J@Z DD imagerel $LN3
	DD	imagerel $LN3+23
	DD	imagerel $unwind$?setbuf@?$basic_streambuf@DU?$char_traits@D@std@@@std@@MEAAPEAV12@PEAD_J@Z
pdata	ENDS
;	COMDAT xdata
xdata	SEGMENT
$unwind$?setbuf@?$basic_streambuf@DU?$char_traits@D@std@@@std@@MEAAPEAV12@PEAD_J@Z DD 011001H
	DD	07010H
; Function compile flags: /Odtp /RTCsu
xdata	ENDS
;	COMDAT ?setbuf@?$basic_streambuf@DU?$char_traits@D@std@@@std@@MEAAPEAV12@PEAD_J@Z
_TEXT	SEGMENT
this$ = 16
__formal$ = 24
__formal$ = 32
?setbuf@?$basic_streambuf@DU?$char_traits@D@std@@@std@@MEAAPEAV12@PEAD_J@Z PROC ; std::basic_streambuf<char,std::char_traits<char> >::setbuf, COMDAT
; Line 434
$LN3:
	mov	QWORD PTR [rsp+24], r8
	mov	QWORD PTR [rsp+16], rdx
	mov	QWORD PTR [rsp+8], rcx
	push	rdi
; Line 435
	mov	rax, QWORD PTR this$[rsp]
; Line 436
	pop	rdi
	ret	0
?setbuf@?$basic_streambuf@DU?$char_traits@D@std@@@std@@MEAAPEAV12@PEAD_J@Z ENDP ; std::basic_streambuf<char,std::char_traits<char> >::setbuf
_TEXT	ENDS
;	COMDAT pdata
pdata	SEGMENT
$pdata$?sync@?$basic_streambuf@DU?$char_traits@D@std@@@std@@MEAAHXZ DD imagerel $LN3
	DD	imagerel $LN3+10
	DD	imagerel $unwind$?sync@?$basic_streambuf@DU?$char_traits@D@std@@@std@@MEAAHXZ
pdata	ENDS
;	COMDAT xdata
xdata	SEGMENT
$unwind$?sync@?$basic_streambuf@DU?$char_traits@D@std@@@std@@MEAAHXZ DD 010601H
	DD	07006H
; Function compile flags: /Odtp /RTCsu
xdata	ENDS
;	COMDAT ?sync@?$basic_streambuf@DU?$char_traits@D@std@@@std@@MEAAHXZ
_TEXT	SEGMENT
this$ = 16
?sync@?$basic_streambuf@DU?$char_traits@D@std@@@std@@MEAAHXZ PROC ; std::basic_streambuf<char,std::char_traits<char> >::sync, COMDAT
; Line 439
$LN3:
	mov	QWORD PTR [rsp+8], rcx
	push	rdi
; Line 440
	xor	eax, eax
; Line 441
	pop	rdi
	ret	0
?sync@?$basic_streambuf@DU?$char_traits@D@std@@@std@@MEAAHXZ ENDP ; std::basic_streambuf<char,std::char_traits<char> >::sync
_TEXT	ENDS
;	COMDAT pdata
pdata	SEGMENT
$pdata$?imbue@?$basic_streambuf@DU?$char_traits@D@std@@@std@@MEAAXAEBVlocale@2@@Z DD imagerel $LN3
	DD	imagerel $LN3+13
	DD	imagerel $unwind$?imbue@?$basic_streambuf@DU?$char_traits@D@std@@@std@@MEAAXAEBVlocale@2@@Z
pdata	ENDS
;	COMDAT xdata
xdata	SEGMENT
$unwind$?imbue@?$basic_streambuf@DU?$char_traits@D@std@@@std@@MEAAXAEBVlocale@2@@Z DD 010b01H
	DD	0700bH
; Function compile flags: /Odtp /RTCsu
xdata	ENDS
;	COMDAT ?imbue@?$basic_streambuf@DU?$char_traits@D@std@@@std@@MEAAXAEBVlocale@2@@Z
_TEXT	SEGMENT
this$ = 16
__formal$ = 24
?imbue@?$basic_streambuf@DU?$char_traits@D@std@@@std@@MEAAXAEBVlocale@2@@Z PROC ; std::basic_streambuf<char,std::char_traits<char> >::imbue, COMDAT
; Line 444
$LN3:
	mov	QWORD PTR [rsp+16], rdx
	mov	QWORD PTR [rsp+8], rcx
	push	rdi
; Line 445
	pop	rdi
	ret	0
?imbue@?$basic_streambuf@DU?$char_traits@D@std@@@std@@MEAAXAEBVlocale@2@@Z ENDP ; std::basic_streambuf<char,std::char_traits<char> >::imbue
_TEXT	ENDS
EXTRN	_lock_file:PROC
;	COMDAT pdata
; File c:\program files (x86)\microsoft visual studio 10.0\vc\include\fstream
pdata	SEGMENT
$pdata$?_Lock@?$basic_filebuf@DU?$char_traits@D@std@@@std@@UEAAXXZ DD imagerel $LN4
	DD	imagerel $LN4+68
	DD	imagerel $unwind$?_Lock@?$basic_filebuf@DU?$char_traits@D@std@@@std@@UEAAXXZ
pdata	ENDS
;	COMDAT xdata
xdata	SEGMENT
$unwind$?_Lock@?$basic_filebuf@DU?$char_traits@D@std@@@std@@UEAAXXZ DD 021e01H
	DD	07006320aH
; Function compile flags: /Odtp /RTCsu
xdata	ENDS
;	COMDAT ?_Lock@?$basic_filebuf@DU?$char_traits@D@std@@@std@@UEAAXXZ
_TEXT	SEGMENT
this$ = 48
?_Lock@?$basic_filebuf@DU?$char_traits@D@std@@@std@@UEAAXXZ PROC ; std::basic_filebuf<char,std::char_traits<char> >::_Lock, COMDAT
; Line 308
$LN4:
	mov	QWORD PTR [rsp+8], rcx
	push	rdi
	sub	rsp, 32					; 00000020H
	mov	rdi, rsp
	mov	ecx, 8
	mov	eax, -858993460				; ccccccccH
	rep stosd
	mov	rcx, QWORD PTR [rsp+48]
; Line 309
	mov	rax, QWORD PTR this$[rsp]
	cmp	QWORD PTR [rax+152], 0
	je	SHORT $LN1@Lock
; Line 310
	mov	rax, QWORD PTR this$[rsp]
	mov	rcx, QWORD PTR [rax+152]
	call	_lock_file
$LN1@Lock:
; Line 311
	add	rsp, 32					; 00000020H
	pop	rdi
	ret	0
?_Lock@?$basic_filebuf@DU?$char_traits@D@std@@@std@@UEAAXXZ ENDP ; std::basic_filebuf<char,std::char_traits<char> >::_Lock
_TEXT	ENDS
EXTRN	_unlock_file:PROC
;	COMDAT pdata
pdata	SEGMENT
$pdata$?_Unlock@?$basic_filebuf@DU?$char_traits@D@std@@@std@@UEAAXXZ DD imagerel $LN4
	DD	imagerel $LN4+68
	DD	imagerel $unwind$?_Unlock@?$basic_filebuf@DU?$char_traits@D@std@@@std@@UEAAXXZ
pdata	ENDS
;	COMDAT xdata
xdata	SEGMENT
$unwind$?_Unlock@?$basic_filebuf@DU?$char_traits@D@std@@@std@@UEAAXXZ DD 021e01H
	DD	07006320aH
; Function compile flags: /Odtp /RTCsu
xdata	ENDS
;	COMDAT ?_Unlock@?$basic_filebuf@DU?$char_traits@D@std@@@std@@UEAAXXZ
_TEXT	SEGMENT
this$ = 48
?_Unlock@?$basic_filebuf@DU?$char_traits@D@std@@@std@@UEAAXXZ PROC ; std::basic_filebuf<char,std::char_traits<char> >::_Unlock, COMDAT
; Line 314
$LN4:
	mov	QWORD PTR [rsp+8], rcx
	push	rdi
	sub	rsp, 32					; 00000020H
	mov	rdi, rsp
	mov	ecx, 8
	mov	eax, -858993460				; ccccccccH
	rep stosd
	mov	rcx, QWORD PTR [rsp+48]
; Line 315
	mov	rax, QWORD PTR this$[rsp]
	cmp	QWORD PTR [rax+152], 0
	je	SHORT $LN1@Unlock
; Line 316
	mov	rax, QWORD PTR this$[rsp]
	mov	rcx, QWORD PTR [rax+152]
	call	_unlock_file
$LN1@Unlock:
; Line 317
	add	rsp, 32					; 00000020H
	pop	rdi
	ret	0
?_Unlock@?$basic_filebuf@DU?$char_traits@D@std@@@std@@UEAAXXZ ENDP ; std::basic_filebuf<char,std::char_traits<char> >::_Unlock
_TEXT	ENDS
PUBLIC	?append@?$basic_string@DU?$char_traits@D@std@@V?$allocator@D@2@@std@@QEAAAEAV12@_KD@Z ; std::basic_string<char,std::char_traits<char>,std::allocator<char> >::append
PUBLIC	??1?$basic_string@DU?$char_traits@D@std@@V?$allocator@D@2@@std@@QEAA@XZ ; std::basic_string<char,std::char_traits<char>,std::allocator<char> >::~basic_string<char,std::char_traits<char>,std::allocator<char> >
PUBLIC	??1?$_String_iterator@DU?$char_traits@D@std@@V?$allocator@D@2@@std@@QEAA@XZ ; std::_String_iterator<char,std::char_traits<char>,std::allocator<char> >::~_String_iterator<char,std::char_traits<char>,std::allocator<char> >
PUBLIC	?out@?$codecvt@DDH@std@@QEBAHAEAHPEBD1AEAPEBDPEAD3AEAPEAD@Z ; std::codecvt<char,char,int>::out
PUBLIC	?size@?$basic_string@DU?$char_traits@D@std@@V?$allocator@D@2@@std@@QEBA_KXZ ; std::basic_string<char,std::char_traits<char>,std::allocator<char> >::size
PUBLIC	??D?$_String_iterator@DU?$char_traits@D@std@@V?$allocator@D@2@@std@@QEBAAEADXZ ; std::_String_iterator<char,std::char_traits<char>,std::allocator<char> >::operator*
PUBLIC	?begin@?$basic_string@DU?$char_traits@D@std@@V?$allocator@D@2@@std@@QEAA?AV?$_String_iterator@DU?$char_traits@D@std@@V?$allocator@D@2@@2@XZ ; std::basic_string<char,std::char_traits<char>,std::allocator<char> >::begin
PUBLIC	??0?$basic_string@DU?$char_traits@D@std@@V?$allocator@D@2@@std@@QEAA@_KD@Z ; std::basic_string<char,std::char_traits<char>,std::allocator<char> >::basic_string<char,std::char_traits<char>,std::allocator<char> >
PUBLIC	??$_Fputc@D@std@@YA_NDPEAU_iobuf@@@Z		; std::_Fputc<char>
PUBLIC	?_Pninc@?$basic_streambuf@DU?$char_traits@D@std@@@std@@IEAAPEADXZ ; std::basic_streambuf<char,std::char_traits<char> >::_Pninc
PUBLIC	?epptr@?$basic_streambuf@DU?$char_traits@D@std@@@std@@IEBAPEADXZ ; std::basic_streambuf<char,std::char_traits<char> >::epptr
PUBLIC	?not_eof@?$char_traits@D@std@@SAHAEBH@Z		; std::char_traits<char>::not_eof
PUBLIC	__$ArrayPad$
EXTRN	__GSHandlerCheck_EH:PROC
;	COMDAT pdata
pdata	SEGMENT
$pdata$?overflow@?$basic_filebuf@DU?$char_traits@D@std@@@std@@MEAAHH@Z DD imagerel $LN36
	DD	imagerel $LN36+1509
	DD	imagerel $unwind$?overflow@?$basic_filebuf@DU?$char_traits@D@std@@@std@@MEAAHH@Z
pdata	ENDS
;	COMDAT pdata
pdata	SEGMENT
$pdata$?dtor$0@?0??overflow@?$basic_filebuf@DU?$char_traits@D@std@@@std@@MEAAHH@Z@4HA DD imagerel ?dtor$0@?0??overflow@?$basic_filebuf@DU?$char_traits@D@std@@@std@@MEAAHH@Z@4HA
	DD	imagerel ?dtor$0@?0??overflow@?$basic_filebuf@DU?$char_traits@D@std@@@std@@MEAAHH@Z@4HA+38
	DD	imagerel $unwind$?dtor$0@?0??overflow@?$basic_filebuf@DU?$char_traits@D@std@@@std@@MEAAHH@Z@4HA
pdata	ENDS
;	COMDAT pdata
pdata	SEGMENT
$pdata$?dtor$1@?0??overflow@?$basic_filebuf@DU?$char_traits@D@std@@@std@@MEAAHH@Z@4HA DD imagerel ?dtor$1@?0??overflow@?$basic_filebuf@DU?$char_traits@D@std@@@std@@MEAAHH@Z@4HA
	DD	imagerel ?dtor$1@?0??overflow@?$basic_filebuf@DU?$char_traits@D@std@@@std@@MEAAHH@Z@4HA+38
	DD	imagerel $unwind$?dtor$1@?0??overflow@?$basic_filebuf@DU?$char_traits@D@std@@@std@@MEAAHH@Z@4HA
pdata	ENDS
;	COMDAT pdata
pdata	SEGMENT
$pdata$?dtor$2@?0??overflow@?$basic_filebuf@DU?$char_traits@D@std@@@std@@MEAAHH@Z@4HA DD imagerel ?dtor$2@?0??overflow@?$basic_filebuf@DU?$char_traits@D@std@@@std@@MEAAHH@Z@4HA
	DD	imagerel ?dtor$2@?0??overflow@?$basic_filebuf@DU?$char_traits@D@std@@@std@@MEAAHH@Z@4HA+38
	DD	imagerel $unwind$?dtor$2@?0??overflow@?$basic_filebuf@DU?$char_traits@D@std@@@std@@MEAAHH@Z@4HA
pdata	ENDS
;	COMDAT pdata
pdata	SEGMENT
$pdata$?dtor$3@?0??overflow@?$basic_filebuf@DU?$char_traits@D@std@@@std@@MEAAHH@Z@4HA DD imagerel ?dtor$3@?0??overflow@?$basic_filebuf@DU?$char_traits@D@std@@@std@@MEAAHH@Z@4HA
	DD	imagerel ?dtor$3@?0??overflow@?$basic_filebuf@DU?$char_traits@D@std@@@std@@MEAAHH@Z@4HA+38
	DD	imagerel $unwind$?dtor$3@?0??overflow@?$basic_filebuf@DU?$char_traits@D@std@@@std@@MEAAHH@Z@4HA
pdata	ENDS
;	COMDAT pdata
pdata	SEGMENT
$pdata$?dtor$4@?0??overflow@?$basic_filebuf@DU?$char_traits@D@std@@@std@@MEAAHH@Z@4HA DD imagerel ?dtor$4@?0??overflow@?$basic_filebuf@DU?$char_traits@D@std@@@std@@MEAAHH@Z@4HA
	DD	imagerel ?dtor$4@?0??overflow@?$basic_filebuf@DU?$char_traits@D@std@@@std@@MEAAHH@Z@4HA+58
	DD	imagerel $unwind$?dtor$4@?0??overflow@?$basic_filebuf@DU?$char_traits@D@std@@@std@@MEAAHH@Z@4HA
pdata	ENDS
;	COMDAT xdata
xdata	SEGMENT
$ip2state$?overflow@?$basic_filebuf@DU?$char_traits@D@std@@@std@@MEAAHH@Z DD imagerel ?overflow@?$basic_filebuf@DU?$char_traits@D@std@@@std@@MEAAHH@Z
	DD	0ffffffffH
	DD	imagerel ?overflow@?$basic_filebuf@DU?$char_traits@D@std@@@std@@MEAAHH@Z+460
	DD	00H
	DD	imagerel ?overflow@?$basic_filebuf@DU?$char_traits@D@std@@@std@@MEAAHH@Z+505
	DD	01H
	DD	imagerel ?overflow@?$basic_filebuf@DU?$char_traits@D@std@@@std@@MEAAHH@Z+606
	DD	02H
	DD	imagerel ?overflow@?$basic_filebuf@DU?$char_traits@D@std@@@std@@MEAAHH@Z+715
	DD	01H
	DD	imagerel ?overflow@?$basic_filebuf@DU?$char_traits@D@std@@@std@@MEAAHH@Z+729
	DD	00H
	DD	imagerel ?overflow@?$basic_filebuf@DU?$char_traits@D@std@@@std@@MEAAHH@Z+844
	DD	03H
	DD	imagerel ?overflow@?$basic_filebuf@DU?$char_traits@D@std@@@std@@MEAAHH@Z+879
	DD	00H
	DD	imagerel ?overflow@?$basic_filebuf@DU?$char_traits@D@std@@@std@@MEAAHH@Z+952
	DD	04H
	DD	imagerel ?overflow@?$basic_filebuf@DU?$char_traits@D@std@@@std@@MEAAHH@Z+1067
	DD	00H
	DD	imagerel ?overflow@?$basic_filebuf@DU?$char_traits@D@std@@@std@@MEAAHH@Z+1126
	DD	0ffffffffH
	DD	imagerel ?overflow@?$basic_filebuf@DU?$char_traits@D@std@@@std@@MEAAHH@Z+1151
	DD	00H
	DD	imagerel ?overflow@?$basic_filebuf@DU?$char_traits@D@std@@@std@@MEAAHH@Z+1192
	DD	0ffffffffH
	DD	imagerel ?overflow@?$basic_filebuf@DU?$char_traits@D@std@@@std@@MEAAHH@Z+1217
	DD	00H
	DD	imagerel ?overflow@?$basic_filebuf@DU?$char_traits@D@std@@@std@@MEAAHH@Z+1284
	DD	0ffffffffH
	DD	imagerel ?overflow@?$basic_filebuf@DU?$char_traits@D@std@@@std@@MEAAHH@Z+1309
	DD	00H
	DD	imagerel ?overflow@?$basic_filebuf@DU?$char_traits@D@std@@@std@@MEAAHH@Z+1388
	DD	0ffffffffH
	DD	imagerel ?overflow@?$basic_filebuf@DU?$char_traits@D@std@@@std@@MEAAHH@Z+1410
	DD	00H
	DD	imagerel ?overflow@?$basic_filebuf@DU?$char_traits@D@std@@@std@@MEAAHH@Z+1422
	DD	0ffffffffH
	DD	imagerel ?overflow@?$basic_filebuf@DU?$char_traits@D@std@@@std@@MEAAHH@Z+1444
	DD	00H
	DD	imagerel ?overflow@?$basic_filebuf@DU?$char_traits@D@std@@@std@@MEAAHH@Z+1463
	DD	0ffffffffH
xdata	ENDS
;	COMDAT xdata
xdata	SEGMENT
$unwind$?dtor$4@?0??overflow@?$basic_filebuf@DU?$char_traits@D@std@@@std@@MEAAHH@Z@4HA DD 031001H
	DD	0700c4210H
	DD	0500bH
xdata	ENDS
;	COMDAT xdata
xdata	SEGMENT
$unwind$?dtor$3@?0??overflow@?$basic_filebuf@DU?$char_traits@D@std@@@std@@MEAAHH@Z@4HA DD 031001H
	DD	0700c4210H
	DD	0500bH
xdata	ENDS
;	COMDAT xdata
xdata	SEGMENT
$unwind$?dtor$2@?0??overflow@?$basic_filebuf@DU?$char_traits@D@std@@@std@@MEAAHH@Z@4HA DD 031001H
	DD	0700c4210H
	DD	0500bH
xdata	ENDS
;	COMDAT xdata
xdata	SEGMENT
$unwind$?dtor$1@?0??overflow@?$basic_filebuf@DU?$char_traits@D@std@@@std@@MEAAHH@Z@4HA DD 031001H
	DD	0700c4210H
	DD	0500bH
xdata	ENDS
;	COMDAT xdata
xdata	SEGMENT
$unwind$?dtor$0@?0??overflow@?$basic_filebuf@DU?$char_traits@D@std@@@std@@MEAAHH@Z@4HA DD 031001H
	DD	0700c4210H
	DD	0500bH
xdata	ENDS
;	COMDAT xdata
xdata	SEGMENT
$unwind$?overflow@?$basic_filebuf@DU?$char_traits@D@std@@@std@@MEAAHH@Z DD 034619H
	DD	0420111H
	DD	0700aH
	DD	imagerel __GSHandlerCheck_EH
	DD	imagerel $cppxdata$?overflow@?$basic_filebuf@DU?$char_traits@D@std@@@std@@MEAAHH@Z
	DD	020aH
xdata	ENDS
;	COMDAT xdata
xdata	SEGMENT
$stateUnwindMap$?overflow@?$basic_filebuf@DU?$char_traits@D@std@@@std@@MEAAHH@Z DD 0ffffffffH
	DD	imagerel ?dtor$0@?0??overflow@?$basic_filebuf@DU?$char_traits@D@std@@@std@@MEAAHH@Z@4HA
	DD	00H
	DD	imagerel ?dtor$1@?0??overflow@?$basic_filebuf@DU?$char_traits@D@std@@@std@@MEAAHH@Z@4HA
	DD	01H
	DD	imagerel ?dtor$2@?0??overflow@?$basic_filebuf@DU?$char_traits@D@std@@@std@@MEAAHH@Z@4HA
	DD	00H
	DD	imagerel ?dtor$3@?0??overflow@?$basic_filebuf@DU?$char_traits@D@std@@@std@@MEAAHH@Z@4HA
	DD	00H
	DD	imagerel ?dtor$4@?0??overflow@?$basic_filebuf@DU?$char_traits@D@std@@@std@@MEAAHH@Z@4HA
xdata	ENDS
;	COMDAT CONST
CONST	SEGMENT
?overflow@?$basic_filebuf@DU?$char_traits@D@std@@@std@@MEAAHH@Z$rtcName$0 DB 05fH ; std::basic_filebuf<char,std::char_traits<char> >::overflow
	DB	043H
	DB	068H
	DB	00H
?overflow@?$basic_filebuf@DU?$char_traits@D@std@@@std@@MEAAHH@Z$rtcName$1 DB 05fH ; std::basic_filebuf<char,std::char_traits<char> >::overflow
	DB	053H
	DB	072H
	DB	063H
	DB	00H
	ORG $+3
?overflow@?$basic_filebuf@DU?$char_traits@D@std@@@std@@MEAAHH@Z$rtcName$2 DB 05fH ; std::basic_filebuf<char,std::char_traits<char> >::overflow
	DB	044H
	DB	065H
	DB	073H
	DB	074H
	DB	00H
	ORG $+2
?overflow@?$basic_filebuf@DU?$char_traits@D@std@@@std@@MEAAHH@Z$rtcName$3 DB 05fH ; std::basic_filebuf<char,std::char_traits<char> >::overflow
	DB	053H
	DB	074H
	DB	072H
	DB	00H
	ORG $+7
?overflow@?$basic_filebuf@DU?$char_traits@D@std@@@std@@MEAAHH@Z$rtcVarDesc DD 0b8H ; std::basic_filebuf<char,std::char_traits<char> >::overflow
	DD	030H
	DQ	FLAT:?overflow@?$basic_filebuf@DU?$char_traits@D@std@@@std@@MEAAHH@Z$rtcName$3
	DD	098H
	DD	08H
	DQ	FLAT:?overflow@?$basic_filebuf@DU?$char_traits@D@std@@@std@@MEAAHH@Z$rtcName$2
	DD	078H
	DD	08H
	DQ	FLAT:?overflow@?$basic_filebuf@DU?$char_traits@D@std@@@std@@MEAAHH@Z$rtcName$1
	DD	054H
	DD	01H
	DQ	FLAT:?overflow@?$basic_filebuf@DU?$char_traits@D@std@@@std@@MEAAHH@Z$rtcName$0
	ORG $+192
?overflow@?$basic_filebuf@DU?$char_traits@D@std@@@std@@MEAAHH@Z$rtcFrameData DD 04H ; std::basic_filebuf<char,std::char_traits<char> >::overflow
	DD	00H
	DQ	FLAT:?overflow@?$basic_filebuf@DU?$char_traits@D@std@@@std@@MEAAHH@Z$rtcVarDesc
$cppxdata$?overflow@?$basic_filebuf@DU?$char_traits@D@std@@@std@@MEAAHH@Z DD 019930522H
	DD	05H
	DD	imagerel $stateUnwindMap$?overflow@?$basic_filebuf@DU?$char_traits@D@std@@@std@@MEAAHH@Z
	DD	00H
	DD	00H
	DD	015H
	DD	imagerel $ip2state$?overflow@?$basic_filebuf@DU?$char_traits@D@std@@@std@@MEAAHH@Z
	DD	0190H
	DD	00H
	DD	01H
; Function compile flags: /Odtp /RTCsu
CONST	ENDS
;	COMDAT ?overflow@?$basic_filebuf@DU?$char_traits@D@std@@@std@@MEAAHH@Z
_TEXT	SEGMENT
_STRING_INC$32564 = 64
_Ch$32565 = 84
_Src$32566 = 120
_Dest$32567 = 152
_Str$32568 = 184
_Count$32663 = 248
$T38198 = 264
$T38201 = 268
$T38202 = 272
$T38203 = 296
$T38204 = 320
$T38205 = 344
$T38206 = 352
$T38209 = 376
$T38210 = 380
$T38211 = 384
$T38212 = 388
$T38215 = 392
$T38226 = 396
$T38232 = 400
tv84 = 408
tv203 = 416
tv147 = 420
tv151 = 424
tv237 = 432
tv165 = 440
tv168 = 448
tv254 = 456
tv239 = 464
tv184 = 472
tv255 = 480
tv241 = 488
tv256 = 496
tv246 = 504
tv208 = 512
tv230 = 516
__$ArrayPad$ = 520
this$ = 544
_Meta$ = 552
?overflow@?$basic_filebuf@DU?$char_traits@D@std@@@std@@MEAAHH@Z PROC ; std::basic_filebuf<char,std::char_traits<char> >::overflow, COMDAT
; Line 322
$LN36:
	mov	DWORD PTR [rsp+16], edx
	mov	QWORD PTR [rsp+8], rcx
	push	rdi
	sub	rsp, 528				; 00000210H
	mov	rdi, rsp
	mov	ecx, 132				; 00000084H
	mov	eax, -858993460				; ccccccccH
	rep stosd
	mov	rcx, QWORD PTR [rsp+544]
	mov	QWORD PTR $T38232[rsp], -2
	mov	rax, QWORD PTR __security_cookie
	xor	rax, rsp
	mov	QWORD PTR __$ArrayPad$[rsp], rax
	mov	DWORD PTR $T38226[rsp], 0
; Line 323
	call	?eof@?$char_traits@D@std@@SAHXZ		; std::char_traits<char>::eof
	mov	DWORD PTR $T38198[rsp], eax
	lea	rdx, QWORD PTR _Meta$[rsp]
	lea	rcx, QWORD PTR $T38198[rsp]
	call	?eq_int_type@?$char_traits@D@std@@SA_NAEBH0@Z ; std::char_traits<char>::eq_int_type
	movzx	eax, al
	test	eax, eax
	je	SHORT $LN20@overflow
; Line 324
	lea	rcx, QWORD PTR _Meta$[rsp]
	call	?not_eof@?$char_traits@D@std@@SAHAEBH@Z	; std::char_traits<char>::not_eof
	jmp	$LN21@overflow
; Line 325
	jmp	$LN19@overflow
$LN20@overflow:
; Line 326
	mov	rcx, QWORD PTR this$[rsp]
	call	?pptr@?$basic_streambuf@DU?$char_traits@D@std@@@std@@IEBAPEADXZ ; std::basic_streambuf<char,std::char_traits<char> >::pptr
	test	rax, rax
	je	SHORT $LN18@overflow
	mov	rcx, QWORD PTR this$[rsp]
	call	?pptr@?$basic_streambuf@DU?$char_traits@D@std@@@std@@IEBAPEADXZ ; std::basic_streambuf<char,std::char_traits<char> >::pptr
	mov	QWORD PTR tv84[rsp], rax
	mov	rcx, QWORD PTR this$[rsp]
	call	?epptr@?$basic_streambuf@DU?$char_traits@D@std@@@std@@IEBAPEADXZ ; std::basic_streambuf<char,std::char_traits<char> >::epptr
	mov	rcx, QWORD PTR tv84[rsp]
	cmp	rcx, rax
	jae	SHORT $LN18@overflow
; Line 328
	lea	rcx, QWORD PTR _Meta$[rsp]
	call	?to_char_type@?$char_traits@D@std@@SADAEBH@Z ; std::char_traits<char>::to_char_type
	mov	BYTE PTR tv203[rsp], al
	mov	rcx, QWORD PTR this$[rsp]
	call	?_Pninc@?$basic_streambuf@DU?$char_traits@D@std@@@std@@IEAAPEADXZ ; std::basic_streambuf<char,std::char_traits<char> >::_Pninc
	movzx	ecx, BYTE PTR tv203[rsp]
	mov	BYTE PTR [rax], cl
; Line 329
	mov	eax, DWORD PTR _Meta$[rsp]
	jmp	$LN21@overflow
	jmp	SHORT $LN19@overflow
$LN18@overflow:
; Line 331
	mov	rax, QWORD PTR this$[rsp]
	cmp	QWORD PTR [rax+152], 0
	jne	SHORT $LN19@overflow
; Line 332
	call	?eof@?$char_traits@D@std@@SAHXZ		; std::char_traits<char>::eof
	jmp	$LN21@overflow
$LN19@overflow:
; Line 333
	mov	rcx, QWORD PTR this$[rsp]
	call	?_Reset_back@?$basic_filebuf@DU?$char_traits@D@std@@@std@@AEAAXXZ ; std::basic_filebuf<char,std::char_traits<char> >::_Reset_back
; Line 334
	mov	rax, QWORD PTR this$[rsp]
	cmp	QWORD PTR [rax+128], 0
	jne	SHORT $LN15@overflow
; Line 336
	lea	rcx, QWORD PTR _Meta$[rsp]
	call	?to_char_type@?$char_traits@D@std@@SADAEBH@Z ; std::char_traits<char>::to_char_type
	mov	rcx, QWORD PTR this$[rsp]
	mov	rdx, QWORD PTR [rcx+152]
	movzx	ecx, al
	call	??$_Fputc@D@std@@YA_NDPEAU_iobuf@@@Z	; std::_Fputc<char>
	movzx	eax, al
	test	eax, eax
	je	SHORT $LN23@overflow
	mov	eax, DWORD PTR _Meta$[rsp]
	mov	DWORD PTR tv147[rsp], eax
	jmp	SHORT $LN24@overflow
$LN23@overflow:
	call	?eof@?$char_traits@D@std@@SAHXZ		; std::char_traits<char>::eof
	mov	DWORD PTR tv147[rsp], eax
$LN24@overflow:
	mov	eax, DWORD PTR tv147[rsp]
	jmp	$LN21@overflow
; Line 337
	jmp	$LN21@overflow
$LN15@overflow:
; Line 339
	mov	DWORD PTR _STRING_INC$32564[rsp], 8
; Line 340
	lea	rcx, QWORD PTR _Meta$[rsp]
	call	?to_char_type@?$char_traits@D@std@@SADAEBH@Z ; std::char_traits<char>::to_char_type
	mov	BYTE PTR _Ch$32565[rsp], al
; Line 344
	xor	r8d, r8d
	mov	edx, 8
	lea	rcx, QWORD PTR _Str$32568[rsp]
	call	??0?$basic_string@DU?$char_traits@D@std@@V?$allocator@D@2@@std@@QEAA@_KD@Z ; std::basic_string<char,std::char_traits<char>,std::allocator<char> >::basic_string<char,std::char_traits<char>,std::allocator<char> >
	npad	1
$LN13@overflow:
; Line 348
	lea	rdx, QWORD PTR $T38202[rsp]
	lea	rcx, QWORD PTR _Str$32568[rsp]
	call	?begin@?$basic_string@DU?$char_traits@D@std@@V?$allocator@D@2@@std@@QEAA?AV?$_String_iterator@DU?$char_traits@D@std@@V?$allocator@D@2@@2@XZ ; std::basic_string<char,std::char_traits<char>,std::allocator<char> >::begin
	mov	QWORD PTR tv151[rsp], rax
	mov	rax, QWORD PTR tv151[rsp]
	mov	QWORD PTR tv237[rsp], rax
	mov	rcx, QWORD PTR tv237[rsp]
	call	??D?$_String_iterator@DU?$char_traits@D@std@@V?$allocator@D@2@@std@@QEBAAEADXZ ; std::_String_iterator<char,std::char_traits<char>,std::allocator<char> >::operator*
	mov	QWORD PTR tv165[rsp], rax
	lea	rcx, QWORD PTR _Str$32568[rsp]
	call	?size@?$basic_string@DU?$char_traits@D@std@@V?$allocator@D@2@@std@@QEBA_KXZ ; std::basic_string<char,std::char_traits<char>,std::allocator<char> >::size
	mov	rcx, QWORD PTR tv165[rsp]
	add	rcx, rax
	mov	rax, rcx
	mov	QWORD PTR tv168[rsp], rax
	lea	rdx, QWORD PTR $T38203[rsp]
	lea	rcx, QWORD PTR _Str$32568[rsp]
	call	?begin@?$basic_string@DU?$char_traits@D@std@@V?$allocator@D@2@@std@@QEAA?AV?$_String_iterator@DU?$char_traits@D@std@@V?$allocator@D@2@@2@XZ ; std::basic_string<char,std::char_traits<char>,std::allocator<char> >::begin
	mov	QWORD PTR tv254[rsp], rax
	mov	rax, QWORD PTR tv254[rsp]
	mov	QWORD PTR tv239[rsp], rax
	mov	rcx, QWORD PTR tv239[rsp]
	call	??D?$_String_iterator@DU?$char_traits@D@std@@V?$allocator@D@2@@std@@QEBAAEADXZ ; std::_String_iterator<char,std::char_traits<char>,std::allocator<char> >::operator*
	lea	rcx, QWORD PTR _Ch$32565[rsp+1]
	mov	rdx, QWORD PTR this$[rsp]
	add	rdx, 140				; 0000008cH
	lea	r8, QWORD PTR _Dest$32567[rsp]
	mov	QWORD PTR [rsp+56], r8
	mov	r8, QWORD PTR tv168[rsp]
	mov	QWORD PTR [rsp+48], r8
	mov	QWORD PTR [rsp+40], rax
	lea	rax, QWORD PTR _Src$32566[rsp]
	mov	QWORD PTR [rsp+32], rax
	mov	r9, rcx
	lea	r8, QWORD PTR _Ch$32565[rsp]
	mov	rax, QWORD PTR this$[rsp]
	mov	rcx, QWORD PTR [rax+128]
	call	?out@?$codecvt@DDH@std@@QEBAHAEAHPEBD1AEAPEBDPEAD3AEAPEAD@Z ; std::codecvt<char,char,int>::out
	mov	DWORD PTR $T38201[rsp], eax
	lea	rcx, QWORD PTR $T38203[rsp]
	call	??1?$_String_iterator@DU?$char_traits@D@std@@V?$allocator@D@2@@std@@QEAA@XZ
	npad	1
	lea	rcx, QWORD PTR $T38202[rsp]
	call	??1?$_String_iterator@DU?$char_traits@D@std@@V?$allocator@D@2@@std@@QEAA@XZ
	mov	eax, DWORD PTR $T38201[rsp]
	mov	DWORD PTR tv184[rsp], eax
	cmp	DWORD PTR tv184[rsp], 0
	jl	$LN1@overflow
	cmp	DWORD PTR tv184[rsp], 1
	jle	SHORT $LN9@overflow
	cmp	DWORD PTR tv184[rsp], 3
	je	$LN2@overflow
	jmp	$LN1@overflow
$LN9@overflow:
; Line 353
	lea	rdx, QWORD PTR $T38204[rsp]
	lea	rcx, QWORD PTR _Str$32568[rsp]
	call	?begin@?$basic_string@DU?$char_traits@D@std@@V?$allocator@D@2@@std@@QEAA?AV?$_String_iterator@DU?$char_traits@D@std@@V?$allocator@D@2@@2@XZ ; std::basic_string<char,std::char_traits<char>,std::allocator<char> >::begin
	mov	QWORD PTR tv255[rsp], rax
	mov	rax, QWORD PTR tv255[rsp]
	mov	QWORD PTR tv241[rsp], rax
	mov	rcx, QWORD PTR tv241[rsp]
	call	??D?$_String_iterator@DU?$char_traits@D@std@@V?$allocator@D@2@@std@@QEBAAEADXZ ; std::_String_iterator<char,std::char_traits<char>,std::allocator<char> >::operator*
	mov	rcx, QWORD PTR _Dest$32567[rsp]
	sub	rcx, rax
	mov	rax, rcx
	mov	QWORD PTR _Count$32663[rsp], rax
	lea	rcx, QWORD PTR $T38204[rsp]
	call	??1?$_String_iterator@DU?$char_traits@D@std@@V?$allocator@D@2@@std@@QEAA@XZ
; Line 355
	cmp	QWORD PTR _Count$32663[rsp], 0
	jbe	$LN25@overflow
	lea	rdx, QWORD PTR $T38206[rsp]
	lea	rcx, QWORD PTR _Str$32568[rsp]
	call	?begin@?$basic_string@DU?$char_traits@D@std@@V?$allocator@D@2@@std@@QEAA?AV?$_String_iterator@DU?$char_traits@D@std@@V?$allocator@D@2@@2@XZ ; std::basic_string<char,std::char_traits<char>,std::allocator<char> >::begin
	mov	QWORD PTR tv256[rsp], rax
	mov	rax, QWORD PTR tv256[rsp]
	mov	QWORD PTR tv246[rsp], rax
	mov	eax, DWORD PTR $T38226[rsp]
	or	eax, 1
	mov	DWORD PTR $T38226[rsp], eax
	mov	rcx, QWORD PTR tv246[rsp]
	call	??D?$_String_iterator@DU?$char_traits@D@std@@V?$allocator@D@2@@std@@QEBAAEADXZ ; std::_String_iterator<char,std::char_traits<char>,std::allocator<char> >::operator*
	mov	rcx, QWORD PTR this$[rsp]
	mov	r9, QWORD PTR [rcx+152]
	mov	r8, QWORD PTR _Count$32663[rsp]
	mov	edx, 1
	mov	rcx, rax
	call	fwrite
	cmp	QWORD PTR _Count$32663[rsp], rax
	je	SHORT $LN25@overflow
	mov	DWORD PTR tv208[rsp], 1
	jmp	SHORT $LN26@overflow
$LN25@overflow:
	mov	DWORD PTR tv208[rsp], 0
$LN26@overflow:
	movzx	eax, BYTE PTR tv208[rsp]
	mov	BYTE PTR $T38205[rsp], al
	mov	eax, DWORD PTR $T38226[rsp]
	and	eax, 1
	test	eax, eax
	je	SHORT $LN35@overflow
	and	DWORD PTR $T38226[rsp], -2
	lea	rcx, QWORD PTR $T38206[rsp]
	call	??1?$_String_iterator@DU?$char_traits@D@std@@V?$allocator@D@2@@std@@QEAA@XZ
$LN35@overflow:
	movzx	eax, BYTE PTR $T38205[rsp]
	test	eax, eax
	je	SHORT $LN8@overflow
; Line 356
	call	?eof@?$char_traits@D@std@@SAHXZ		; std::char_traits<char>::eof
	mov	DWORD PTR $T38209[rsp], eax
	lea	rcx, QWORD PTR _Str$32568[rsp]
	call	??1?$basic_string@DU?$char_traits@D@std@@V?$allocator@D@2@@std@@QEAA@XZ ; std::basic_string<char,std::char_traits<char>,std::allocator<char> >::~basic_string<char,std::char_traits<char>,std::allocator<char> >
	mov	eax, DWORD PTR $T38209[rsp]
	jmp	$LN21@overflow
$LN8@overflow:
; Line 358
	mov	rax, QWORD PTR this$[rsp]
	mov	BYTE PTR [rax+137], 1
; Line 359
	lea	rax, QWORD PTR _Ch$32565[rsp]
	cmp	QWORD PTR _Src$32566[rsp], rax
	je	SHORT $LN7@overflow
; Line 360
	mov	eax, DWORD PTR _Meta$[rsp]
	mov	DWORD PTR $T38210[rsp], eax
	lea	rcx, QWORD PTR _Str$32568[rsp]
	call	??1?$basic_string@DU?$char_traits@D@std@@V?$allocator@D@2@@std@@QEAA@XZ ; std::basic_string<char,std::char_traits<char>,std::allocator<char> >::~basic_string<char,std::char_traits<char>,std::allocator<char> >
	mov	eax, DWORD PTR $T38210[rsp]
	jmp	$LN21@overflow
$LN7@overflow:
; Line 362
	cmp	QWORD PTR _Count$32663[rsp], 0
	jbe	SHORT $LN6@overflow
	jmp	SHORT $LN5@overflow
$LN6@overflow:
; Line 364
	lea	rcx, QWORD PTR _Str$32568[rsp]
	call	?size@?$basic_string@DU?$char_traits@D@std@@V?$allocator@D@2@@std@@QEBA_KXZ ; std::basic_string<char,std::char_traits<char>,std::allocator<char> >::size
	cmp	rax, 32					; 00000020H
	jae	SHORT $LN4@overflow
; Line 365
	xor	r8d, r8d
	mov	edx, 8
	lea	rcx, QWORD PTR _Str$32568[rsp]
	call	?append@?$basic_string@DU?$char_traits@D@std@@V?$allocator@D@2@@std@@QEAAAEAV12@_KD@Z ; std::basic_string<char,std::char_traits<char>,std::allocator<char> >::append
; Line 366
	jmp	SHORT $LN5@overflow
$LN4@overflow:
; Line 367
	call	?eof@?$char_traits@D@std@@SAHXZ		; std::char_traits<char>::eof
	mov	DWORD PTR $T38211[rsp], eax
	lea	rcx, QWORD PTR _Str$32568[rsp]
	call	??1?$basic_string@DU?$char_traits@D@std@@V?$allocator@D@2@@std@@QEAA@XZ ; std::basic_string<char,std::char_traits<char>,std::allocator<char> >::~basic_string<char,std::char_traits<char>,std::allocator<char> >
	mov	eax, DWORD PTR $T38211[rsp]
	jmp	$LN21@overflow
$LN5@overflow:
; Line 368
	jmp	$LN10@overflow
$LN2@overflow:
; Line 373
	mov	rax, QWORD PTR this$[rsp]
	mov	rdx, QWORD PTR [rax+152]
	movzx	ecx, BYTE PTR _Ch$32565[rsp]
	call	??$_Fputc@D@std@@YA_NDPEAU_iobuf@@@Z	; std::_Fputc<char>
	movzx	eax, al
	test	eax, eax
	je	SHORT $LN27@overflow
	mov	eax, DWORD PTR _Meta$[rsp]
	mov	DWORD PTR tv230[rsp], eax
	jmp	SHORT $LN28@overflow
$LN27@overflow:
	call	?eof@?$char_traits@D@std@@SAHXZ		; std::char_traits<char>::eof
	mov	DWORD PTR tv230[rsp], eax
$LN28@overflow:
	mov	eax, DWORD PTR tv230[rsp]
	mov	DWORD PTR $T38212[rsp], eax
	lea	rcx, QWORD PTR _Str$32568[rsp]
	call	??1?$basic_string@DU?$char_traits@D@std@@V?$allocator@D@2@@std@@QEAA@XZ ; std::basic_string<char,std::char_traits<char>,std::allocator<char> >::~basic_string<char,std::char_traits<char>,std::allocator<char> >
	mov	eax, DWORD PTR $T38212[rsp]
	jmp	SHORT $LN21@overflow
$LN1@overflow:
; Line 376
	call	?eof@?$char_traits@D@std@@SAHXZ		; std::char_traits<char>::eof
	mov	DWORD PTR $T38215[rsp], eax
	lea	rcx, QWORD PTR _Str$32568[rsp]
	call	??1?$basic_string@DU?$char_traits@D@std@@V?$allocator@D@2@@std@@QEAA@XZ ; std::basic_string<char,std::char_traits<char>,std::allocator<char> >::~basic_string<char,std::char_traits<char>,std::allocator<char> >
	mov	eax, DWORD PTR $T38215[rsp]
	jmp	SHORT $LN21@overflow
$LN10@overflow:
; Line 377
	jmp	$LN13@overflow
; Line 378
	lea	rcx, QWORD PTR _Str$32568[rsp]
	call	??1?$basic_string@DU?$char_traits@D@std@@V?$allocator@D@2@@std@@QEAA@XZ ; std::basic_string<char,std::char_traits<char>,std::allocator<char> >::~basic_string<char,std::char_traits<char>,std::allocator<char> >
	npad	1
$LN21@overflow:
; Line 379
	mov	rdi, rax
	mov	rcx, rsp
	lea	rdx, OFFSET FLAT:?overflow@?$basic_filebuf@DU?$char_traits@D@std@@@std@@MEAAHH@Z$rtcFrameData
	call	_RTC_CheckStackVars
	mov	rax, rdi
	mov	rcx, QWORD PTR __$ArrayPad$[rsp]
	xor	rcx, rsp
	call	__security_check_cookie
	add	rsp, 528				; 00000210H
	pop	rdi
	ret	0
?overflow@?$basic_filebuf@DU?$char_traits@D@std@@@std@@MEAAHH@Z ENDP ; std::basic_filebuf<char,std::char_traits<char> >::overflow
; Function compile flags: /Odtp /RTCsu
_TEXT	ENDS
;	COMDAT text$x
text$x	SEGMENT
_STRING_INC$32564 = 64
_Ch$32565 = 84
_Src$32566 = 120
_Dest$32567 = 152
_Str$32568 = 184
_Count$32663 = 248
$T38198 = 264
$T38201 = 268
$T38202 = 272
$T38203 = 296
$T38204 = 320
$T38205 = 344
$T38206 = 352
$T38209 = 376
$T38210 = 380
$T38211 = 384
$T38212 = 388
$T38215 = 392
$T38226 = 396
$T38232 = 400
tv84 = 408
tv203 = 416
tv147 = 420
tv151 = 424
tv237 = 432
tv165 = 440
tv168 = 448
tv254 = 456
tv239 = 464
tv184 = 472
tv255 = 480
tv241 = 488
tv256 = 496
tv246 = 504
tv208 = 512
tv230 = 516
__$ArrayPad$ = 520
this$ = 544
_Meta$ = 552
?dtor$0@?0??overflow@?$basic_filebuf@DU?$char_traits@D@std@@@std@@MEAAHH@Z@4HA PROC ; `std::basic_filebuf<char,std::char_traits<char> >::overflow'::`1'::dtor$0
	mov	QWORD PTR [rsp+8], rcx
	mov	QWORD PTR [rsp+16], rdx
	push	rbp
	push	rdi
	sub	rsp, 40					; 00000028H
	mov	rbp, rdx
	lea	rcx, QWORD PTR _Str$32568[rbp]
	call	??1?$basic_string@DU?$char_traits@D@std@@V?$allocator@D@2@@std@@QEAA@XZ ; std::basic_string<char,std::char_traits<char>,std::allocator<char> >::~basic_string<char,std::char_traits<char>,std::allocator<char> >
	add	rsp, 40					; 00000028H
	pop	rdi
	pop	rbp
	ret	0
?dtor$0@?0??overflow@?$basic_filebuf@DU?$char_traits@D@std@@@std@@MEAAHH@Z@4HA ENDP ; `std::basic_filebuf<char,std::char_traits<char> >::overflow'::`1'::dtor$0
; Function compile flags: /Odtp /RTCsu
_STRING_INC$32564 = 64
_Ch$32565 = 84
_Src$32566 = 120
_Dest$32567 = 152
_Str$32568 = 184
_Count$32663 = 248
$T38198 = 264
$T38201 = 268
$T38202 = 272
$T38203 = 296
$T38204 = 320
$T38205 = 344
$T38206 = 352
$T38209 = 376
$T38210 = 380
$T38211 = 384
$T38212 = 388
$T38215 = 392
$T38226 = 396
$T38232 = 400
tv84 = 408
tv203 = 416
tv147 = 420
tv151 = 424
tv237 = 432
tv165 = 440
tv168 = 448
tv254 = 456
tv239 = 464
tv184 = 472
tv255 = 480
tv241 = 488
tv256 = 496
tv246 = 504
tv208 = 512
tv230 = 516
__$ArrayPad$ = 520
this$ = 544
_Meta$ = 552
?dtor$1@?0??overflow@?$basic_filebuf@DU?$char_traits@D@std@@@std@@MEAAHH@Z@4HA PROC ; `std::basic_filebuf<char,std::char_traits<char> >::overflow'::`1'::dtor$1
	mov	QWORD PTR [rsp+8], rcx
	mov	QWORD PTR [rsp+16], rdx
	push	rbp
	push	rdi
	sub	rsp, 40					; 00000028H
	mov	rbp, rdx
	lea	rcx, QWORD PTR $T38202[rbp]
	call	??1?$_String_iterator@DU?$char_traits@D@std@@V?$allocator@D@2@@std@@QEAA@XZ
	add	rsp, 40					; 00000028H
	pop	rdi
	pop	rbp
	ret	0
?dtor$1@?0??overflow@?$basic_filebuf@DU?$char_traits@D@std@@@std@@MEAAHH@Z@4HA ENDP ; `std::basic_filebuf<char,std::char_traits<char> >::overflow'::`1'::dtor$1
; Function compile flags: /Odtp /RTCsu
_STRING_INC$32564 = 64
_Ch$32565 = 84
_Src$32566 = 120
_Dest$32567 = 152
_Str$32568 = 184
_Count$32663 = 248
$T38198 = 264
$T38201 = 268
$T38202 = 272
$T38203 = 296
$T38204 = 320
$T38205 = 344
$T38206 = 352
$T38209 = 376
$T38210 = 380
$T38211 = 384
$T38212 = 388
$T38215 = 392
$T38226 = 396
$T38232 = 400
tv84 = 408
tv203 = 416
tv147 = 420
tv151 = 424
tv237 = 432
tv165 = 440
tv168 = 448
tv254 = 456
tv239 = 464
tv184 = 472
tv255 = 480
tv241 = 488
tv256 = 496
tv246 = 504
tv208 = 512
tv230 = 516
__$ArrayPad$ = 520
this$ = 544
_Meta$ = 552
?dtor$2@?0??overflow@?$basic_filebuf@DU?$char_traits@D@std@@@std@@MEAAHH@Z@4HA PROC ; `std::basic_filebuf<char,std::char_traits<char> >::overflow'::`1'::dtor$2
	mov	QWORD PTR [rsp+8], rcx
	mov	QWORD PTR [rsp+16], rdx
	push	rbp
	push	rdi
	sub	rsp, 40					; 00000028H
	mov	rbp, rdx
	lea	rcx, QWORD PTR $T38203[rbp]
	call	??1?$_String_iterator@DU?$char_traits@D@std@@V?$allocator@D@2@@std@@QEAA@XZ
	add	rsp, 40					; 00000028H
	pop	rdi
	pop	rbp
	ret	0
?dtor$2@?0??overflow@?$basic_filebuf@DU?$char_traits@D@std@@@std@@MEAAHH@Z@4HA ENDP ; `std::basic_filebuf<char,std::char_traits<char> >::overflow'::`1'::dtor$2
; Function compile flags: /Odtp /RTCsu
_STRING_INC$32564 = 64
_Ch$32565 = 84
_Src$32566 = 120
_Dest$32567 = 152
_Str$32568 = 184
_Count$32663 = 248
$T38198 = 264
$T38201 = 268
$T38202 = 272
$T38203 = 296
$T38204 = 320
$T38205 = 344
$T38206 = 352
$T38209 = 376
$T38210 = 380
$T38211 = 384
$T38212 = 388
$T38215 = 392
$T38226 = 396
$T38232 = 400
tv84 = 408
tv203 = 416
tv147 = 420
tv151 = 424
tv237 = 432
tv165 = 440
tv168 = 448
tv254 = 456
tv239 = 464
tv184 = 472
tv255 = 480
tv241 = 488
tv256 = 496
tv246 = 504
tv208 = 512
tv230 = 516
__$ArrayPad$ = 520
this$ = 544
_Meta$ = 552
?dtor$3@?0??overflow@?$basic_filebuf@DU?$char_traits@D@std@@@std@@MEAAHH@Z@4HA PROC ; `std::basic_filebuf<char,std::char_traits<char> >::overflow'::`1'::dtor$3
	mov	QWORD PTR [rsp+8], rcx
	mov	QWORD PTR [rsp+16], rdx
	push	rbp
	push	rdi
	sub	rsp, 40					; 00000028H
	mov	rbp, rdx
	lea	rcx, QWORD PTR $T38204[rbp]
	call	??1?$_String_iterator@DU?$char_traits@D@std@@V?$allocator@D@2@@std@@QEAA@XZ
	add	rsp, 40					; 00000028H
	pop	rdi
	pop	rbp
	ret	0
?dtor$3@?0??overflow@?$basic_filebuf@DU?$char_traits@D@std@@@std@@MEAAHH@Z@4HA ENDP ; `std::basic_filebuf<char,std::char_traits<char> >::overflow'::`1'::dtor$3
; Function compile flags: /Odtp /RTCsu
_STRING_INC$32564 = 64
_Ch$32565 = 84
_Src$32566 = 120
_Dest$32567 = 152
_Str$32568 = 184
_Count$32663 = 248
$T38198 = 264
$T38201 = 268
$T38202 = 272
$T38203 = 296
$T38204 = 320
$T38205 = 344
$T38206 = 352
$T38209 = 376
$T38210 = 380
$T38211 = 384
$T38212 = 388
$T38215 = 392
$T38226 = 396
$T38232 = 400
tv84 = 408
tv203 = 416
tv147 = 420
tv151 = 424
tv237 = 432
tv165 = 440
tv168 = 448
tv254 = 456
tv239 = 464
tv184 = 472
tv255 = 480
tv241 = 488
tv256 = 496
tv246 = 504
tv208 = 512
tv230 = 516
__$ArrayPad$ = 520
this$ = 544
_Meta$ = 552
?dtor$4@?0??overflow@?$basic_filebuf@DU?$char_traits@D@std@@@std@@MEAAHH@Z@4HA PROC ; `std::basic_filebuf<char,std::char_traits<char> >::overflow'::`1'::dtor$4
	mov	QWORD PTR [rsp+8], rcx
	mov	QWORD PTR [rsp+16], rdx
	push	rbp
	push	rdi
	sub	rsp, 40					; 00000028H
	mov	rbp, rdx
	mov	eax, DWORD PTR $T38226[rbp]
	and	eax, 1
	test	eax, eax
	je	SHORT $LN34@dtor$4
	and	DWORD PTR $T38226[rbp], -2
	lea	rcx, QWORD PTR $T38206[rbp]
	call	??1?$_String_iterator@DU?$char_traits@D@std@@V?$allocator@D@2@@std@@QEAA@XZ
$LN34@dtor$4:
	add	rsp, 40					; 00000028H
	pop	rdi
	pop	rbp
	ret	0
?dtor$4@?0??overflow@?$basic_filebuf@DU?$char_traits@D@std@@@std@@MEAAHH@Z@4HA ENDP ; `std::basic_filebuf<char,std::char_traits<char> >::overflow'::`1'::dtor$4
text$x	ENDS
;	COMDAT pdata
; File c:\program files (x86)\microsoft visual studio 10.0\vc\include\iosfwd
pdata	SEGMENT
$pdata$?not_eof@?$char_traits@D@std@@SAHAEBH@Z DD imagerel $LN7
	DD	imagerel $LN7+102
	DD	imagerel $unwind$?not_eof@?$char_traits@D@std@@SAHAEBH@Z
pdata	ENDS
;	COMDAT xdata
xdata	SEGMENT
$unwind$?not_eof@?$char_traits@D@std@@SAHAEBH@Z DD 021e01H
	DD	07006520aH
; Function compile flags: /Odtp /RTCsu
xdata	ENDS
;	COMDAT ?not_eof@?$char_traits@D@std@@SAHAEBH@Z
_TEXT	SEGMENT
tv69 = 32
tv68 = 36
_Meta$ = 64
?not_eof@?$char_traits@D@std@@SAHAEBH@Z PROC		; std::char_traits<char>::not_eof, COMDAT
; Line 557
$LN7:
	mov	QWORD PTR [rsp+8], rcx
	push	rdi
	sub	rsp, 48					; 00000030H
	mov	rdi, rsp
	mov	ecx, 12
	mov	eax, -858993460				; ccccccccH
	rep stosd
	mov	rcx, QWORD PTR [rsp+64]
; Line 558
	call	?eof@?$char_traits@D@std@@SAHXZ		; std::char_traits<char>::eof
	mov	rcx, QWORD PTR _Meta$[rsp]
	cmp	DWORD PTR [rcx], eax
	je	SHORT $LN5@not_eof
	mov	rax, QWORD PTR _Meta$[rsp]
	mov	eax, DWORD PTR [rax]
	mov	DWORD PTR tv69[rsp], eax
	jmp	SHORT $LN6@not_eof
$LN5@not_eof:
	call	?eof@?$char_traits@D@std@@SAHXZ		; std::char_traits<char>::eof
	test	eax, eax
	jne	SHORT $LN3@not_eof
	mov	DWORD PTR tv68[rsp], 1
	jmp	SHORT $LN4@not_eof
$LN3@not_eof:
	mov	DWORD PTR tv68[rsp], 0
$LN4@not_eof:
	mov	eax, DWORD PTR tv68[rsp]
	mov	DWORD PTR tv69[rsp], eax
$LN6@not_eof:
	mov	eax, DWORD PTR tv69[rsp]
; Line 559
	add	rsp, 48					; 00000030H
	pop	rdi
	ret	0
?not_eof@?$char_traits@D@std@@SAHAEBH@Z ENDP		; std::char_traits<char>::not_eof
_TEXT	ENDS
EXTRN	fputc:PROC
;	COMDAT pdata
; File c:\program files (x86)\microsoft visual studio 10.0\vc\include\fstream
pdata	SEGMENT
$pdata$??$_Fputc@D@std@@YA_NDPEAU_iobuf@@@Z DD imagerel $LN5
	DD	imagerel $LN5+85
	DD	imagerel $unwind$??$_Fputc@D@std@@YA_NDPEAU_iobuf@@@Z
pdata	ENDS
;	COMDAT xdata
xdata	SEGMENT
$unwind$??$_Fputc@D@std@@YA_NDPEAU_iobuf@@@Z DD 022201H
	DD	0700a520eH
; Function compile flags: /Odtp /RTCsu
xdata	ENDS
;	COMDAT ??$_Fputc@D@std@@YA_NDPEAU_iobuf@@@Z
_TEXT	SEGMENT
tv69 = 32
_Byte$ = 64
_File$ = 72
??$_Fputc@D@std@@YA_NDPEAU_iobuf@@@Z PROC		; std::_Fputc<char>, COMDAT
; Line 80
$LN5:
	mov	QWORD PTR [rsp+16], rdx
	mov	BYTE PTR [rsp+8], cl
	push	rdi
	sub	rsp, 48					; 00000030H
	mov	rdi, rsp
	mov	ecx, 12
	mov	eax, -858993460				; ccccccccH
	rep stosd
	movzx	ecx, BYTE PTR [rsp+64]
; Line 81
	movsx	eax, BYTE PTR _Byte$[rsp]
	mov	rdx, QWORD PTR _File$[rsp]
	mov	ecx, eax
	call	fputc
	cmp	eax, -1
	je	SHORT $LN3@Fputc
	mov	DWORD PTR tv69[rsp], 1
	jmp	SHORT $LN4@Fputc
$LN3@Fputc:
	mov	DWORD PTR tv69[rsp], 0
$LN4@Fputc:
	movzx	eax, BYTE PTR tv69[rsp]
; Line 82
	add	rsp, 48					; 00000030H
	pop	rdi
	ret	0
??$_Fputc@D@std@@YA_NDPEAU_iobuf@@@Z ENDP		; std::_Fputc<char>
_TEXT	ENDS
;	COMDAT pdata
; File c:\program files (x86)\microsoft visual studio 10.0\vc\include\xstring
pdata	SEGMENT
$pdata$??1?$basic_string@DU?$char_traits@D@std@@V?$allocator@D@2@@std@@QEAA@XZ DD imagerel $LN4
	DD	imagerel $LN4+71
	DD	imagerel $unwind$??1?$basic_string@DU?$char_traits@D@std@@V?$allocator@D@2@@std@@QEAA@XZ
pdata	ENDS
;	COMDAT pdata
pdata	SEGMENT
$pdata$?dtor$0@?0???1?$basic_string@DU?$char_traits@D@std@@V?$allocator@D@2@@std@@QEAA@XZ@4HA DD imagerel ?dtor$0@?0???1?$basic_string@DU?$char_traits@D@std@@V?$allocator@D@2@@std@@QEAA@XZ@4HA
	DD	imagerel ?dtor$0@?0???1?$basic_string@DU?$char_traits@D@std@@V?$allocator@D@2@@std@@QEAA@XZ@4HA+35
	DD	imagerel $unwind$?dtor$0@?0???1?$basic_string@DU?$char_traits@D@std@@V?$allocator@D@2@@std@@QEAA@XZ@4HA
pdata	ENDS
;	COMDAT xdata
xdata	SEGMENT
$ip2state$??1?$basic_string@DU?$char_traits@D@std@@V?$allocator@D@2@@std@@QEAA@XZ DD imagerel ??1?$basic_string@DU?$char_traits@D@std@@V?$allocator@D@2@@std@@QEAA@XZ
	DD	0ffffffffH
	DD	imagerel ??1?$basic_string@DU?$char_traits@D@std@@V?$allocator@D@2@@std@@QEAA@XZ+39
	DD	00H
	DD	imagerel ??1?$basic_string@DU?$char_traits@D@std@@V?$allocator@D@2@@std@@QEAA@XZ+55
	DD	0ffffffffH
xdata	ENDS
;	COMDAT xdata
xdata	SEGMENT
$unwind$?dtor$0@?0???1?$basic_string@DU?$char_traits@D@std@@V?$allocator@D@2@@std@@QEAA@XZ@4HA DD 031001H
	DD	0700c4210H
	DD	0500bH
xdata	ENDS
;	COMDAT xdata
xdata	SEGMENT
$unwind$??1?$basic_string@DU?$char_traits@D@std@@V?$allocator@D@2@@std@@QEAA@XZ DD 022711H
	DD	07006520aH
	DD	imagerel __CxxFrameHandler3
	DD	imagerel $cppxdata$??1?$basic_string@DU?$char_traits@D@std@@V?$allocator@D@2@@std@@QEAA@XZ
xdata	ENDS
;	COMDAT CONST
CONST	SEGMENT
$cppxdata$??1?$basic_string@DU?$char_traits@D@std@@V?$allocator@D@2@@std@@QEAA@XZ DD 019930522H
	DD	01H
	DD	imagerel $stateUnwindMap$??1?$basic_string@DU?$char_traits@D@std@@V?$allocator@D@2@@std@@QEAA@XZ
	DD	00H
	DD	00H
	DD	03H
	DD	imagerel $ip2state$??1?$basic_string@DU?$char_traits@D@std@@V?$allocator@D@2@@std@@QEAA@XZ
	DD	020H
	DD	00H
	DD	01H
CONST	ENDS
;	COMDAT xdata
xdata	SEGMENT
$stateUnwindMap$??1?$basic_string@DU?$char_traits@D@std@@V?$allocator@D@2@@std@@QEAA@XZ DD 0ffffffffH
	DD	imagerel ?dtor$0@?0???1?$basic_string@DU?$char_traits@D@std@@V?$allocator@D@2@@std@@QEAA@XZ@4HA
; Function compile flags: /Odtp /RTCsu
xdata	ENDS
;	COMDAT ??1?$basic_string@DU?$char_traits@D@std@@V?$allocator@D@2@@std@@QEAA@XZ
_TEXT	SEGMENT
$T38298 = 32
this$ = 64
??1?$basic_string@DU?$char_traits@D@std@@V?$allocator@D@2@@std@@QEAA@XZ PROC ; std::basic_string<char,std::char_traits<char>,std::allocator<char> >::~basic_string<char,std::char_traits<char>,std::allocator<char> >, COMDAT
; Line 752
$LN4:
	mov	QWORD PTR [rsp+8], rcx
	push	rdi
	sub	rsp, 48					; 00000030H
	mov	rdi, rsp
	mov	ecx, 12
	mov	eax, -858993460				; ccccccccH
	rep stosd
	mov	rcx, QWORD PTR [rsp+64]
	mov	QWORD PTR $T38298[rsp], -2
; Line 753
	xor	r8d, r8d
	mov	dl, 1
	mov	rcx, QWORD PTR this$[rsp]
	call	?_Tidy@?$basic_string@DU?$char_traits@D@std@@V?$allocator@D@2@@std@@QEAAX_N_K@Z ; std::basic_string<char,std::char_traits<char>,std::allocator<char> >::_Tidy
	npad	1
; Line 754
	mov	rcx, QWORD PTR this$[rsp]
	call	??1?$_String_val@DV?$allocator@D@std@@@std@@QEAA@XZ ; std::_String_val<char,std::allocator<char> >::~_String_val<char,std::allocator<char> >
	add	rsp, 48					; 00000030H
	pop	rdi
	ret	0
??1?$basic_string@DU?$char_traits@D@std@@V?$allocator@D@2@@std@@QEAA@XZ ENDP ; std::basic_string<char,std::char_traits<char>,std::allocator<char> >::~basic_string<char,std::char_traits<char>,std::allocator<char> >
; Function compile flags: /Odtp /RTCsu
_TEXT	ENDS
;	COMDAT text$x
text$x	SEGMENT
$T38298 = 32
this$ = 64
