; Listing generated by Microsoft (R) Optimizing Compiler Version 16.00.40219.01 

include listing.inc

INCLUDELIB LIBCMTD
INCLUDELIB OLDNAMES

PUBLIC	?has_denorm@_Num_base@std@@2W4float_denorm_style@2@B ; std::_Num_base::has_denorm
PUBLIC	?has_denorm_loss@_Num_base@std@@2_NB		; std::_Num_base::has_denorm_loss
PUBLIC	?has_infinity@_Num_base@std@@2_NB		; std::_Num_base::has_infinity
PUBLIC	?has_quiet_NaN@_Num_base@std@@2_NB		; std::_Num_base::has_quiet_NaN
PUBLIC	?has_signaling_NaN@_Num_base@std@@2_NB		; std::_Num_base::has_signaling_NaN
PUBLIC	?is_bounded@_Num_base@std@@2_NB			; std::_Num_base::is_bounded
PUBLIC	?is_exact@_Num_base@std@@2_NB			; std::_Num_base::is_exact
PUBLIC	?is_iec559@_Num_base@std@@2_NB			; std::_Num_base::is_iec559
PUBLIC	?is_integer@_Num_base@std@@2_NB			; std::_Num_base::is_integer
PUBLIC	?is_modulo@_Num_base@std@@2_NB			; std::_Num_base::is_modulo
PUBLIC	?is_signed@_Num_base@std@@2_NB			; std::_Num_base::is_signed
PUBLIC	?is_specialized@_Num_base@std@@2_NB		; std::_Num_base::is_specialized
PUBLIC	?tinyness_before@_Num_base@std@@2_NB		; std::_Num_base::tinyness_before
PUBLIC	?traps@_Num_base@std@@2_NB			; std::_Num_base::traps
PUBLIC	?round_style@_Num_base@std@@2W4float_round_style@2@B ; std::_Num_base::round_style
PUBLIC	?digits@_Num_base@std@@2HB			; std::_Num_base::digits
PUBLIC	?digits10@_Num_base@std@@2HB			; std::_Num_base::digits10
PUBLIC	?max_digits10@_Num_base@std@@2HB		; std::_Num_base::max_digits10
PUBLIC	?max_exponent@_Num_base@std@@2HB		; std::_Num_base::max_exponent
PUBLIC	?max_exponent10@_Num_base@std@@2HB		; std::_Num_base::max_exponent10
PUBLIC	?min_exponent@_Num_base@std@@2HB		; std::_Num_base::min_exponent
PUBLIC	?min_exponent10@_Num_base@std@@2HB		; std::_Num_base::min_exponent10
PUBLIC	?radix@_Num_base@std@@2HB			; std::_Num_base::radix
PUBLIC	?is_bounded@_Num_int_base@std@@2_NB		; std::_Num_int_base::is_bounded
PUBLIC	?is_exact@_Num_int_base@std@@2_NB		; std::_Num_int_base::is_exact
PUBLIC	?is_integer@_Num_int_base@std@@2_NB		; std::_Num_int_base::is_integer
PUBLIC	?is_modulo@_Num_int_base@std@@2_NB		; std::_Num_int_base::is_modulo
PUBLIC	?is_specialized@_Num_int_base@std@@2_NB		; std::_Num_int_base::is_specialized
PUBLIC	?radix@_Num_int_base@std@@2HB			; std::_Num_int_base::radix
PUBLIC	?has_denorm@_Num_float_base@std@@2W4float_denorm_style@2@B ; std::_Num_float_base::has_denorm
PUBLIC	?has_denorm_loss@_Num_float_base@std@@2_NB	; std::_Num_float_base::has_denorm_loss
PUBLIC	?has_infinity@_Num_float_base@std@@2_NB		; std::_Num_float_base::has_infinity
PUBLIC	?has_quiet_NaN@_Num_float_base@std@@2_NB	; std::_Num_float_base::has_quiet_NaN
PUBLIC	?has_signaling_NaN@_Num_float_base@std@@2_NB	; std::_Num_float_base::has_signaling_NaN
PUBLIC	?is_bounded@_Num_float_base@std@@2_NB		; std::_Num_float_base::is_bounded
PUBLIC	?is_exact@_Num_float_base@std@@2_NB		; std::_Num_float_base::is_exact
PUBLIC	?is_iec559@_Num_float_base@std@@2_NB		; std::_Num_float_base::is_iec559
PUBLIC	?is_integer@_Num_float_base@std@@2_NB		; std::_Num_float_base::is_integer
PUBLIC	?is_modulo@_Num_float_base@std@@2_NB		; std::_Num_float_base::is_modulo
PUBLIC	?is_signed@_Num_float_base@std@@2_NB		; std::_Num_float_base::is_signed
PUBLIC	?is_specialized@_Num_float_base@std@@2_NB	; std::_Num_float_base::is_specialized
PUBLIC	?tinyness_before@_Num_float_base@std@@2_NB	; std::_Num_float_base::tinyness_before
PUBLIC	?traps@_Num_float_base@std@@2_NB		; std::_Num_float_base::traps
PUBLIC	?round_style@_Num_float_base@std@@2W4float_round_style@2@B ; std::_Num_float_base::round_style
PUBLIC	?radix@_Num_float_base@std@@2HB			; std::_Num_float_base::radix
PUBLIC	?is_signed@?$numeric_limits@D@std@@2_NB		; std::numeric_limits<char>::is_signed
PUBLIC	?digits@?$numeric_limits@D@std@@2HB		; std::numeric_limits<char>::digits
PUBLIC	?digits10@?$numeric_limits@D@std@@2HB		; std::numeric_limits<char>::digits10
PUBLIC	?max_digits10@?$numeric_limits@D@std@@2HB	; std::numeric_limits<char>::max_digits10
PUBLIC	?is_signed@?$numeric_limits@_W@std@@2_NB	; std::numeric_limits<wchar_t>::is_signed
PUBLIC	?digits@?$numeric_limits@_W@std@@2HB		; std::numeric_limits<wchar_t>::digits
PUBLIC	?digits10@?$numeric_limits@_W@std@@2HB		; std::numeric_limits<wchar_t>::digits10
PUBLIC	?max_digits10@?$numeric_limits@_W@std@@2HB	; std::numeric_limits<wchar_t>::max_digits10
PUBLIC	?is_modulo@?$numeric_limits@_N@std@@2_NB	; std::numeric_limits<bool>::is_modulo
PUBLIC	?is_signed@?$numeric_limits@_N@std@@2_NB	; std::numeric_limits<bool>::is_signed
PUBLIC	?digits@?$numeric_limits@_N@std@@2HB		; std::numeric_limits<bool>::digits
PUBLIC	?digits10@?$numeric_limits@_N@std@@2HB		; std::numeric_limits<bool>::digits10
PUBLIC	?max_digits10@?$numeric_limits@_N@std@@2HB	; std::numeric_limits<bool>::max_digits10
PUBLIC	?is_signed@?$numeric_limits@C@std@@2_NB		; std::numeric_limits<signed char>::is_signed
PUBLIC	?digits@?$numeric_limits@C@std@@2HB		; std::numeric_limits<signed char>::digits
PUBLIC	?digits10@?$numeric_limits@C@std@@2HB		; std::numeric_limits<signed char>::digits10
PUBLIC	?max_digits10@?$numeric_limits@C@std@@2HB	; std::numeric_limits<signed char>::max_digits10
PUBLIC	?is_signed@?$numeric_limits@E@std@@2_NB		; std::numeric_limits<unsigned char>::is_signed
PUBLIC	?digits@?$numeric_limits@E@std@@2HB		; std::numeric_limits<unsigned char>::digits
PUBLIC	?digits10@?$numeric_limits@E@std@@2HB		; std::numeric_limits<unsigned char>::digits10
PUBLIC	?max_digits10@?$numeric_limits@E@std@@2HB	; std::numeric_limits<unsigned char>::max_digits10
PUBLIC	?is_signed@?$numeric_limits@F@std@@2_NB		; std::numeric_limits<short>::is_signed
PUBLIC	?digits@?$numeric_limits@F@std@@2HB		; std::numeric_limits<short>::digits
PUBLIC	?digits10@?$numeric_limits@F@std@@2HB		; std::numeric_limits<short>::digits10
PUBLIC	?max_digits10@?$numeric_limits@F@std@@2HB	; std::numeric_limits<short>::max_digits10
PUBLIC	?is_signed@?$numeric_limits@G@std@@2_NB		; std::numeric_limits<unsigned short>::is_signed
PUBLIC	?digits@?$numeric_limits@G@std@@2HB		; std::numeric_limits<unsigned short>::digits
PUBLIC	?digits10@?$numeric_limits@G@std@@2HB		; std::numeric_limits<unsigned short>::digits10
PUBLIC	?max_digits10@?$numeric_limits@G@std@@2HB	; std::numeric_limits<unsigned short>::max_digits10
PUBLIC	?is_signed@?$numeric_limits@H@std@@2_NB		; std::numeric_limits<int>::is_signed
PUBLIC	?digits@?$numeric_limits@H@std@@2HB		; std::numeric_limits<int>::digits
PUBLIC	?digits10@?$numeric_limits@H@std@@2HB		; std::numeric_limits<int>::digits10
PUBLIC	?max_digits10@?$numeric_limits@H@std@@2HB	; std::numeric_limits<int>::max_digits10
PUBLIC	?is_signed@?$numeric_limits@I@std@@2_NB		; std::numeric_limits<unsigned int>::is_signed
PUBLIC	?digits@?$numeric_limits@I@std@@2HB		; std::numeric_limits<unsigned int>::digits
PUBLIC	?digits10@?$numeric_limits@I@std@@2HB		; std::numeric_limits<unsigned int>::digits10
PUBLIC	?max_digits10@?$numeric_limits@I@std@@2HB	; std::numeric_limits<unsigned int>::max_digits10
PUBLIC	?is_signed@?$numeric_limits@J@std@@2_NB		; std::numeric_limits<long>::is_signed
PUBLIC	?digits@?$numeric_limits@J@std@@2HB		; std::numeric_limits<long>::digits
PUBLIC	?digits10@?$numeric_limits@J@std@@2HB		; std::numeric_limits<long>::digits10
PUBLIC	?max_digits10@?$numeric_limits@J@std@@2HB	; std::numeric_limits<long>::max_digits10
PUBLIC	?is_signed@?$numeric_limits@K@std@@2_NB		; std::numeric_limits<unsigned long>::is_signed
PUBLIC	?digits@?$numeric_limits@K@std@@2HB		; std::numeric_limits<unsigned long>::digits
PUBLIC	?digits10@?$numeric_limits@K@std@@2HB		; std::numeric_limits<unsigned long>::digits10
PUBLIC	?max_digits10@?$numeric_limits@K@std@@2HB	; std::numeric_limits<unsigned long>::max_digits10
PUBLIC	?is_signed@?$numeric_limits@_J@std@@2_NB	; std::numeric_limits<__int64>::is_signed
PUBLIC	?digits@?$numeric_limits@_J@std@@2HB		; std::numeric_limits<__int64>::digits
PUBLIC	?digits10@?$numeric_limits@_J@std@@2HB		; std::numeric_limits<__int64>::digits10
PUBLIC	?max_digits10@?$numeric_limits@_J@std@@2HB	; std::numeric_limits<__int64>::max_digits10
PUBLIC	?is_signed@?$numeric_limits@_K@std@@2_NB	; std::numeric_limits<unsigned __int64>::is_signed
PUBLIC	?digits@?$numeric_limits@_K@std@@2HB		; std::numeric_limits<unsigned __int64>::digits
PUBLIC	?digits10@?$numeric_limits@_K@std@@2HB		; std::numeric_limits<unsigned __int64>::digits10
PUBLIC	?max_digits10@?$numeric_limits@_K@std@@2HB	; std::numeric_limits<unsigned __int64>::max_digits10
PUBLIC	?digits@?$numeric_limits@M@std@@2HB		; std::numeric_limits<float>::digits
PUBLIC	?digits10@?$numeric_limits@M@std@@2HB		; std::numeric_limits<float>::digits10
PUBLIC	?max_digits10@?$numeric_limits@M@std@@2HB	; std::numeric_limits<float>::max_digits10
PUBLIC	?max_exponent@?$numeric_limits@M@std@@2HB	; std::numeric_limits<float>::max_exponent
PUBLIC	?max_exponent10@?$numeric_limits@M@std@@2HB	; std::numeric_limits<float>::max_exponent10
PUBLIC	?min_exponent@?$numeric_limits@M@std@@2HB	; std::numeric_limits<float>::min_exponent
PUBLIC	?min_exponent10@?$numeric_limits@M@std@@2HB	; std::numeric_limits<float>::min_exponent10
PUBLIC	?digits@?$numeric_limits@N@std@@2HB		; std::numeric_limits<double>::digits
PUBLIC	?digits10@?$numeric_limits@N@std@@2HB		; std::numeric_limits<double>::digits10
PUBLIC	?max_digits10@?$numeric_limits@N@std@@2HB	; std::numeric_limits<double>::max_digits10
PUBLIC	?max_exponent@?$numeric_limits@N@std@@2HB	; std::numeric_limits<double>::max_exponent
PUBLIC	?max_exponent10@?$numeric_limits@N@std@@2HB	; std::numeric_limits<double>::max_exponent10
PUBLIC	?min_exponent@?$numeric_limits@N@std@@2HB	; std::numeric_limits<double>::min_exponent
PUBLIC	?min_exponent10@?$numeric_limits@N@std@@2HB	; std::numeric_limits<double>::min_exponent10
PUBLIC	?digits@?$numeric_limits@O@std@@2HB		; std::numeric_limits<long double>::digits
PUBLIC	?digits10@?$numeric_limits@O@std@@2HB		; std::numeric_limits<long double>::digits10
PUBLIC	?max_digits10@?$numeric_limits@O@std@@2HB	; std::numeric_limits<long double>::max_digits10
PUBLIC	?max_exponent@?$numeric_limits@O@std@@2HB	; std::numeric_limits<long double>::max_exponent
PUBLIC	?max_exponent10@?$numeric_limits@O@std@@2HB	; std::numeric_limits<long double>::max_exponent10
PUBLIC	?min_exponent@?$numeric_limits@O@std@@2HB	; std::numeric_limits<long double>::min_exponent
PUBLIC	?min_exponent10@?$numeric_limits@O@std@@2HB	; std::numeric_limits<long double>::min_exponent10
PUBLIC	?value@?$integral_constant@_N$0A@@tr1@std@@2_NB	; std::tr1::integral_constant<bool,0>::value
PUBLIC	?value@?$integral_constant@_N$00@tr1@std@@2_NB	; std::tr1::integral_constant<bool,1>::value
PUBLIC	?value@?$integral_constant@_K$0A@@tr1@std@@2_KB	; std::tr1::integral_constant<unsigned __int64,0>::value
PUBLIC	?_Rank@?$_Arithmetic_traits@_N@std@@2HB		; std::_Arithmetic_traits<bool>::_Rank
PUBLIC	?_Rank@?$_Arithmetic_traits@D@std@@2HB		; std::_Arithmetic_traits<char>::_Rank
PUBLIC	?_Rank@?$_Arithmetic_traits@C@std@@2HB		; std::_Arithmetic_traits<signed char>::_Rank
PUBLIC	?_Rank@?$_Arithmetic_traits@E@std@@2HB		; std::_Arithmetic_traits<unsigned char>::_Rank
PUBLIC	?_Rank@?$_Arithmetic_traits@F@std@@2HB		; std::_Arithmetic_traits<short>::_Rank
PUBLIC	?_Rank@?$_Arithmetic_traits@G@std@@2HB		; std::_Arithmetic_traits<unsigned short>::_Rank
PUBLIC	?_Rank@?$_Arithmetic_traits@H@std@@2HB		; std::_Arithmetic_traits<int>::_Rank
PUBLIC	?_Rank@?$_Arithmetic_traits@I@std@@2HB		; std::_Arithmetic_traits<unsigned int>::_Rank
PUBLIC	?_Rank@?$_Arithmetic_traits@J@std@@2HB		; std::_Arithmetic_traits<long>::_Rank
PUBLIC	?_Rank@?$_Arithmetic_traits@K@std@@2HB		; std::_Arithmetic_traits<unsigned long>::_Rank
PUBLIC	?_Rank@?$_Arithmetic_traits@_J@std@@2HB		; std::_Arithmetic_traits<__int64>::_Rank
PUBLIC	?_Rank@?$_Arithmetic_traits@_K@std@@2HB		; std::_Arithmetic_traits<unsigned __int64>::_Rank
PUBLIC	?_Rank@?$_Arithmetic_traits@M@std@@2HB		; std::_Arithmetic_traits<float>::_Rank
PUBLIC	?_Rank@?$_Arithmetic_traits@N@std@@2HB		; std::_Arithmetic_traits<double>::_Rank
PUBLIC	?_Rank@?$_Arithmetic_traits@O@std@@2HB		; std::_Arithmetic_traits<long double>::_Rank
PUBLIC	?_EEM_DS@?$deque@PEAXV?$allocator@PEAX@std@@@std@@2HB ; std::deque<void * __ptr64,std::allocator<void * __ptr64> >::_EEM_DS
CONST	SEGMENT
$SG79555 DB	'S', 00H, 'D', 00H, 'K', 00H, 'T', 00H, 'h', 00H, 'r', 00H
	DB	'e', 00H, 'a', 00H, 'd', 00H, '.', 00H, 'c', 00H, 'p', 00H, 'p'
	DB	00H, 00H, 00H
	ORG $+4
$SG79556 DB	'_', 00H, 'd', 00H, 'e', 00H, 'q', 00H, 'W', 00H, 'a', 00H
	DB	'i', 00H, 't', 00H, 'S', 00H, 'e', 00H, 't', 00H, '.', 00H, 'e'
	DB	00H, 'm', 00H, 'p', 00H, 't', 00H, 'y', 00H, '(', 00H, ')', 00H
	DB	00H, 00H
$SG79566 DB	'Problem while calling broadcast', 0aH, 00H
	ORG $+7
$SG79770 DB	'S', 00H, 'D', 00H, 'K', 00H, 'T', 00H, 'h', 00H, 'r', 00H
	DB	'e', 00H, 'a', 00H, 'd', 00H, '.', 00H, 'c', 00H, 'p', 00H, 'p'
	DB	00H, 00H, 00H
	ORG $+4
$SG79771 DB	'b', 00H, 'T', 00H, 'r', 00H, 'y', 00H, 'L', 00H, 'o', 00H
	DB	'c', 00H, 'k', 00H, 'R', 00H, 'e', 00H, 's', 00H, 'u', 00H, 'l'
	DB	00H, 't', 00H, 00H, 00H
	ORG $+2
$SG79773 DB	'S', 00H, 'D', 00H, 'K', 00H, 'T', 00H, 'h', 00H, 'r', 00H
	DB	'e', 00H, 'a', 00H, 'd', 00H, '.', 00H, 'c', 00H, 'p', 00H, 'p'
	DB	00H, 00H, 00H
	ORG $+4
$SG79774 DB	'b', 00H, 'T', 00H, 'r', 00H, 'y', 00H, 'L', 00H, 'o', 00H
	DB	'c', 00H, 'k', 00H, 'R', 00H, 'e', 00H, 's', 00H, 'u', 00H, 'l'
	DB	00H, 't', 00H, ' ', 00H, '&', 00H, '&', 00H, ' ', 00H, '0', 00H
	DB	' ', 00H, '<', 00H, ' ', 00H, '_', 00H, 'n', 00H, 'L', 00H, 'o'
	DB	00H, 'c', 00H, 'k', 00H, 'C', 00H, 'o', 00H, 'u', 00H, 'n', 00H
	DB	't', 00H, 00H, 00H
	ORG $+4
$SG79810 DB	'Bad call to function(invalid handle?)', 0aH, 00H
CONST	ENDS
;	COMDAT ?_EEM_DS@?$deque@PEAXV?$allocator@PEAX@std@@@std@@2HB
CONST	SEGMENT
?_EEM_DS@?$deque@PEAXV?$allocator@PEAX@std@@@std@@2HB DD 02H ; std::deque<void * __ptr64,std::allocator<void * __ptr64> >::_EEM_DS
CONST	ENDS
;	COMDAT ?_Rank@?$_Arithmetic_traits@O@std@@2HB
CONST	SEGMENT
?_Rank@?$_Arithmetic_traits@O@std@@2HB DD 09H		; std::_Arithmetic_traits<long double>::_Rank
CONST	ENDS
;	COMDAT ?_Rank@?$_Arithmetic_traits@N@std@@2HB
CONST	SEGMENT
?_Rank@?$_Arithmetic_traits@N@std@@2HB DD 08H		; std::_Arithmetic_traits<double>::_Rank
CONST	ENDS
;	COMDAT ?_Rank@?$_Arithmetic_traits@M@std@@2HB
CONST	SEGMENT
?_Rank@?$_Arithmetic_traits@M@std@@2HB DD 07H		; std::_Arithmetic_traits<float>::_Rank
CONST	ENDS
;	COMDAT ?_Rank@?$_Arithmetic_traits@_K@std@@2HB
CONST	SEGMENT
?_Rank@?$_Arithmetic_traits@_K@std@@2HB DD 06H		; std::_Arithmetic_traits<unsigned __int64>::_Rank
CONST	ENDS
;	COMDAT ?_Rank@?$_Arithmetic_traits@_J@std@@2HB
CONST	SEGMENT
?_Rank@?$_Arithmetic_traits@_J@std@@2HB DD 06H		; std::_Arithmetic_traits<__int64>::_Rank
CONST	ENDS
;	COMDAT ?_Rank@?$_Arithmetic_traits@K@std@@2HB
CONST	SEGMENT
?_Rank@?$_Arithmetic_traits@K@std@@2HB DD 05H		; std::_Arithmetic_traits<unsigned long>::_Rank
CONST	ENDS
;	COMDAT ?_Rank@?$_Arithmetic_traits@J@std@@2HB
CONST	SEGMENT
?_Rank@?$_Arithmetic_traits@J@std@@2HB DD 05H		; std::_Arithmetic_traits<long>::_Rank
CONST	ENDS
;	COMDAT ?_Rank@?$_Arithmetic_traits@I@std@@2HB
CONST	SEGMENT
?_Rank@?$_Arithmetic_traits@I@std@@2HB DD 04H		; std::_Arithmetic_traits<unsigned int>::_Rank
CONST	ENDS
;	COMDAT ?_Rank@?$_Arithmetic_traits@H@std@@2HB
CONST	SEGMENT
?_Rank@?$_Arithmetic_traits@H@std@@2HB DD 04H		; std::_Arithmetic_traits<int>::_Rank
CONST	ENDS
;	COMDAT ?_Rank@?$_Arithmetic_traits@G@std@@2HB
CONST	SEGMENT
?_Rank@?$_Arithmetic_traits@G@std@@2HB DD 03H		; std::_Arithmetic_traits<unsigned short>::_Rank
CONST	ENDS
;	COMDAT ?_Rank@?$_Arithmetic_traits@F@std@@2HB
CONST	SEGMENT
?_Rank@?$_Arithmetic_traits@F@std@@2HB DD 03H		; std::_Arithmetic_traits<short>::_Rank
CONST	ENDS
;	COMDAT ?_Rank@?$_Arithmetic_traits@E@std@@2HB
CONST	SEGMENT
?_Rank@?$_Arithmetic_traits@E@std@@2HB DD 02H		; std::_Arithmetic_traits<unsigned char>::_Rank
CONST	ENDS
;	COMDAT ?_Rank@?$_Arithmetic_traits@C@std@@2HB
CONST	SEGMENT
?_Rank@?$_Arithmetic_traits@C@std@@2HB DD 02H		; std::_Arithmetic_traits<signed char>::_Rank
CONST	ENDS
;	COMDAT ?_Rank@?$_Arithmetic_traits@D@std@@2HB
CONST	SEGMENT
?_Rank@?$_Arithmetic_traits@D@std@@2HB DD 02H		; std::_Arithmetic_traits<char>::_Rank
CONST	ENDS
;	COMDAT ?_Rank@?$_Arithmetic_traits@_N@std@@2HB
CONST	SEGMENT
?_Rank@?$_Arithmetic_traits@_N@std@@2HB DD 01H		; std::_Arithmetic_traits<bool>::_Rank
CONST	ENDS
;	COMDAT ?value@?$integral_constant@_K$0A@@tr1@std@@2_KB
CONST	SEGMENT
?value@?$integral_constant@_K$0A@@tr1@std@@2_KB DQ 0000000000000000H ; std::tr1::integral_constant<unsigned __int64,0>::value
CONST	ENDS
;	COMDAT ?value@?$integral_constant@_N$00@tr1@std@@2_NB
CONST	SEGMENT
?value@?$integral_constant@_N$00@tr1@std@@2_NB DB 01H	; std::tr1::integral_constant<bool,1>::value
CONST	ENDS
;	COMDAT ?value@?$integral_constant@_N$0A@@tr1@std@@2_NB
CONST	SEGMENT
?value@?$integral_constant@_N$0A@@tr1@std@@2_NB DB 00H	; std::tr1::integral_constant<bool,0>::value
CONST	ENDS
;	COMDAT ?min_exponent10@?$numeric_limits@O@std@@2HB
CONST	SEGMENT
?min_exponent10@?$numeric_limits@O@std@@2HB DD 0fffffecdH ; std::numeric_limits<long double>::min_exponent10
CONST	ENDS
;	COMDAT ?min_exponent@?$numeric_limits@O@std@@2HB
CONST	SEGMENT
?min_exponent@?$numeric_limits@O@std@@2HB DD 0fffffc03H	; std::numeric_limits<long double>::min_exponent
CONST	ENDS
;	COMDAT ?max_exponent10@?$numeric_limits@O@std@@2HB
CONST	SEGMENT
?max_exponent10@?$numeric_limits@O@std@@2HB DD 0134H	; std::numeric_limits<long double>::max_exponent10
CONST	ENDS
;	COMDAT ?max_exponent@?$numeric_limits@O@std@@2HB
CONST	SEGMENT
?max_exponent@?$numeric_limits@O@std@@2HB DD 0400H	; std::numeric_limits<long double>::max_exponent
CONST	ENDS
;	COMDAT ?max_digits10@?$numeric_limits@O@std@@2HB
CONST	SEGMENT
?max_digits10@?$numeric_limits@O@std@@2HB DD 011H	; std::numeric_limits<long double>::max_digits10
CONST	ENDS
;	COMDAT ?digits10@?$numeric_limits@O@std@@2HB
CONST	SEGMENT
?digits10@?$numeric_limits@O@std@@2HB DD 0fH		; std::numeric_limits<long double>::digits10
CONST	ENDS
;	COMDAT ?digits@?$numeric_limits@O@std@@2HB
CONST	SEGMENT
?digits@?$numeric_limits@O@std@@2HB DD 035H		; std::numeric_limits<long double>::digits
CONST	ENDS
;	COMDAT ?min_exponent10@?$numeric_limits@N@std@@2HB
CONST	SEGMENT
?min_exponent10@?$numeric_limits@N@std@@2HB DD 0fffffecdH ; std::numeric_limits<double>::min_exponent10
CONST	ENDS
;	COMDAT ?min_exponent@?$numeric_limits@N@std@@2HB
CONST	SEGMENT
?min_exponent@?$numeric_limits@N@std@@2HB DD 0fffffc03H	; std::numeric_limits<double>::min_exponent
CONST	ENDS
;	COMDAT ?max_exponent10@?$numeric_limits@N@std@@2HB
CONST	SEGMENT
?max_exponent10@?$numeric_limits@N@std@@2HB DD 0134H	; std::numeric_limits<double>::max_exponent10
CONST	ENDS
;	COMDAT ?max_exponent@?$numeric_limits@N@std@@2HB
CONST	SEGMENT
?max_exponent@?$numeric_limits@N@std@@2HB DD 0400H	; std::numeric_limits<double>::max_exponent
CONST	ENDS
;	COMDAT ?max_digits10@?$numeric_limits@N@std@@2HB
CONST	SEGMENT
?max_digits10@?$numeric_limits@N@std@@2HB DD 011H	; std::numeric_limits<double>::max_digits10
CONST	ENDS
;	COMDAT ?digits10@?$numeric_limits@N@std@@2HB
CONST	SEGMENT
?digits10@?$numeric_limits@N@std@@2HB DD 0fH		; std::numeric_limits<double>::digits10
CONST	ENDS
;	COMDAT ?digits@?$numeric_limits@N@std@@2HB
CONST	SEGMENT
?digits@?$numeric_limits@N@std@@2HB DD 035H		; std::numeric_limits<double>::digits
CONST	ENDS
;	COMDAT ?min_exponent10@?$numeric_limits@M@std@@2HB
CONST	SEGMENT
?min_exponent10@?$numeric_limits@M@std@@2HB DD 0ffffffdbH ; std::numeric_limits<float>::min_exponent10
CONST	ENDS
;	COMDAT ?min_exponent@?$numeric_limits@M@std@@2HB
CONST	SEGMENT
?min_exponent@?$numeric_limits@M@std@@2HB DD 0ffffff83H	; std::numeric_limits<float>::min_exponent
CONST	ENDS
;	COMDAT ?max_exponent10@?$numeric_limits@M@std@@2HB
CONST	SEGMENT
?max_exponent10@?$numeric_limits@M@std@@2HB DD 026H	; std::numeric_limits<float>::max_exponent10
CONST	ENDS
;	COMDAT ?max_exponent@?$numeric_limits@M@std@@2HB
CONST	SEGMENT
?max_exponent@?$numeric_limits@M@std@@2HB DD 080H	; std::numeric_limits<float>::max_exponent
CONST	ENDS
;	COMDAT ?max_digits10@?$numeric_limits@M@std@@2HB
CONST	SEGMENT
?max_digits10@?$numeric_limits@M@std@@2HB DD 08H	; std::numeric_limits<float>::max_digits10
CONST	ENDS
;	COMDAT ?digits10@?$numeric_limits@M@std@@2HB
CONST	SEGMENT
?digits10@?$numeric_limits@M@std@@2HB DD 06H		; std::numeric_limits<float>::digits10
CONST	ENDS
;	COMDAT ?digits@?$numeric_limits@M@std@@2HB
CONST	SEGMENT
?digits@?$numeric_limits@M@std@@2HB DD 018H		; std::numeric_limits<float>::digits
CONST	ENDS
;	COMDAT ?max_digits10@?$numeric_limits@_K@std@@2HB
CONST	SEGMENT
?max_digits10@?$numeric_limits@_K@std@@2HB DD 015H	; std::numeric_limits<unsigned __int64>::max_digits10
CONST	ENDS
;	COMDAT ?digits10@?$numeric_limits@_K@std@@2HB
CONST	SEGMENT
?digits10@?$numeric_limits@_K@std@@2HB DD 013H		; std::numeric_limits<unsigned __int64>::digits10
CONST	ENDS
;	COMDAT ?digits@?$numeric_limits@_K@std@@2HB
CONST	SEGMENT
?digits@?$numeric_limits@_K@std@@2HB DD 040H		; std::numeric_limits<unsigned __int64>::digits
CONST	ENDS
;	COMDAT ?is_signed@?$numeric_limits@_K@std@@2_NB
CONST	SEGMENT
?is_signed@?$numeric_limits@_K@std@@2_NB DB 00H		; std::numeric_limits<unsigned __int64>::is_signed
CONST	ENDS
;	COMDAT ?max_digits10@?$numeric_limits@_J@std@@2HB
CONST	SEGMENT
?max_digits10@?$numeric_limits@_J@std@@2HB DD 014H	; std::numeric_limits<__int64>::max_digits10
CONST	ENDS
;	COMDAT ?digits10@?$numeric_limits@_J@std@@2HB
CONST	SEGMENT
?digits10@?$numeric_limits@_J@std@@2HB DD 012H		; std::numeric_limits<__int64>::digits10
CONST	ENDS
;	COMDAT ?digits@?$numeric_limits@_J@std@@2HB
CONST	SEGMENT
?digits@?$numeric_limits@_J@std@@2HB DD 03fH		; std::numeric_limits<__int64>::digits
CONST	ENDS
;	COMDAT ?is_signed@?$numeric_limits@_J@std@@2_NB
CONST	SEGMENT
?is_signed@?$numeric_limits@_J@std@@2_NB DB 01H		; std::numeric_limits<__int64>::is_signed
CONST	ENDS
;	COMDAT ?max_digits10@?$numeric_limits@K@std@@2HB
CONST	SEGMENT
?max_digits10@?$numeric_limits@K@std@@2HB DD 0bH	; std::numeric_limits<unsigned long>::max_digits10
CONST	ENDS
;	COMDAT ?digits10@?$numeric_limits@K@std@@2HB
CONST	SEGMENT
?digits10@?$numeric_limits@K@std@@2HB DD 09H		; std::numeric_limits<unsigned long>::digits10
CONST	ENDS
;	COMDAT ?digits@?$numeric_limits@K@std@@2HB
CONST	SEGMENT
?digits@?$numeric_limits@K@std@@2HB DD 020H		; std::numeric_limits<unsigned long>::digits
CONST	ENDS
;	COMDAT ?is_signed@?$numeric_limits@K@std@@2_NB
CONST	SEGMENT
?is_signed@?$numeric_limits@K@std@@2_NB DB 00H		; std::numeric_limits<unsigned long>::is_signed
CONST	ENDS
;	COMDAT ?max_digits10@?$numeric_limits@J@std@@2HB
CONST	SEGMENT
?max_digits10@?$numeric_limits@J@std@@2HB DD 0bH	; std::numeric_limits<long>::max_digits10
CONST	ENDS
;	COMDAT ?digits10@?$numeric_limits@J@std@@2HB
CONST	SEGMENT
?digits10@?$numeric_limits@J@std@@2HB DD 09H		; std::numeric_limits<long>::digits10
CONST	ENDS
;	COMDAT ?digits@?$numeric_limits@J@std@@2HB
CONST	SEGMENT
?digits@?$numeric_limits@J@std@@2HB DD 01fH		; std::numeric_limits<long>::digits
CONST	ENDS
;	COMDAT ?is_signed@?$numeric_limits@J@std@@2_NB
CONST	SEGMENT
?is_signed@?$numeric_limits@J@std@@2_NB DB 01H		; std::numeric_limits<long>::is_signed
CONST	ENDS
;	COMDAT ?max_digits10@?$numeric_limits@I@std@@2HB
CONST	SEGMENT
?max_digits10@?$numeric_limits@I@std@@2HB DD 0bH	; std::numeric_limits<unsigned int>::max_digits10
CONST	ENDS
;	COMDAT ?digits10@?$numeric_limits@I@std@@2HB
CONST	SEGMENT
?digits10@?$numeric_limits@I@std@@2HB DD 09H		; std::numeric_limits<unsigned int>::digits10
CONST	ENDS
;	COMDAT ?digits@?$numeric_limits@I@std@@2HB
CONST	SEGMENT
?digits@?$numeric_limits@I@std@@2HB DD 020H		; std::numeric_limits<unsigned int>::digits
CONST	ENDS
;	COMDAT ?is_signed@?$numeric_limits@I@std@@2_NB
CONST	SEGMENT
?is_signed@?$numeric_limits@I@std@@2_NB DB 00H		; std::numeric_limits<unsigned int>::is_signed
CONST	ENDS
;	COMDAT ?max_digits10@?$numeric_limits@H@std@@2HB
CONST	SEGMENT
?max_digits10@?$numeric_limits@H@std@@2HB DD 0bH	; std::numeric_limits<int>::max_digits10
CONST	ENDS
;	COMDAT ?digits10@?$numeric_limits@H@std@@2HB
CONST	SEGMENT
?digits10@?$numeric_limits@H@std@@2HB DD 09H		; std::numeric_limits<int>::digits10
CONST	ENDS
;	COMDAT ?digits@?$numeric_limits@H@std@@2HB
CONST	SEGMENT
?digits@?$numeric_limits@H@std@@2HB DD 01fH		; std::numeric_limits<int>::digits
CONST	ENDS
;	COMDAT ?is_signed@?$numeric_limits@H@std@@2_NB
CONST	SEGMENT
?is_signed@?$numeric_limits@H@std@@2_NB DB 01H		; std::numeric_limits<int>::is_signed
CONST	ENDS
;	COMDAT ?max_digits10@?$numeric_limits@G@std@@2HB
CONST	SEGMENT
?max_digits10@?$numeric_limits@G@std@@2HB DD 06H	; std::numeric_limits<unsigned short>::max_digits10
CONST	ENDS
;	COMDAT ?digits10@?$numeric_limits@G@std@@2HB
CONST	SEGMENT
?digits10@?$numeric_limits@G@std@@2HB DD 04H		; std::numeric_limits<unsigned short>::digits10
CONST	ENDS
;	COMDAT ?digits@?$numeric_limits@G@std@@2HB
CONST	SEGMENT
?digits@?$numeric_limits@G@std@@2HB DD 010H		; std::numeric_limits<unsigned short>::digits
CONST	ENDS
;	COMDAT ?is_signed@?$numeric_limits@G@std@@2_NB
CONST	SEGMENT
?is_signed@?$numeric_limits@G@std@@2_NB DB 00H		; std::numeric_limits<unsigned short>::is_signed
CONST	ENDS
;	COMDAT ?max_digits10@?$numeric_limits@F@std@@2HB
CONST	SEGMENT
?max_digits10@?$numeric_limits@F@std@@2HB DD 06H	; std::numeric_limits<short>::max_digits10
CONST	ENDS
;	COMDAT ?digits10@?$numeric_limits@F@std@@2HB
CONST	SEGMENT
?digits10@?$numeric_limits@F@std@@2HB DD 04H		; std::numeric_limits<short>::digits10
CONST	ENDS
;	COMDAT ?digits@?$numeric_limits@F@std@@2HB
CONST	SEGMENT
?digits@?$numeric_limits@F@std@@2HB DD 0fH		; std::numeric_limits<short>::digits
CONST	ENDS
;	COMDAT ?is_signed@?$numeric_limits@F@std@@2_NB
CONST	SEGMENT
?is_signed@?$numeric_limits@F@std@@2_NB DB 01H		; std::numeric_limits<short>::is_signed
CONST	ENDS
;	COMDAT ?max_digits10@?$numeric_limits@E@std@@2HB
CONST	SEGMENT
?max_digits10@?$numeric_limits@E@std@@2HB DD 04H	; std::numeric_limits<unsigned char>::max_digits10
CONST	ENDS
;	COMDAT ?digits10@?$numeric_limits@E@std@@2HB
CONST	SEGMENT
?digits10@?$numeric_limits@E@std@@2HB DD 02H		; std::numeric_limits<unsigned char>::digits10
CONST	ENDS
;	COMDAT ?digits@?$numeric_limits@E@std@@2HB
CONST	SEGMENT
?digits@?$numeric_limits@E@std@@2HB DD 08H		; std::numeric_limits<unsigned char>::digits
CONST	ENDS
;	COMDAT ?is_signed@?$numeric_limits@E@std@@2_NB
CONST	SEGMENT
?is_signed@?$numeric_limits@E@std@@2_NB DB 00H		; std::numeric_limits<unsigned char>::is_signed
CONST	ENDS
;	COMDAT ?max_digits10@?$numeric_limits@C@std@@2HB
CONST	SEGMENT
?max_digits10@?$numeric_limits@C@std@@2HB DD 04H	; std::numeric_limits<signed char>::max_digits10
CONST	ENDS
;	COMDAT ?digits10@?$numeric_limits@C@std@@2HB
CONST	SEGMENT
?digits10@?$numeric_limits@C@std@@2HB DD 02H		; std::numeric_limits<signed char>::digits10
CONST	ENDS
;	COMDAT ?digits@?$numeric_limits@C@std@@2HB
CONST	SEGMENT
?digits@?$numeric_limits@C@std@@2HB DD 07H		; std::numeric_limits<signed char>::digits
CONST	ENDS
;	COMDAT ?is_signed@?$numeric_limits@C@std@@2_NB
CONST	SEGMENT
?is_signed@?$numeric_limits@C@std@@2_NB DB 01H		; std::numeric_limits<signed char>::is_signed
CONST	ENDS
;	COMDAT ?max_digits10@?$numeric_limits@_N@std@@2HB
CONST	SEGMENT
?max_digits10@?$numeric_limits@_N@std@@2HB DD 00H	; std::numeric_limits<bool>::max_digits10
CONST	ENDS
;	COMDAT ?digits10@?$numeric_limits@_N@std@@2HB
CONST	SEGMENT
?digits10@?$numeric_limits@_N@std@@2HB DD 00H		; std::numeric_limits<bool>::digits10
CONST	ENDS
;	COMDAT ?digits@?$numeric_limits@_N@std@@2HB
CONST	SEGMENT
?digits@?$numeric_limits@_N@std@@2HB DD 01H		; std::numeric_limits<bool>::digits
CONST	ENDS
;	COMDAT ?is_signed@?$numeric_limits@_N@std@@2_NB
CONST	SEGMENT
?is_signed@?$numeric_limits@_N@std@@2_NB DB 00H		; std::numeric_limits<bool>::is_signed
CONST	ENDS
;	COMDAT ?is_modulo@?$numeric_limits@_N@std@@2_NB
CONST	SEGMENT
?is_modulo@?$numeric_limits@_N@std@@2_NB DB 00H		; std::numeric_limits<bool>::is_modulo
CONST	ENDS
;	COMDAT ?max_digits10@?$numeric_limits@_W@std@@2HB
CONST	SEGMENT
?max_digits10@?$numeric_limits@_W@std@@2HB DD 06H	; std::numeric_limits<wchar_t>::max_digits10
CONST	ENDS
;	COMDAT ?digits10@?$numeric_limits@_W@std@@2HB
CONST	SEGMENT
?digits10@?$numeric_limits@_W@std@@2HB DD 04H		; std::numeric_limits<wchar_t>::digits10
CONST	ENDS
;	COMDAT ?digits@?$numeric_limits@_W@std@@2HB
CONST	SEGMENT
?digits@?$numeric_limits@_W@std@@2HB DD 010H		; std::numeric_limits<wchar_t>::digits
CONST	ENDS
;	COMDAT ?is_signed@?$numeric_limits@_W@std@@2_NB
CONST	SEGMENT
?is_signed@?$numeric_limits@_W@std@@2_NB DB 00H		; std::numeric_limits<wchar_t>::is_signed
CONST	ENDS
;	COMDAT ?max_digits10@?$numeric_limits@D@std@@2HB
CONST	SEGMENT
?max_digits10@?$numeric_limits@D@std@@2HB DD 04H	; std::numeric_limits<char>::max_digits10
CONST	ENDS
;	COMDAT ?digits10@?$numeric_limits@D@std@@2HB
CONST	SEGMENT
?digits10@?$numeric_limits@D@std@@2HB DD 02H		; std::numeric_limits<char>::digits10
CONST	ENDS
;	COMDAT ?digits@?$numeric_limits@D@std@@2HB
CONST	SEGMENT
?digits@?$numeric_limits@D@std@@2HB DD 07H		; std::numeric_limits<char>::digits
CONST	ENDS
;	COMDAT ?is_signed@?$numeric_limits@D@std@@2_NB
CONST	SEGMENT
?is_signed@?$numeric_limits@D@std@@2_NB DB 01H		; std::numeric_limits<char>::is_signed
CONST	ENDS
;	COMDAT ?radix@_Num_float_base@std@@2HB
CONST	SEGMENT
?radix@_Num_float_base@std@@2HB DD 02H			; std::_Num_float_base::radix
CONST	ENDS
;	COMDAT ?round_style@_Num_float_base@std@@2W4float_round_style@2@B
CONST	SEGMENT
?round_style@_Num_float_base@std@@2W4float_round_style@2@B DD 01H ; std::_Num_float_base::round_style
CONST	ENDS
;	COMDAT ?traps@_Num_float_base@std@@2_NB
CONST	SEGMENT
?traps@_Num_float_base@std@@2_NB DB 01H			; std::_Num_float_base::traps
CONST	ENDS
;	COMDAT ?tinyness_before@_Num_float_base@std@@2_NB
CONST	SEGMENT
?tinyness_before@_Num_float_base@std@@2_NB DB 01H	; std::_Num_float_base::tinyness_before
CONST	ENDS
;	COMDAT ?is_specialized@_Num_float_base@std@@2_NB
CONST	SEGMENT
?is_specialized@_Num_float_base@std@@2_NB DB 01H	; std::_Num_float_base::is_specialized
CONST	ENDS
;	COMDAT ?is_signed@_Num_float_base@std@@2_NB
CONST	SEGMENT
?is_signed@_Num_float_base@std@@2_NB DB 01H		; std::_Num_float_base::is_signed
CONST	ENDS
;	COMDAT ?is_modulo@_Num_float_base@std@@2_NB
CONST	SEGMENT
?is_modulo@_Num_float_base@std@@2_NB DB 00H		; std::_Num_float_base::is_modulo
CONST	ENDS
;	COMDAT ?is_integer@_Num_float_base@std@@2_NB
CONST	SEGMENT
?is_integer@_Num_float_base@std@@2_NB DB 00H		; std::_Num_float_base::is_integer
CONST	ENDS
;	COMDAT ?is_iec559@_Num_float_base@std@@2_NB
CONST	SEGMENT
?is_iec559@_Num_float_base@std@@2_NB DB 01H		; std::_Num_float_base::is_iec559
CONST	ENDS
;	COMDAT ?is_exact@_Num_float_base@std@@2_NB
CONST	SEGMENT
?is_exact@_Num_float_base@std@@2_NB DB 00H		; std::_Num_float_base::is_exact
CONST	ENDS
;	COMDAT ?is_bounded@_Num_float_base@std@@2_NB
CONST	SEGMENT
?is_bounded@_Num_float_base@std@@2_NB DB 01H		; std::_Num_float_base::is_bounded
CONST	ENDS
;	COMDAT ?has_signaling_NaN@_Num_float_base@std@@2_NB
CONST	SEGMENT
?has_signaling_NaN@_Num_float_base@std@@2_NB DB 01H	; std::_Num_float_base::has_signaling_NaN
CONST	ENDS
;	COMDAT ?has_quiet_NaN@_Num_float_base@std@@2_NB
CONST	SEGMENT
?has_quiet_NaN@_Num_float_base@std@@2_NB DB 01H		; std::_Num_float_base::has_quiet_NaN
CONST	ENDS
;	COMDAT ?has_infinity@_Num_float_base@std@@2_NB
CONST	SEGMENT
?has_infinity@_Num_float_base@std@@2_NB DB 01H		; std::_Num_float_base::has_infinity
CONST	ENDS
;	COMDAT ?has_denorm_loss@_Num_float_base@std@@2_NB
CONST	SEGMENT
?has_denorm_loss@_Num_float_base@std@@2_NB DB 01H	; std::_Num_float_base::has_denorm_loss
CONST	ENDS
;	COMDAT ?has_denorm@_Num_float_base@std@@2W4float_denorm_style@2@B
CONST	SEGMENT
?has_denorm@_Num_float_base@std@@2W4float_denorm_style@2@B DD 01H ; std::_Num_float_base::has_denorm
CONST	ENDS
;	COMDAT ?radix@_Num_int_base@std@@2HB
CONST	SEGMENT
?radix@_Num_int_base@std@@2HB DD 02H			; std::_Num_int_base::radix
CONST	ENDS
;	COMDAT ?is_specialized@_Num_int_base@std@@2_NB
CONST	SEGMENT
?is_specialized@_Num_int_base@std@@2_NB DB 01H		; std::_Num_int_base::is_specialized
CONST	ENDS
;	COMDAT ?is_modulo@_Num_int_base@std@@2_NB
CONST	SEGMENT
?is_modulo@_Num_int_base@std@@2_NB DB 01H		; std::_Num_int_base::is_modulo
CONST	ENDS
;	COMDAT ?is_integer@_Num_int_base@std@@2_NB
CONST	SEGMENT
?is_integer@_Num_int_base@std@@2_NB DB 01H		; std::_Num_int_base::is_integer
CONST	ENDS
;	COMDAT ?is_exact@_Num_int_base@std@@2_NB
CONST	SEGMENT
?is_exact@_Num_int_base@std@@2_NB DB 01H		; std::_Num_int_base::is_exact
CONST	ENDS
;	COMDAT ?is_bounded@_Num_int_base@std@@2_NB
CONST	SEGMENT
?is_bounded@_Num_int_base@std@@2_NB DB 01H		; std::_Num_int_base::is_bounded
CONST	ENDS
;	COMDAT ?radix@_Num_base@std@@2HB
CONST	SEGMENT
?radix@_Num_base@std@@2HB DD 00H			; std::_Num_base::radix
CONST	ENDS
;	COMDAT ?min_exponent10@_Num_base@std@@2HB
CONST	SEGMENT
?min_exponent10@_Num_base@std@@2HB DD 00H		; std::_Num_base::min_exponent10
CONST	ENDS
;	COMDAT ?min_exponent@_Num_base@std@@2HB
CONST	SEGMENT
?min_exponent@_Num_base@std@@2HB DD 00H			; std::_Num_base::min_exponent
CONST	ENDS
;	COMDAT ?max_exponent10@_Num_base@std@@2HB
CONST	SEGMENT
?max_exponent10@_Num_base@std@@2HB DD 00H		; std::_Num_base::max_exponent10
CONST	ENDS
;	COMDAT ?max_exponent@_Num_base@std@@2HB
CONST	SEGMENT
?max_exponent@_Num_base@std@@2HB DD 00H			; std::_Num_base::max_exponent
CONST	ENDS
;	COMDAT ?max_digits10@_Num_base@std@@2HB
CONST	SEGMENT
?max_digits10@_Num_base@std@@2HB DD 00H			; std::_Num_base::max_digits10
CONST	ENDS
;	COMDAT ?digits10@_Num_base@std@@2HB
CONST	SEGMENT
?digits10@_Num_base@std@@2HB DD 00H			; std::_Num_base::digits10
CONST	ENDS
;	COMDAT ?digits@_Num_base@std@@2HB
CONST	SEGMENT
?digits@_Num_base@std@@2HB DD 00H			; std::_Num_base::digits
CONST	ENDS
;	COMDAT ?round_style@_Num_base@std@@2W4float_round_style@2@B
CONST	SEGMENT
?round_style@_Num_base@std@@2W4float_round_style@2@B DD 00H ; std::_Num_base::round_style
CONST	ENDS
;	COMDAT ?traps@_Num_base@std@@2_NB
CONST	SEGMENT
?traps@_Num_base@std@@2_NB DB 00H			; std::_Num_base::traps
CONST	ENDS
;	COMDAT ?tinyness_before@_Num_base@std@@2_NB
CONST	SEGMENT
?tinyness_before@_Num_base@std@@2_NB DB 00H		; std::_Num_base::tinyness_before
CONST	ENDS
;	COMDAT ?is_specialized@_Num_base@std@@2_NB
CONST	SEGMENT
?is_specialized@_Num_base@std@@2_NB DB 00H		; std::_Num_base::is_specialized
CONST	ENDS
;	COMDAT ?is_signed@_Num_base@std@@2_NB
CONST	SEGMENT
?is_signed@_Num_base@std@@2_NB DB 00H			; std::_Num_base::is_signed
CONST	ENDS
;	COMDAT ?is_modulo@_Num_base@std@@2_NB
CONST	SEGMENT
?is_modulo@_Num_base@std@@2_NB DB 00H			; std::_Num_base::is_modulo
CONST	ENDS
;	COMDAT ?is_integer@_Num_base@std@@2_NB
CONST	SEGMENT
?is_integer@_Num_base@std@@2_NB DB 00H			; std::_Num_base::is_integer
CONST	ENDS
;	COMDAT ?is_iec559@_Num_base@std@@2_NB
CONST	SEGMENT
?is_iec559@_Num_base@std@@2_NB DB 00H			; std::_Num_base::is_iec559
CONST	ENDS
;	COMDAT ?is_exact@_Num_base@std@@2_NB
CONST	SEGMENT
?is_exact@_Num_base@std@@2_NB DB 00H			; std::_Num_base::is_exact
CONST	ENDS
;	COMDAT ?is_bounded@_Num_base@std@@2_NB
CONST	SEGMENT
?is_bounded@_Num_base@std@@2_NB DB 00H			; std::_Num_base::is_bounded
CONST	ENDS
;	COMDAT ?has_signaling_NaN@_Num_base@std@@2_NB
CONST	SEGMENT
?has_signaling_NaN@_Num_base@std@@2_NB DB 00H		; std::_Num_base::has_signaling_NaN
CONST	ENDS
;	COMDAT ?has_quiet_NaN@_Num_base@std@@2_NB
CONST	SEGMENT
?has_quiet_NaN@_Num_base@std@@2_NB DB 00H		; std::_Num_base::has_quiet_NaN
CONST	ENDS
;	COMDAT ?has_infinity@_Num_base@std@@2_NB
CONST	SEGMENT
?has_infinity@_Num_base@std@@2_NB DB 00H		; std::_Num_base::has_infinity
CONST	ENDS
;	COMDAT ?has_denorm_loss@_Num_base@std@@2_NB
CONST	SEGMENT
?has_denorm_loss@_Num_base@std@@2_NB DB 00H		; std::_Num_base::has_denorm_loss
CONST	ENDS
;	COMDAT ?has_denorm@_Num_base@std@@2W4float_denorm_style@2@B
CONST	SEGMENT
?has_denorm@_Num_base@std@@2W4float_denorm_style@2@B DD 00H ; std::_Num_base::has_denorm
CONST	ENDS
PUBLIC	$T81749
PUBLIC	??4ThreadLock@streamsdk@@QEAAAEAV01@AEBV01@@Z	; streamsdk::ThreadLock::operator=
EXTRN	_RTC_Shutdown:PROC
EXTRN	_RTC_InitBase:PROC
;	COMDAT pdata
pdata	SEGMENT
$pdata$??4ThreadLock@streamsdk@@QEAAAEAV01@AEBV01@@Z DD imagerel $LN3
	DD	imagerel $LN3+86
	DD	imagerel $unwind$??4ThreadLock@streamsdk@@QEAAAEAV01@AEBV01@@Z
pdata	ENDS
;	COMDAT xdata
xdata	SEGMENT
$unwind$??4ThreadLock@streamsdk@@QEAAAEAV01@AEBV01@@Z DD 032401H
	DD	0700c6210H
	DD	0600bH
xdata	ENDS
;	COMDAT rtc$TMZ
rtc$TMZ	SEGMENT
_RTC_Shutdown.rtc$TMZ DQ FLAT:_RTC_Shutdown
rtc$TMZ	ENDS
;	COMDAT rtc$IMZ
rtc$IMZ	SEGMENT
_RTC_InitBase.rtc$IMZ DQ FLAT:_RTC_InitBase
; Function compile flags: /Odtp /RTCsu
rtc$IMZ	ENDS
;	COMDAT ??4ThreadLock@streamsdk@@QEAAAEAV01@AEBV01@@Z
_TEXT	SEGMENT
$T81749 = 0
this$ = 80
__that$ = 88
??4ThreadLock@streamsdk@@QEAAAEAV01@AEBV01@@Z PROC	; streamsdk::ThreadLock::operator=, COMDAT
$LN3:
	mov	QWORD PTR [rsp+16], rdx
	mov	QWORD PTR [rsp+8], rcx
	push	rsi
	push	rdi
	sub	rsp, 56					; 00000038H
	mov	rdi, rsp
	mov	ecx, 14
	mov	eax, -858993460				; ccccccccH
	rep stosd
	mov	rcx, QWORD PTR [rsp+80]
	lea	rax, QWORD PTR $T81749[rsp]
	mov	rdi, rax
	mov	rsi, QWORD PTR __that$[rsp]
	mov	ecx, 40					; 00000028H
	rep movsb
	lea	rax, QWORD PTR $T81749[rsp]
	mov	rdi, QWORD PTR this$[rsp]
	mov	rsi, rax
	mov	ecx, 40					; 00000028H
	rep movsb
	mov	rax, QWORD PTR this$[rsp]
	add	rsp, 56					; 00000038H
	pop	rdi
	pop	rsi
	ret	0
??4ThreadLock@streamsdk@@QEAAAEAV01@AEBV01@@Z ENDP	; streamsdk::ThreadLock::operator=
_TEXT	ENDS
PUBLIC	??4CondVar@streamsdk@@QEAAAEAV01@AEBV01@@Z	; streamsdk::CondVar::operator=
;	COMDAT pdata
pdata	SEGMENT
$pdata$??4CondVar@streamsdk@@QEAAAEAV01@AEBV01@@Z DD imagerel $LN3
	DD	imagerel $LN3+34
	DD	imagerel $unwind$??4CondVar@streamsdk@@QEAAAEAV01@AEBV01@@Z
pdata	ENDS
;	COMDAT xdata
xdata	SEGMENT
$unwind$??4CondVar@streamsdk@@QEAAAEAV01@AEBV01@@Z DD 010b01H
	DD	0700bH
; Function compile flags: /Odtp /RTCsu
xdata	ENDS
;	COMDAT ??4CondVar@streamsdk@@QEAAAEAV01@AEBV01@@Z
_TEXT	SEGMENT
this$ = 16
__that$ = 24
??4CondVar@streamsdk@@QEAAAEAV01@AEBV01@@Z PROC		; streamsdk::CondVar::operator=, COMDAT
$LN3:
	mov	QWORD PTR [rsp+16], rdx
	mov	QWORD PTR [rsp+8], rcx
	push	rdi
	mov	rax, QWORD PTR __that$[rsp]
	mov	rax, QWORD PTR [rax]
	mov	rcx, QWORD PTR this$[rsp]
	mov	QWORD PTR [rcx], rax
	mov	rax, QWORD PTR this$[rsp]
	pop	rdi
	ret	0
??4CondVar@streamsdk@@QEAAAEAV01@AEBV01@@Z ENDP		; streamsdk::CondVar::operator=
_TEXT	ENDS
PUBLIC	?getData@SDKThread@streamsdk@@QEAAPEAXXZ	; streamsdk::SDKThread::getData
;	COMDAT pdata
; File c:\development\cellct\tomographic_imaging - current\sdkutil\include\sdkthread.hpp
pdata	SEGMENT
$pdata$?getData@SDKThread@streamsdk@@QEAAPEAXXZ DD imagerel $LN3
	DD	imagerel $LN3+17
	DD	imagerel $unwind$?getData@SDKThread@streamsdk@@QEAAPEAXXZ
pdata	ENDS
;	COMDAT xdata
xdata	SEGMENT
$unwind$?getData@SDKThread@streamsdk@@QEAAPEAXXZ DD 010601H
	DD	07006H
; Function compile flags: /Odtp /RTCsu
xdata	ENDS
;	COMDAT ?getData@SDKThread@streamsdk@@QEAAPEAXXZ
_TEXT	SEGMENT
this$ = 16
?getData@SDKThread@streamsdk@@QEAAPEAXXZ PROC		; streamsdk::SDKThread::getData, COMDAT
; Line 146
$LN3:
	mov	QWORD PTR [rsp+8], rcx
	push	rdi
	mov	rax, QWORD PTR this$[rsp]
	mov	rax, QWORD PTR [rax+8]
	pop	rdi
	ret	0
?getData@SDKThread@streamsdk@@QEAAPEAXXZ ENDP		; streamsdk::SDKThread::getData
_TEXT	ENDS
PUBLIC	$T81773
PUBLIC	??4SDKThread@streamsdk@@QEAAAEAV01@AEBV01@@Z	; streamsdk::SDKThread::operator=
;	COMDAT pdata
pdata	SEGMENT
$pdata$??4SDKThread@streamsdk@@QEAAAEAV01@AEBV01@@Z DD imagerel $LN3
	DD	imagerel $LN3+86
	DD	imagerel $unwind$??4SDKThread@streamsdk@@QEAAAEAV01@AEBV01@@Z
pdata	ENDS
;	COMDAT xdata
xdata	SEGMENT
$unwind$??4SDKThread@streamsdk@@QEAAAEAV01@AEBV01@@Z DD 032401H
	DD	0700c2210H
	DD	0600bH
; Function compile flags: /Odtp /RTCsu
xdata	ENDS
;	COMDAT ??4SDKThread@streamsdk@@QEAAAEAV01@AEBV01@@Z
_TEXT	SEGMENT
$T81773 = 0
this$ = 48
__that$ = 56
??4SDKThread@streamsdk@@QEAAAEAV01@AEBV01@@Z PROC	; streamsdk::SDKThread::operator=, COMDAT
$LN3:
	mov	QWORD PTR [rsp+16], rdx
	mov	QWORD PTR [rsp+8], rcx
	push	rsi
	push	rdi
	sub	rsp, 24
	mov	rdi, rsp
	mov	ecx, 6
	mov	eax, -858993460				; ccccccccH
	rep stosd
	mov	rcx, QWORD PTR [rsp+48]
	lea	rax, QWORD PTR $T81773[rsp]
	mov	rdi, rax
	mov	rsi, QWORD PTR __that$[rsp]
	mov	ecx, 16
	rep movsb
	lea	rax, QWORD PTR $T81773[rsp]
	mov	rdi, QWORD PTR this$[rsp]
	mov	rsi, rax
	mov	ecx, 16
	rep movsb
	mov	rax, QWORD PTR this$[rsp]
	add	rsp, 24
	pop	rdi
	pop	rsi
	ret	0
??4SDKThread@streamsdk@@QEAAAEAV01@AEBV01@@Z ENDP	; streamsdk::SDKThread::operator=
_TEXT	ENDS
PUBLIC	?win32ThreadFunc@streamsdk@@YAIPEAX@Z		; streamsdk::win32ThreadFunc
EXTRN	??3@YAXPEAX@Z:PROC				; operator delete
pdata	SEGMENT
$pdata$?win32ThreadFunc@streamsdk@@YAIPEAX@Z DD imagerel $LN3
	DD	imagerel $LN3+102
	DD	imagerel $unwind$?win32ThreadFunc@streamsdk@@YAIPEAX@Z
pdata	ENDS
xdata	SEGMENT
$unwind$?win32ThreadFunc@streamsdk@@YAIPEAX@Z DD 021e01H
	DD	07006720aH
; Function compile flags: /Odtp /RTCsu
xdata	ENDS
_TEXT	SEGMENT
ptr$ = 32
obj$ = 40
$T81781 = 48
args$ = 80
?win32ThreadFunc@streamsdk@@YAIPEAX@Z PROC		; streamsdk::win32ThreadFunc
; File c:\development\cellct\tomographic_imaging - current\sdkutil\sdkthread.cpp
; Line 38
$LN3:
	mov	QWORD PTR [rsp+8], rcx
	push	rdi
	sub	rsp, 64					; 00000040H
	mov	rdi, rsp
	mov	ecx, 16
	mov	eax, -858993460				; ccccccccH
	rep stosd
	mov	rcx, QWORD PTR [rsp+80]
; Line 39
	mov	rax, QWORD PTR args$[rsp]
	mov	QWORD PTR ptr$[rsp], rax
; Line 40
	mov	rax, QWORD PTR ptr$[rsp]
	mov	rax, QWORD PTR [rax+8]
	mov	QWORD PTR obj$[rsp], rax
; Line 41
	mov	rcx, QWORD PTR obj$[rsp]
	call	?getData@SDKThread@streamsdk@@QEAAPEAXXZ ; streamsdk::SDKThread::getData
	mov	rcx, rax
	mov	rax, QWORD PTR ptr$[rsp]
	call	QWORD PTR [rax]
; Line 42
	mov	rax, QWORD PTR args$[rsp]
	mov	QWORD PTR $T81781[rsp], rax
	mov	rcx, QWORD PTR $T81781[rsp]
	call	??3@YAXPEAX@Z				; operator delete
; Line 43
	xor	eax, eax
; Line 44
	add	rsp, 64					; 00000040H
	pop	rdi
	ret	0
?win32ThreadFunc@streamsdk@@YAIPEAX@Z ENDP		; streamsdk::win32ThreadFunc
_TEXT	ENDS
PUBLIC	??0ThreadLock@streamsdk@@QEAA@XZ		; streamsdk::ThreadLock::ThreadLock
EXTRN	__imp_InitializeCriticalSection:PROC
pdata	SEGMENT
$pdata$??0ThreadLock@streamsdk@@QEAA@XZ DD imagerel $LN3
	DD	imagerel $LN3+52
	DD	imagerel $unwind$??0ThreadLock@streamsdk@@QEAA@XZ
pdata	ENDS
xdata	SEGMENT
$unwind$??0ThreadLock@streamsdk@@QEAA@XZ DD 021e01H
	DD	07006320aH
; Function compile flags: /Odtp /RTCsu
xdata	ENDS
_TEXT	SEGMENT
this$ = 48
??0ThreadLock@streamsdk@@QEAA@XZ PROC			; streamsdk::ThreadLock::ThreadLock
; Line 54
$LN3:
	mov	QWORD PTR [rsp+8], rcx
	push	rdi
	sub	rsp, 32					; 00000020H
	mov	rdi, rsp
	mov	ecx, 8
	mov	eax, -858993460				; ccccccccH
	rep stosd
	mov	rcx, QWORD PTR [rsp+48]
; Line 56
	mov	rcx, QWORD PTR this$[rsp]
	call	QWORD PTR __imp_InitializeCriticalSection
; Line 60
	mov	rax, QWORD PTR this$[rsp]
	add	rsp, 32					; 00000020H
	pop	rdi
	ret	0
??0ThreadLock@streamsdk@@QEAA@XZ ENDP			; streamsdk::ThreadLock::ThreadLock
_TEXT	ENDS
PUBLIC	??1ThreadLock@streamsdk@@QEAA@XZ		; streamsdk::ThreadLock::~ThreadLock
EXTRN	__imp_DeleteCriticalSection:PROC
pdata	SEGMENT
$pdata$??1ThreadLock@streamsdk@@QEAA@XZ DD imagerel $LN3
	DD	imagerel $LN3+47
	DD	imagerel $unwind$??1ThreadLock@streamsdk@@QEAA@XZ
pdata	ENDS
xdata	SEGMENT
$unwind$??1ThreadLock@streamsdk@@QEAA@XZ DD 021e01H
	DD	07006320aH
; Function compile flags: /Odtp /RTCsu
xdata	ENDS
_TEXT	SEGMENT
this$ = 48
??1ThreadLock@streamsdk@@QEAA@XZ PROC			; streamsdk::ThreadLock::~ThreadLock
; Line 69
$LN3:
	mov	QWORD PTR [rsp+8], rcx
	push	rdi
	sub	rsp, 32					; 00000020H
	mov	rdi, rsp
	mov	ecx, 8
	mov	eax, -858993460				; ccccccccH
	rep stosd
	mov	rcx, QWORD PTR [rsp+48]
; Line 71
	mov	rcx, QWORD PTR this$[rsp]
	call	QWORD PTR __imp_DeleteCriticalSection
; Line 75
	add	rsp, 32					; 00000020H
	pop	rdi
	ret	0
??1ThreadLock@streamsdk@@QEAA@XZ ENDP			; streamsdk::ThreadLock::~ThreadLock
_TEXT	ENDS
PUBLIC	?isLocked@ThreadLock@streamsdk@@QEAA_NXZ	; streamsdk::ThreadLock::isLocked
pdata	SEGMENT
$pdata$?isLocked@ThreadLock@streamsdk@@QEAA_NXZ DD imagerel $LN5
	DD	imagerel $LN5+67
	DD	imagerel $unwind$?isLocked@ThreadLock@streamsdk@@QEAA_NXZ
pdata	ENDS
xdata	SEGMENT
$unwind$?isLocked@ThreadLock@streamsdk@@QEAA_NXZ DD 021e01H
	DD	07006120aH
; Function compile flags: /Odtp /RTCsu
xdata	ENDS
_TEXT	SEGMENT
tv66 = 0
this$ = 32
?isLocked@ThreadLock@streamsdk@@QEAA_NXZ PROC		; streamsdk::ThreadLock::isLocked
; Line 88
$LN5:
	mov	QWORD PTR [rsp+8], rcx
	push	rdi
	sub	rsp, 16
	mov	rdi, rsp
	mov	ecx, 4
	mov	eax, -858993460				; ccccccccH
	rep stosd
	mov	rcx, QWORD PTR [rsp+32]
; Line 90
	mov	rax, QWORD PTR this$[rsp]
	cmp	DWORD PTR [rax+8], -1
	je	SHORT $LN3@isLocked
	mov	DWORD PTR tv66[rsp], 1
	jmp	SHORT $LN4@isLocked
$LN3@isLocked:
	mov	DWORD PTR tv66[rsp], 0
$LN4@isLocked:
	movzx	eax, BYTE PTR tv66[rsp]
; Line 98
	add	rsp, 16
	pop	rdi
	ret	0
?isLocked@ThreadLock@streamsdk@@QEAA_NXZ ENDP		; streamsdk::ThreadLock::isLocked
_TEXT	ENDS
PUBLIC	?lock@ThreadLock@streamsdk@@QEAAXXZ		; streamsdk::ThreadLock::lock
EXTRN	__imp_EnterCriticalSection:PROC
pdata	SEGMENT
$pdata$?lock@ThreadLock@streamsdk@@QEAAXXZ DD imagerel $LN3
	DD	imagerel $LN3+47
	DD	imagerel $unwind$?lock@ThreadLock@streamsdk@@QEAAXXZ
pdata	ENDS
xdata	SEGMENT
$unwind$?lock@ThreadLock@streamsdk@@QEAAXXZ DD 021e01H
	DD	07006320aH
; Function compile flags: /Odtp /RTCsu
xdata	ENDS
_TEXT	SEGMENT
this$ = 48
?lock@ThreadLock@streamsdk@@QEAAXXZ PROC		; streamsdk::ThreadLock::lock
; Line 109
$LN3:
	mov	QWORD PTR [rsp+8], rcx
	push	rdi
	sub	rsp, 32					; 00000020H
	mov	rdi, rsp
	mov	ecx, 8
	mov	eax, -858993460				; ccccccccH
	rep stosd
	mov	rcx, QWORD PTR [rsp+48]
; Line 111
	mov	rcx, QWORD PTR this$[rsp]
	call	QWORD PTR __imp_EnterCriticalSection
; Line 115
	add	rsp, 32					; 00000020H
	pop	rdi
	ret	0
?lock@ThreadLock@streamsdk@@QEAAXXZ ENDP		; streamsdk::ThreadLock::lock
_TEXT	ENDS
PUBLIC	?tryLock@ThreadLock@streamsdk@@QEAA_NXZ		; streamsdk::ThreadLock::tryLock
EXTRN	__imp_TryEnterCriticalSection:PROC
pdata	SEGMENT
$pdata$?tryLock@ThreadLock@streamsdk@@QEAA_NXZ DD imagerel $LN5
	DD	imagerel $LN5+74
	DD	imagerel $unwind$?tryLock@ThreadLock@streamsdk@@QEAA_NXZ
pdata	ENDS
xdata	SEGMENT
$unwind$?tryLock@ThreadLock@streamsdk@@QEAA_NXZ DD 021e01H
	DD	07006520aH
; Function compile flags: /Odtp /RTCsu
xdata	ENDS
_TEXT	SEGMENT
tv67 = 32
this$ = 64
?tryLock@ThreadLock@streamsdk@@QEAA_NXZ PROC		; streamsdk::ThreadLock::tryLock
; Line 127
$LN5:
	mov	QWORD PTR [rsp+8], rcx
	push	rdi
	sub	rsp, 48					; 00000030H
	mov	rdi, rsp
	mov	ecx, 12
	mov	eax, -858993460				; ccccccccH
	rep stosd
	mov	rcx, QWORD PTR [rsp+64]
; Line 129
	mov	rcx, QWORD PTR this$[rsp]
	call	QWORD PTR __imp_TryEnterCriticalSection
	test	eax, eax
	je	SHORT $LN3@tryLock
	mov	DWORD PTR tv67[rsp], 1
	jmp	SHORT $LN4@tryLock
$LN3@tryLock:
	mov	DWORD PTR tv67[rsp], 0
$LN4@tryLock:
	movzx	eax, BYTE PTR tv67[rsp]
; Line 133
	add	rsp, 48					; 00000030H
	pop	rdi
	ret	0
?tryLock@ThreadLock@streamsdk@@QEAA_NXZ ENDP		; streamsdk::ThreadLock::tryLock
_TEXT	ENDS
PUBLIC	?unlock@ThreadLock@streamsdk@@QEAAXXZ		; streamsdk::ThreadLock::unlock
EXTRN	__imp_LeaveCriticalSection:PROC
pdata	SEGMENT
$pdata$?unlock@ThreadLock@streamsdk@@QEAAXXZ DD imagerel $LN3
	DD	imagerel $LN3+47
	DD	imagerel $unwind$?unlock@ThreadLock@streamsdk@@QEAAXXZ
pdata	ENDS
xdata	SEGMENT
$unwind$?unlock@ThreadLock@streamsdk@@QEAAXXZ DD 021e01H
	DD	07006320aH
; Function compile flags: /Odtp /RTCsu
xdata	ENDS
_TEXT	SEGMENT
this$ = 48
?unlock@ThreadLock@streamsdk@@QEAAXXZ PROC		; streamsdk::ThreadLock::unlock
; Line 143
$LN3:
	mov	QWORD PTR [rsp+8], rcx
	push	rdi
	sub	rsp, 32					; 00000020H
	mov	rdi, rsp
	mov	ecx, 8
	mov	eax, -858993460				; ccccccccH
	rep stosd
	mov	rcx, QWORD PTR [rsp+48]
; Line 145
	mov	rcx, QWORD PTR this$[rsp]
	call	QWORD PTR __imp_LeaveCriticalSection
; Line 149
	add	rsp, 32					; 00000020H
	pop	rdi
	ret	0
?unlock@ThreadLock@streamsdk@@QEAAXXZ ENDP		; streamsdk::ThreadLock::unlock
_TEXT	ENDS
PUBLIC	??0CondVarImpl@streamsdk@@QEAA@XZ		; streamsdk::CondVarImpl::CondVarImpl
PUBLIC	??0CondVar@streamsdk@@QEAA@XZ			; streamsdk::CondVar::CondVar
EXTRN	__CxxFrameHandler3:PROC
EXTRN	??2@YAPEAX_K@Z:PROC				; operator new
pdata	SEGMENT
$pdata$??0CondVar@streamsdk@@QEAA@XZ DD imagerel $LN6
	DD	imagerel $LN6+122
	DD	imagerel $unwind$??0CondVar@streamsdk@@QEAA@XZ
pdata	ENDS
pdata	SEGMENT
$pdata$?dtor$0@?0???0CondVar@streamsdk@@QEAA@XZ@4HA DD imagerel ?dtor$0@?0???0CondVar@streamsdk@@QEAA@XZ@4HA
	DD	imagerel ?dtor$0@?0???0CondVar@streamsdk@@QEAA@XZ@4HA+35
	DD	imagerel $unwind$?dtor$0@?0???0CondVar@streamsdk@@QEAA@XZ@4HA
pdata	ENDS
CONST	SEGMENT
	ORG $+1
$cppxdata$??0CondVar@streamsdk@@QEAA@XZ DD 019930522H
	DD	01H
	DD	imagerel $stateUnwindMap$??0CondVar@streamsdk@@QEAA@XZ
	DD	00H
	DD	00H
	DD	03H
	DD	imagerel $ip2state$??0CondVar@streamsdk@@QEAA@XZ
	DD	030H
	DD	00H
	DD	01H
CONST	ENDS
xdata	SEGMENT
$stateUnwindMap$??0CondVar@streamsdk@@QEAA@XZ DD 0ffffffffH
	DD	imagerel ?dtor$0@?0???0CondVar@streamsdk@@QEAA@XZ@4HA
$unwind$??0CondVar@streamsdk@@QEAA@XZ DD 022711H
	DD	07006720aH
	DD	imagerel __CxxFrameHandler3
	DD	imagerel $cppxdata$??0CondVar@streamsdk@@QEAA@XZ
$unwind$?dtor$0@?0???0CondVar@streamsdk@@QEAA@XZ@4HA DD 031001H
	DD	0700c4210H
	DD	0500bH
$ip2state$??0CondVar@streamsdk@@QEAA@XZ DD imagerel ??0CondVar@streamsdk@@QEAA@XZ
	DD	0ffffffffH
	DD	imagerel ??0CondVar@streamsdk@@QEAA@XZ+54
	DD	00H
	DD	imagerel ??0CondVar@streamsdk@@QEAA@XZ+98
	DD	0ffffffffH
; Function compile flags: /Odtp /RTCsu
xdata	ENDS
_TEXT	SEGMENT
$T81814 = 32
$T81815 = 40
$T81824 = 48
tv71 = 56
this$ = 80
??0CondVar@streamsdk@@QEAA@XZ PROC			; streamsdk::CondVar::CondVar
; Line 250
$LN6:
	mov	QWORD PTR [rsp+8], rcx
	push	rdi
	sub	rsp, 64					; 00000040H
	mov	rdi, rsp
	mov	ecx, 16
	mov	eax, -858993460				; ccccccccH
	rep stosd
	mov	rcx, QWORD PTR [rsp+80]
	mov	QWORD PTR $T81824[rsp], -2
; Line 251
	mov	ecx, 144				; 00000090H
	call	??2@YAPEAX_K@Z				; operator new
	mov	QWORD PTR $T81815[rsp], rax
	cmp	QWORD PTR $T81815[rsp], 0
	je	SHORT $LN3@CondVar
	mov	rcx, QWORD PTR $T81815[rsp]
	call	??0CondVarImpl@streamsdk@@QEAA@XZ	; streamsdk::CondVarImpl::CondVarImpl
	mov	QWORD PTR tv71[rsp], rax
	jmp	SHORT $LN4@CondVar
$LN3@CondVar:
	mov	QWORD PTR tv71[rsp], 0
$LN4@CondVar:
	mov	rax, QWORD PTR tv71[rsp]
	mov	QWORD PTR $T81814[rsp], rax
	mov	rax, QWORD PTR this$[rsp]
	mov	rcx, QWORD PTR $T81814[rsp]
	mov	QWORD PTR [rax], rcx
; Line 252
	mov	rax, QWORD PTR this$[rsp]
	add	rsp, 64					; 00000040H
	pop	rdi
	ret	0
??0CondVar@streamsdk@@QEAA@XZ ENDP			; streamsdk::CondVar::CondVar
; Function compile flags: /Odtp /RTCsu
_TEXT	ENDS
text$x	SEGMENT
$T81814 = 32
$T81815 = 40
$T81824 = 48
tv71 = 56
this$ = 80
?dtor$0@?0???0CondVar@streamsdk@@QEAA@XZ@4HA PROC	; `streamsdk::CondVar::CondVar'::`1'::dtor$0
	mov	QWORD PTR [rsp+8], rcx
	mov	QWORD PTR [rsp+16], rdx
	push	rbp
	push	rdi
	sub	rsp, 40					; 00000028H
	mov	rbp, rdx
	mov	rcx, QWORD PTR $T81815[rbp]
	call	??3@YAXPEAX@Z				; operator delete
	add	rsp, 40					; 00000028H
	pop	rdi
	pop	rbp
	ret	0
?dtor$0@?0???0CondVar@streamsdk@@QEAA@XZ@4HA ENDP	; `streamsdk::CondVar::CondVar'::`1'::dtor$0
text$x	ENDS
PUBLIC	??_GCondVarImpl@streamsdk@@QEAAPEAXI@Z		; streamsdk::CondVarImpl::`scalar deleting destructor'
PUBLIC	??1CondVar@streamsdk@@QEAA@XZ			; streamsdk::CondVar::~CondVar
pdata	SEGMENT
$pdata$??1CondVar@streamsdk@@QEAA@XZ DD imagerel $LN5
	DD	imagerel $LN5+98
	DD	imagerel $unwind$??1CondVar@streamsdk@@QEAA@XZ
pdata	ENDS
xdata	SEGMENT
$unwind$??1CondVar@streamsdk@@QEAA@XZ DD 021e01H
	DD	07006720aH
; Function compile flags: /Odtp /RTCsu
xdata	ENDS
_TEXT	SEGMENT
$T81835 = 32
$T81836 = 40
tv68 = 48
this$ = 80
??1CondVar@streamsdk@@QEAA@XZ PROC			; streamsdk::CondVar::~CondVar
; Line 259
$LN5:
	mov	QWORD PTR [rsp+8], rcx
	push	rdi
	sub	rsp, 64					; 00000040H
	mov	rdi, rsp
	mov	ecx, 16
	mov	eax, -858993460				; ccccccccH
	rep stosd
	mov	rcx, QWORD PTR [rsp+80]
; Line 260
	mov	rax, QWORD PTR this$[rsp]
	mov	rax, QWORD PTR [rax]
	mov	QWORD PTR $T81836[rsp], rax
	mov	rax, QWORD PTR $T81836[rsp]
	mov	QWORD PTR $T81835[rsp], rax
	cmp	QWORD PTR $T81835[rsp], 0
	je	SHORT $LN3@CondVar@2
	mov	edx, 1
	mov	rcx, QWORD PTR $T81835[rsp]
	call	??_GCondVarImpl@streamsdk@@QEAAPEAXI@Z
	mov	QWORD PTR tv68[rsp], rax
	jmp	SHORT $LN4@CondVar@2
$LN3@CondVar@2:
	mov	QWORD PTR tv68[rsp], 0
$LN4@CondVar@2:
; Line 261
	add	rsp, 64					; 00000040H
	pop	rdi
	ret	0
??1CondVar@streamsdk@@QEAA@XZ ENDP			; streamsdk::CondVar::~CondVar
_TEXT	ENDS
PUBLIC	??1CondVarImpl@streamsdk@@QEAA@XZ		; streamsdk::CondVarImpl::~CondVarImpl
;	COMDAT pdata
pdata	SEGMENT
$pdata$??_GCondVarImpl@streamsdk@@QEAAPEAXI@Z DD imagerel $LN4
	DD	imagerel $LN4+76
	DD	imagerel $unwind$??_GCondVarImpl@streamsdk@@QEAAPEAXI@Z
pdata	ENDS
;	COMDAT xdata
xdata	SEGMENT
$unwind$??_GCondVarImpl@streamsdk@@QEAAPEAXI@Z DD 022201H
	DD	0700a320eH
; Function compile flags: /Odtp /RTCsu
xdata	ENDS
;	COMDAT ??_GCondVarImpl@streamsdk@@QEAAPEAXI@Z
_TEXT	SEGMENT
this$ = 48
__flags$ = 56
??_GCondVarImpl@streamsdk@@QEAAPEAXI@Z PROC		; streamsdk::CondVarImpl::`scalar deleting destructor', COMDAT
$LN4:
	mov	DWORD PTR [rsp+16], edx
	mov	QWORD PTR [rsp+8], rcx
	push	rdi
	sub	rsp, 32					; 00000020H
	mov	rdi, rsp
	mov	ecx, 8
	mov	eax, -858993460				; ccccccccH
	rep stosd
	mov	rcx, QWORD PTR [rsp+48]
	mov	rcx, QWORD PTR this$[rsp]
	call	??1CondVarImpl@streamsdk@@QEAA@XZ	; streamsdk::CondVarImpl::~CondVarImpl
	mov	eax, DWORD PTR __flags$[rsp]
	and	eax, 1
	test	eax, eax
	je	SHORT $LN1@scalar
	mov	rcx, QWORD PTR this$[rsp]
	call	??3@YAXPEAX@Z				; operator delete
$LN1@scalar:
	mov	rax, QWORD PTR this$[rsp]
	add	rsp, 32					; 00000020H
	pop	rdi
	ret	0
??_GCondVarImpl@streamsdk@@QEAAPEAXI@Z ENDP		; streamsdk::CondVarImpl::`scalar deleting destructor'
_TEXT	ENDS
PUBLIC	?init@CondVarImpl@streamsdk@@QEAA_NI@Z		; streamsdk::CondVarImpl::init
PUBLIC	?init@CondVar@streamsdk@@QEAA_NI@Z		; streamsdk::CondVar::init
pdata	SEGMENT
$pdata$?init@CondVar@streamsdk@@QEAA_NI@Z DD imagerel $LN3
	DD	imagerel $LN3+57
	DD	imagerel $unwind$?init@CondVar@streamsdk@@QEAA_NI@Z
pdata	ENDS
xdata	SEGMENT
$unwind$?init@CondVar@streamsdk@@QEAA_NI@Z DD 022201H
	DD	0700a320eH
; Function compile flags: /Odtp /RTCsu
xdata	ENDS
_TEXT	SEGMENT
this$ = 48
maxThreadCount$ = 56
?init@CondVar@streamsdk@@QEAA_NI@Z PROC			; streamsdk::CondVar::init
; Line 270
$LN3:
	mov	DWORD PTR [rsp+16], edx
	mov	QWORD PTR [rsp+8], rcx
	push	rdi
	sub	rsp, 32					; 00000020H
	mov	rdi, rsp
	mov	ecx, 8
	mov	eax, -858993460				; ccccccccH
	rep stosd
	mov	rcx, QWORD PTR [rsp+48]
; Line 271
	mov	edx, DWORD PTR maxThreadCount$[rsp]
	mov	rax, QWORD PTR this$[rsp]
	mov	rcx, QWORD PTR [rax]
	call	?init@CondVarImpl@streamsdk@@QEAA_NI@Z	; streamsdk::CondVarImpl::init
; Line 272
	add	rsp, 32					; 00000020H
	pop	rdi
	ret	0
?init@CondVar@streamsdk@@QEAA_NI@Z ENDP			; streamsdk::CondVar::init
_TEXT	ENDS
PUBLIC	?destroy@CondVarImpl@streamsdk@@QEAA_NXZ	; streamsdk::CondVarImpl::destroy
PUBLIC	?destroy@CondVar@streamsdk@@QEAA_NXZ		; streamsdk::CondVar::destroy
pdata	SEGMENT
$pdata$?destroy@CondVar@streamsdk@@QEAA_NXZ DD imagerel $LN3
	DD	imagerel $LN3+49
	DD	imagerel $unwind$?destroy@CondVar@streamsdk@@QEAA_NXZ
pdata	ENDS
xdata	SEGMENT
$unwind$?destroy@CondVar@streamsdk@@QEAA_NXZ DD 021e01H
	DD	07006320aH
; Function compile flags: /Odtp /RTCsu
xdata	ENDS
_TEXT	SEGMENT
this$ = 48
?destroy@CondVar@streamsdk@@QEAA_NXZ PROC		; streamsdk::CondVar::destroy
; Line 280
$LN3:
	mov	QWORD PTR [rsp+8], rcx
	push	rdi
	sub	rsp, 32					; 00000020H
	mov	rdi, rsp
	mov	ecx, 8
	mov	eax, -858993460				; ccccccccH
	rep stosd
	mov	rcx, QWORD PTR [rsp+48]
; Line 281
	mov	rax, QWORD PTR this$[rsp]
	mov	rcx, QWORD PTR [rax]
	call	?destroy@CondVarImpl@streamsdk@@QEAA_NXZ ; streamsdk::CondVarImpl::destroy
; Line 282
	add	rsp, 32					; 00000020H
	pop	rdi
	ret	0
?destroy@CondVar@streamsdk@@QEAA_NXZ ENDP		; streamsdk::CondVar::destroy
_TEXT	ENDS
PUBLIC	?syncThreads@CondVarImpl@streamsdk@@QEAAXXZ	; streamsdk::CondVarImpl::syncThreads
PUBLIC	?syncThreads@CondVar@streamsdk@@QEAAXXZ		; streamsdk::CondVar::syncThreads
pdata	SEGMENT
$pdata$?syncThreads@CondVar@streamsdk@@QEAAXXZ DD imagerel $LN3
	DD	imagerel $LN3+49
	DD	imagerel $unwind$?syncThreads@CondVar@streamsdk@@QEAAXXZ
pdata	ENDS
xdata	SEGMENT
$unwind$?syncThreads@CondVar@streamsdk@@QEAAXXZ DD 021e01H
	DD	07006320aH
; Function compile flags: /Odtp /RTCsu
xdata	ENDS
_TEXT	SEGMENT
this$ = 48
?syncThreads@CondVar@streamsdk@@QEAAXXZ PROC		; streamsdk::CondVar::syncThreads
; Line 290
$LN3:
	mov	QWORD PTR [rsp+8], rcx
	push	rdi
	sub	rsp, 32					; 00000020H
	mov	rdi, rsp
	mov	ecx, 8
	mov	eax, -858993460				; ccccccccH
	rep stosd
	mov	rcx, QWORD PTR [rsp+48]
; Line 291
	mov	rax, QWORD PTR this$[rsp]
	mov	rcx, QWORD PTR [rax]
	call	?syncThreads@CondVarImpl@streamsdk@@QEAAXXZ ; streamsdk::CondVarImpl::syncThreads
; Line 292
	add	rsp, 32					; 00000020H
	pop	rdi
	ret	0
?syncThreads@CondVar@streamsdk@@QEAAXXZ ENDP		; streamsdk::CondVar::syncThreads
_TEXT	ENDS
PUBLIC	??0?$deque@PEAXV?$allocator@PEAX@std@@@std@@QEAA@XZ ; std::deque<void * __ptr64,std::allocator<void * __ptr64> >::deque<void * __ptr64,std::allocator<void * __ptr64> >
pdata	SEGMENT
$pdata$??0CondVarImpl@streamsdk@@QEAA@XZ DD imagerel $LN4
	DD	imagerel $LN4+81
	DD	imagerel $unwind$??0CondVarImpl@streamsdk@@QEAA@XZ
pdata	ENDS
xdata	SEGMENT
$unwind$??0CondVarImpl@streamsdk@@QEAA@XZ DD 021e01H
	DD	07006320aH
; Function compile flags: /Odtp /RTCsu
xdata	ENDS
_TEXT	SEGMENT
this$ = 48
??0CondVarImpl@streamsdk@@QEAA@XZ PROC			; streamsdk::CondVarImpl::CondVarImpl
; Line 301
$LN4:
	mov	QWORD PTR [rsp+8], rcx
	push	rdi
	sub	rsp, 32					; 00000020H
	mov	rdi, rsp
	mov	ecx, 8
	mov	eax, -858993460				; ccccccccH
	rep stosd
	mov	rcx, QWORD PTR [rsp+48]
	mov	rcx, QWORD PTR this$[rsp]
	call	??0?$deque@PEAXV?$allocator@PEAX@std@@@std@@QEAA@XZ ; std::deque<void * __ptr64,std::allocator<void * __ptr64> >::deque<void * __ptr64,std::allocator<void * __ptr64> >
	mov	rax, QWORD PTR this$[rsp]
	mov	DWORD PTR [rax+132], -1			; ffffffffH
	mov	rax, QWORD PTR this$[rsp]
	mov	DWORD PTR [rax+136], -1			; ffffffffH
; Line 302
	mov	rax, QWORD PTR this$[rsp]
	add	rsp, 32					; 00000020H
	pop	rdi
	ret	0
??0CondVarImpl@streamsdk@@QEAA@XZ ENDP			; streamsdk::CondVarImpl::CondVarImpl
_TEXT	ENDS
PUBLIC	??1?$deque@PEAXV?$allocator@PEAX@std@@@std@@QEAA@XZ ; std::deque<void * __ptr64,std::allocator<void * __ptr64> >::~deque<void * __ptr64,std::allocator<void * __ptr64> >
pdata	SEGMENT
$pdata$??1CondVarImpl@streamsdk@@QEAA@XZ DD imagerel $LN4
	DD	imagerel $LN4+46
	DD	imagerel $unwind$??1CondVarImpl@streamsdk@@QEAA@XZ
pdata	ENDS
xdata	SEGMENT
$unwind$??1CondVarImpl@streamsdk@@QEAA@XZ DD 021e01H
	DD	07006320aH
; Function compile flags: /Odtp /RTCsu
xdata	ENDS
_TEXT	SEGMENT
this$ = 48
??1CondVarImpl@streamsdk@@QEAA@XZ PROC			; streamsdk::CondVarImpl::~CondVarImpl
; Line 309
$LN4:
	mov	QWORD PTR [rsp+8], rcx
	push	rdi
	sub	rsp, 32					; 00000020H
	mov	rdi, rsp
	mov	ecx, 8
	mov	eax, -858993460				; ccccccccH
	rep stosd
	mov	rcx, QWORD PTR [rsp+48]
; Line 310
	mov	rcx, QWORD PTR this$[rsp]
	call	??1?$deque@PEAXV?$allocator@PEAX@std@@@std@@QEAA@XZ ; std::deque<void * __ptr64,std::allocator<void * __ptr64> >::~deque<void * __ptr64,std::allocator<void * __ptr64> >
	add	rsp, 32					; 00000020H
	pop	rdi
	ret	0
??1CondVarImpl@streamsdk@@QEAA@XZ ENDP			; streamsdk::CondVarImpl::~CondVarImpl
_TEXT	ENDS
pdata	SEGMENT
$pdata$?init@CondVarImpl@streamsdk@@QEAA_NI@Z DD imagerel $LN4
	DD	imagerel $LN4+142
	DD	imagerel $unwind$?init@CondVarImpl@streamsdk@@QEAA_NI@Z
pdata	ENDS
xdata	SEGMENT
$unwind$?init@CondVarImpl@streamsdk@@QEAA_NI@Z DD 022201H
	DD	0700a520eH
; Function compile flags: /Odtp /RTCsu
xdata	ENDS
_TEXT	SEGMENT
rc$ = 32
this$ = 64
maxThreadCount$ = 72
?init@CondVarImpl@streamsdk@@QEAA_NI@Z PROC		; streamsdk::CondVarImpl::init
; Line 319
$LN4:
	mov	DWORD PTR [rsp+16], edx
	mov	QWORD PTR [rsp+8], rcx
	push	rdi
	sub	rsp, 48					; 00000030H
	mov	rdi, rsp
	mov	ecx, 12
	mov	eax, -858993460				; ccccccccH
	rep stosd
	mov	rcx, QWORD PTR [rsp+64]
; Line 320
	mov	DWORD PTR rc$[rsp], 0
; Line 323
	mov	rax, QWORD PTR this$[rsp]
	mov	DWORD PTR [rax+136], -1			; ffffffffH
; Line 324
	mov	rax, QWORD PTR this$[rsp]
	mov	ecx, DWORD PTR maxThreadCount$[rsp]
	mov	DWORD PTR [rax+132], ecx
; Line 327
	mov	rax, QWORD PTR this$[rsp]
	mov	DWORD PTR [rax+128], 0
; Line 330
	mov	rax, QWORD PTR this$[rsp]
	add	rax, 48					; 00000030H
	mov	rcx, rax
	call	QWORD PTR __imp_InitializeCriticalSection
; Line 334
	mov	rax, QWORD PTR this$[rsp]
	add	rax, 88					; 00000058H
	mov	rcx, rax
	call	QWORD PTR __imp_InitializeCriticalSection
; Line 346
	cmp	DWORD PTR rc$[rsp], 0
	je	SHORT $LN1@init
; Line 347
	xor	al, al
	jmp	SHORT $LN2@init
$LN1@init:
; Line 349
	mov	al, 1
$LN2@init:
; Line 350
	add	rsp, 48					; 00000030H
	pop	rdi
	ret	0
?init@CondVarImpl@streamsdk@@QEAA_NI@Z ENDP		; streamsdk::CondVarImpl::init
_TEXT	ENDS
PUBLIC	?empty@?$deque@PEAXV?$allocator@PEAX@std@@@std@@QEBA_NXZ ; std::deque<void * __ptr64,std::allocator<void * __ptr64> >::empty
EXTRN	_wassert:PROC
pdata	SEGMENT
$pdata$?destroy@CondVarImpl@streamsdk@@QEAA_NXZ DD imagerel $LN5
	DD	imagerel $LN5+137
	DD	imagerel $unwind$?destroy@CondVarImpl@streamsdk@@QEAA_NXZ
pdata	ENDS
xdata	SEGMENT
$unwind$?destroy@CondVarImpl@streamsdk@@QEAA_NXZ DD 021e01H
	DD	07006520aH
; Function compile flags: /Odtp /RTCsu
xdata	ENDS
_TEXT	SEGMENT
rc$ = 32
this$ = 64
?destroy@CondVarImpl@streamsdk@@QEAA_NXZ PROC		; streamsdk::CondVarImpl::destroy
; Line 358
$LN5:
	mov	QWORD PTR [rsp+8], rcx
	push	rdi
	sub	rsp, 48					; 00000030H
	mov	rdi, rsp
	mov	ecx, 12
	mov	eax, -858993460				; ccccccccH
	rep stosd
	mov	rcx, QWORD PTR [rsp+64]
; Line 359
	mov	DWORD PTR rc$[rsp], 0
; Line 365
	mov	rax, QWORD PTR this$[rsp]
	add	rax, 48					; 00000030H
	mov	rcx, rax
	call	QWORD PTR __imp_DeleteCriticalSection
; Line 366
	mov	rax, QWORD PTR this$[rsp]
	add	rax, 88					; 00000058H
	mov	rcx, rax
	call	QWORD PTR __imp_DeleteCriticalSection
; Line 370
	mov	rcx, QWORD PTR this$[rsp]
	call	?empty@?$deque@PEAXV?$allocator@PEAX@std@@@std@@QEBA_NXZ ; std::deque<void * __ptr64,std::allocator<void * __ptr64> >::empty
	movzx	eax, al
	test	eax, eax
	jne	SHORT $LN4@destroy
	mov	r8d, 370				; 00000172H
	lea	rdx, OFFSET FLAT:$SG79555
	lea	rcx, OFFSET FLAT:$SG79556
	call	_wassert
	xor	eax, eax
$LN4@destroy:
; Line 384
	cmp	DWORD PTR rc$[rsp], 0
	je	SHORT $LN1@destroy
; Line 385
	xor	al, al
	jmp	SHORT $LN2@destroy
$LN1@destroy:
; Line 387
	mov	al, 1
$LN2@destroy:
; Line 388
	add	rsp, 48					; 00000030H
	pop	rdi
	ret	0
?destroy@CondVarImpl@streamsdk@@QEAA_NXZ ENDP		; streamsdk::CondVarImpl::destroy
_TEXT	ENDS
PUBLIC	?endSynchronized@CondVarImpl@streamsdk@@AEAAHXZ	; streamsdk::CondVarImpl::endSynchronized
PUBLIC	?wait@CondVarImpl@streamsdk@@AEAAKKH@Z		; streamsdk::CondVarImpl::wait
PUBLIC	?broadcast@CondVarImpl@streamsdk@@AEAAHXZ	; streamsdk::CondVarImpl::broadcast
PUBLIC	?beginSynchronized@CondVarImpl@streamsdk@@AEAAXXZ ; streamsdk::CondVarImpl::beginSynchronized
EXTRN	printf:PROC
pdata	SEGMENT
$pdata$?syncThreads@CondVarImpl@streamsdk@@QEAAXXZ DD imagerel $LN8
	DD	imagerel $LN8+213
	DD	imagerel $unwind$?syncThreads@CondVarImpl@streamsdk@@QEAAXXZ
pdata	ENDS
xdata	SEGMENT
$unwind$?syncThreads@CondVarImpl@streamsdk@@QEAAXXZ DD 021e01H
	DD	07006520aH
; Function compile flags: /Odtp /RTCsu
xdata	ENDS
_TEXT	SEGMENT
rc$ = 32
this$ = 64
?syncThreads@CondVarImpl@streamsdk@@QEAAXXZ PROC	; streamsdk::CondVarImpl::syncThreads
; Line 396
$LN8:
	mov	QWORD PTR [rsp+8], rcx
	push	rdi
	sub	rsp, 48					; 00000030H
	mov	rdi, rsp
	mov	ecx, 12
	mov	eax, -858993460				; ccccccccH
	rep stosd
	mov	rcx, QWORD PTR [rsp+64]
; Line 399
	mov	rcx, QWORD PTR this$[rsp]
	call	?beginSynchronized@CondVarImpl@streamsdk@@AEAAXXZ ; streamsdk::CondVarImpl::beginSynchronized
; Line 401
	mov	DWORD PTR rc$[rsp], 0
; Line 404
	mov	rax, QWORD PTR this$[rsp]
	cmp	DWORD PTR [rax+136], -1			; ffffffffH
	jne	SHORT $LN5@syncThread
; Line 405
	mov	rax, QWORD PTR this$[rsp]
	mov	DWORD PTR [rax+136], 0
; Line 406
	jmp	SHORT $LN4@syncThread
$LN5@syncThread:
; Line 408
	mov	rax, QWORD PTR this$[rsp]
	mov	eax, DWORD PTR [rax+136]
	inc	eax
	mov	rcx, QWORD PTR this$[rsp]
	mov	DWORD PTR [rcx+136], eax
$LN4@syncThread:
; Line 411
	mov	rax, QWORD PTR this$[rsp]
	mov	eax, DWORD PTR [rax+132]
	dec	eax
	mov	rcx, QWORD PTR this$[rsp]
	cmp	DWORD PTR [rcx+136], eax
	jb	SHORT $LN3@syncThread
; Line 414
	mov	rax, QWORD PTR this$[rsp]
	mov	DWORD PTR [rax+136], -1			; ffffffffH
; Line 417
	mov	rcx, QWORD PTR this$[rsp]
	call	?broadcast@CondVarImpl@streamsdk@@AEAAHXZ ; streamsdk::CondVarImpl::broadcast
	mov	DWORD PTR rc$[rsp], eax
; Line 418
	cmp	DWORD PTR rc$[rsp], 0
	jne	SHORT $LN2@syncThread
; Line 419
	lea	rcx, OFFSET FLAT:$SG79566
	call	printf
$LN2@syncThread:
; Line 427
	jmp	SHORT $LN1@syncThread
$LN3@syncThread:
; Line 431
	xor	r8d, r8d
	mov	edx, -1					; ffffffffH
	mov	rcx, QWORD PTR this$[rsp]
	call	?wait@CondVarImpl@streamsdk@@AEAAKKH@Z	; streamsdk::CondVarImpl::wait
$LN1@syncThread:
; Line 442
	mov	rcx, QWORD PTR this$[rsp]
	call	?endSynchronized@CondVarImpl@streamsdk@@AEAAHXZ ; streamsdk::CondVarImpl::endSynchronized
; Line 443
	add	rsp, 48					; 00000030H
	pop	rdi
	ret	0
?syncThreads@CondVarImpl@streamsdk@@QEAAXXZ ENDP	; streamsdk::CondVarImpl::syncThreads
_TEXT	ENDS
PUBLIC	?_push@CondVarImpl@streamsdk@@AEAAPEAXXZ	; streamsdk::CondVarImpl::_push
PUBLIC	?_lockHeldByCallingThread@CondVarImpl@streamsdk@@AEAAHXZ ; streamsdk::CondVarImpl::_lockHeldByCallingThread
EXTRN	__imp_CloseHandle:PROC
EXTRN	__imp_GetLastError:PROC
EXTRN	__imp_WaitForSingleObjectEx:PROC
EXTRN	__imp_SetLastError:PROC
EXTRN	_RTC_UninitUse:PROC
pdata	SEGMENT
$pdata$?wait@CondVarImpl@streamsdk@@AEAAKKH@Z DD imagerel $LN15
	DD	imagerel $LN15+371
	DD	imagerel $unwind$?wait@CondVarImpl@streamsdk@@AEAAKKH@Z
pdata	ENDS
xdata	SEGMENT
$unwind$?wait@CondVarImpl@streamsdk@@AEAAKKH@Z DD 022701H
	DD	0700f7213H
xdata	ENDS
CONST	SEGMENT
?wait@CondVarImpl@streamsdk@@AEAAKKH@Z$rtcName$0 DB 064H ; streamsdk::CondVarImpl::wait
	DB	077H
	DB	04cH
	DB	061H
	DB	073H
	DB	074H
	DB	045H
	DB	072H
	DB	072H
	DB	06fH
	DB	072H
	DB	00H
; Function compile flags: /Odtp /RTCsu
CONST	ENDS
_TEXT	SEGMENT
hWaitEvent$ = 32
nThisThreadsLockCount$ = 40
i$79579 = 44
dwWaitResult$ = 48
dwLastError$ = 52
j$79587 = 56
$T81887 = 60
this$ = 80
dwMillisecondsTimeout$ = 88
bAlertable$ = 96
?wait@CondVarImpl@streamsdk@@AEAAKKH@Z PROC		; streamsdk::CondVarImpl::wait
; Line 450
$LN15:
	mov	DWORD PTR [rsp+24], r8d
	mov	DWORD PTR [rsp+16], edx
	mov	QWORD PTR [rsp+8], rcx
	push	rdi
	sub	rsp, 64					; 00000040H
	mov	rdi, rsp
	mov	ecx, 16
	mov	eax, -858993460				; ccccccccH
	rep stosd
	mov	rcx, QWORD PTR [rsp+80]
	mov	BYTE PTR $T81887[rsp], 0
; Line 451
	mov	rcx, QWORD PTR this$[rsp]
	call	?_lockHeldByCallingThread@CondVarImpl@streamsdk@@AEAAHXZ ; streamsdk::CondVarImpl::_lockHeldByCallingThread
	test	eax, eax
	jne	SHORT $LN11@wait
; Line 453
	mov	ecx, 1
	call	QWORD PTR __imp_SetLastError
; Line 454
	mov	eax, -1					; ffffffffH
	jmp	$LN12@wait
$LN11@wait:
; Line 458
	mov	rcx, QWORD PTR this$[rsp]
	call	?_push@CondVarImpl@streamsdk@@AEAAPEAXXZ ; streamsdk::CondVarImpl::_push
	mov	QWORD PTR hWaitEvent$[rsp], rax
; Line 459
	cmp	QWORD PTR hWaitEvent$[rsp], 0
	jne	SHORT $LN10@wait
; Line 460
	mov	eax, -1					; ffffffffH
	jmp	$LN12@wait
$LN10@wait:
; Line 463
	mov	rax, QWORD PTR this$[rsp]
	mov	eax, DWORD PTR [rax+128]
	mov	DWORD PTR nThisThreadsLockCount$[rsp], eax
; Line 464
	mov	rax, QWORD PTR this$[rsp]
	mov	DWORD PTR [rax+128], 0
; Line 468
	mov	DWORD PTR i$79579[rsp], 0
	jmp	SHORT $LN9@wait
$LN8@wait:
	mov	eax, DWORD PTR i$79579[rsp]
	inc	eax
	mov	DWORD PTR i$79579[rsp], eax
$LN9@wait:
	mov	eax, DWORD PTR nThisThreadsLockCount$[rsp]
	cmp	DWORD PTR i$79579[rsp], eax
	jge	SHORT $LN7@wait
; Line 469
	mov	rax, QWORD PTR this$[rsp]
	add	rax, 88					; 00000058H
	mov	rcx, rax
	call	QWORD PTR __imp_LeaveCriticalSection
	jmp	SHORT $LN8@wait
$LN7@wait:
; Line 482
	mov	r8d, DWORD PTR bAlertable$[rsp]
	mov	edx, DWORD PTR dwMillisecondsTimeout$[rsp]
	mov	rcx, QWORD PTR hWaitEvent$[rsp]
	call	QWORD PTR __imp_WaitForSingleObjectEx
	mov	DWORD PTR dwWaitResult$[rsp], eax
; Line 487
	cmp	DWORD PTR dwWaitResult$[rsp], -1	; ffffffffH
	jne	SHORT $LN6@wait
; Line 488
	call	QWORD PTR __imp_GetLastError
	mov	BYTE PTR $T81887[rsp], 1
	mov	DWORD PTR dwLastError$[rsp], eax
$LN6@wait:
; Line 492
	mov	DWORD PTR j$79587[rsp], 0
	jmp	SHORT $LN5@wait
$LN4@wait:
	mov	eax, DWORD PTR j$79587[rsp]
	inc	eax
	mov	DWORD PTR j$79587[rsp], eax
$LN5@wait:
	mov	eax, DWORD PTR nThisThreadsLockCount$[rsp]
	cmp	DWORD PTR j$79587[rsp], eax
	jge	SHORT $LN3@wait
; Line 493
	mov	rax, QWORD PTR this$[rsp]
	add	rax, 88					; 00000058H
	mov	rcx, rax
	call	QWORD PTR __imp_EnterCriticalSection
	jmp	SHORT $LN4@wait
$LN3@wait:
; Line 496
	mov	rax, QWORD PTR this$[rsp]
	mov	ecx, DWORD PTR nThisThreadsLockCount$[rsp]
	mov	DWORD PTR [rax+128], ecx
; Line 499
	mov	rcx, QWORD PTR hWaitEvent$[rsp]
	call	QWORD PTR __imp_CloseHandle
	test	eax, eax
	jne	SHORT $LN2@wait
; Line 500
	mov	eax, -1					; ffffffffH
	jmp	SHORT $LN12@wait
$LN2@wait:
; Line 502
	cmp	DWORD PTR dwWaitResult$[rsp], -1	; ffffffffH
	jne	SHORT $LN1@wait
; Line 503
	cmp	BYTE PTR $T81887[rsp], 0
	jne	SHORT $LN14@wait
	lea	rcx, OFFSET FLAT:?wait@CondVarImpl@streamsdk@@AEAAKKH@Z$rtcName$0
	call	_RTC_UninitUse
$LN14@wait:
	mov	ecx, DWORD PTR dwLastError$[rsp]
	call	QWORD PTR __imp_SetLastError
$LN1@wait:
; Line 505
	mov	eax, DWORD PTR dwWaitResult$[rsp]
$LN12@wait:
; Line 506
	add	rsp, 64					; 00000040H
	pop	rdi
	ret	0
?wait@CondVarImpl@streamsdk@@AEAAKKH@Z ENDP		; streamsdk::CondVarImpl::wait
_TEXT	ENDS
PUBLIC	?clear@?$deque@PEAXV?$allocator@PEAX@std@@@std@@QEAAXXZ ; std::deque<void * __ptr64,std::allocator<void * __ptr64> >::clear
PUBLIC	??1?$_Deque_const_iterator@PEAXV?$allocator@PEAX@std@@@std@@QEAA@XZ ; std::_Deque_const_iterator<void * __ptr64,std::allocator<void * __ptr64> >::~_Deque_const_iterator<void * __ptr64,std::allocator<void * __ptr64> >
PUBLIC	??D?$_Deque_const_iterator@PEAXV?$allocator@PEAX@std@@@std@@QEBAAEBQEAXXZ ; std::_Deque_const_iterator<void * __ptr64,std::allocator<void * __ptr64> >::operator*
PUBLIC	??M?$_Deque_const_iterator@PEAXV?$allocator@PEAX@std@@@std@@QEBA_NAEBV01@@Z ; std::_Deque_const_iterator<void * __ptr64,std::allocator<void * __ptr64> >::operator<
PUBLIC	??E?$_Deque_const_iterator@PEAXV?$allocator@PEAX@std@@@std@@QEAAAEAV01@XZ ; std::_Deque_const_iterator<void * __ptr64,std::allocator<void * __ptr64> >::operator++
PUBLIC	?end@?$deque@PEAXV?$allocator@PEAX@std@@@std@@QEAA?AV?$_Deque_iterator@PEAXV?$allocator@PEAX@std@@@2@XZ ; std::deque<void * __ptr64,std::allocator<void * __ptr64> >::end
PUBLIC	??1?$_Deque_iterator@PEAXV?$allocator@PEAX@std@@@std@@QEAA@XZ ; std::_Deque_iterator<void * __ptr64,std::allocator<void * __ptr64> >::~_Deque_iterator<void * __ptr64,std::allocator<void * __ptr64> >
PUBLIC	??0?$_Deque_const_iterator@PEAXV?$allocator@PEAX@std@@@std@@QEAA@AEBV01@@Z ; std::_Deque_const_iterator<void * __ptr64,std::allocator<void * __ptr64> >::_Deque_const_iterator<void * __ptr64,std::allocator<void * __ptr64> >
PUBLIC	?begin@?$deque@PEAXV?$allocator@PEAX@std@@@std@@QEAA?AV?$_Deque_iterator@PEAXV?$allocator@PEAX@std@@@2@XZ ; std::deque<void * __ptr64,std::allocator<void * __ptr64> >::begin
EXTRN	__imp_SetEvent:PROC
EXTRN	_RTC_CheckStackVars:PROC
pdata	SEGMENT
$pdata$?broadcast@CondVarImpl@streamsdk@@AEAAHXZ DD imagerel $LN11
	DD	imagerel $LN11+420
	DD	imagerel $unwind$?broadcast@CondVarImpl@streamsdk@@AEAAHXZ
pdata	ENDS
pdata	SEGMENT
$pdata$?dtor$0@?0??broadcast@CondVarImpl@streamsdk@@AEAAHXZ@4HA DD imagerel ?dtor$0@?0??broadcast@CondVarImpl@streamsdk@@AEAAHXZ@4HA
	DD	imagerel ?dtor$0@?0??broadcast@CondVarImpl@streamsdk@@AEAAHXZ@4HA+35
	DD	imagerel $unwind$?dtor$0@?0??broadcast@CondVarImpl@streamsdk@@AEAAHXZ@4HA
$pdata$?dtor$1@?0??broadcast@CondVarImpl@streamsdk@@AEAAHXZ@4HA DD imagerel ?dtor$1@?0??broadcast@CondVarImpl@streamsdk@@AEAAHXZ@4HA
	DD	imagerel ?dtor$1@?0??broadcast@CondVarImpl@streamsdk@@AEAAHXZ@4HA+35
	DD	imagerel $unwind$?dtor$1@?0??broadcast@CondVarImpl@streamsdk@@AEAAHXZ@4HA
$pdata$?dtor$2@?0??broadcast@CondVarImpl@streamsdk@@AEAAHXZ@4HA DD imagerel ?dtor$2@?0??broadcast@CondVarImpl@streamsdk@@AEAAHXZ@4HA
	DD	imagerel ?dtor$2@?0??broadcast@CondVarImpl@streamsdk@@AEAAHXZ@4HA+38
	DD	imagerel $unwind$?dtor$2@?0??broadcast@CondVarImpl@streamsdk@@AEAAHXZ@4HA
$pdata$?dtor$3@?0??broadcast@CondVarImpl@streamsdk@@AEAAHXZ@4HA DD imagerel ?dtor$3@?0??broadcast@CondVarImpl@streamsdk@@AEAAHXZ@4HA
	DD	imagerel ?dtor$3@?0??broadcast@CondVarImpl@streamsdk@@AEAAHXZ@4HA+35
	DD	imagerel $unwind$?dtor$3@?0??broadcast@CondVarImpl@streamsdk@@AEAAHXZ@4HA
pdata	ENDS
xdata	SEGMENT
$stateUnwindMap$?broadcast@CondVarImpl@streamsdk@@AEAAHXZ DD 0ffffffffH
	DD	imagerel ?dtor$0@?0??broadcast@CondVarImpl@streamsdk@@AEAAHXZ@4HA
	DD	00H
	DD	imagerel ?dtor$1@?0??broadcast@CondVarImpl@streamsdk@@AEAAHXZ@4HA
	DD	0ffffffffH
	DD	imagerel ?dtor$1@?0??broadcast@CondVarImpl@streamsdk@@AEAAHXZ@4HA
	DD	02H
	DD	imagerel ?dtor$2@?0??broadcast@CondVarImpl@streamsdk@@AEAAHXZ@4HA
	DD	03H
	DD	imagerel ?dtor$3@?0??broadcast@CondVarImpl@streamsdk@@AEAAHXZ@4HA
	DD	02H
	DD	imagerel ?dtor$3@?0??broadcast@CondVarImpl@streamsdk@@AEAAHXZ@4HA
$unwind$?broadcast@CondVarImpl@streamsdk@@AEAAHXZ DD 033011H
	DD	01c010dH
	DD	07006H
	DD	imagerel __CxxFrameHandler3
	DD	imagerel $cppxdata$?broadcast@CondVarImpl@streamsdk@@AEAAHXZ
$unwind$?dtor$0@?0??broadcast@CondVarImpl@streamsdk@@AEAAHXZ@4HA DD 031001H
	DD	0700c4210H
	DD	0500bH
$unwind$?dtor$1@?0??broadcast@CondVarImpl@streamsdk@@AEAAHXZ@4HA DD 031001H
	DD	0700c4210H
	DD	0500bH
$unwind$?dtor$2@?0??broadcast@CondVarImpl@streamsdk@@AEAAHXZ@4HA DD 031001H
	DD	0700c4210H
	DD	0500bH
$unwind$?dtor$3@?0??broadcast@CondVarImpl@streamsdk@@AEAAHXZ@4HA DD 031001H
	DD	0700c4210H
	DD	0500bH
$ip2state$?broadcast@CondVarImpl@streamsdk@@AEAAHXZ DD imagerel ?broadcast@CondVarImpl@streamsdk@@AEAAHXZ
	DD	0ffffffffH
	DD	imagerel ?broadcast@CondVarImpl@streamsdk@@AEAAHXZ+111
	DD	00H
	DD	imagerel ?broadcast@CondVarImpl@streamsdk@@AEAAHXZ+130
	DD	02H
	DD	imagerel ?broadcast@CondVarImpl@streamsdk@@AEAAHXZ+185
	DD	03H
	DD	imagerel ?broadcast@CondVarImpl@streamsdk@@AEAAHXZ+204
	DD	05H
	DD	imagerel ?broadcast@CondVarImpl@streamsdk@@AEAAHXZ+285
	DD	02H
	DD	imagerel ?broadcast@CondVarImpl@streamsdk@@AEAAHXZ+296
	DD	0ffffffffH
	DD	imagerel ?broadcast@CondVarImpl@streamsdk@@AEAAHXZ+315
	DD	05H
	DD	imagerel ?broadcast@CondVarImpl@streamsdk@@AEAAHXZ+362
	DD	02H
	DD	imagerel ?broadcast@CondVarImpl@streamsdk@@AEAAHXZ+373
	DD	0ffffffffH
xdata	ENDS
CONST	SEGMENT
?broadcast@CondVarImpl@streamsdk@@AEAAHXZ$rtcName$0 DB 069H ; streamsdk::CondVarImpl::broadcast
	DB	074H
	DB	05fH
	DB	072H
	DB	075H
	DB	06eH
	DB	00H
	ORG $+1
?broadcast@CondVarImpl@streamsdk@@AEAAHXZ$rtcName$1 DB 069H ; streamsdk::CondVarImpl::broadcast
	DB	074H
	DB	05fH
	DB	065H
	DB	06eH
	DB	064H
	DB	00H
	ORG $+13
?broadcast@CondVarImpl@streamsdk@@AEAAHXZ$rtcVarDesc DD 058H ; streamsdk::CondVarImpl::broadcast
	DD	018H
	DQ	FLAT:?broadcast@CondVarImpl@streamsdk@@AEAAHXZ$rtcName$1
	DD	028H
	DD	018H
	DQ	FLAT:?broadcast@CondVarImpl@streamsdk@@AEAAHXZ$rtcName$0
	ORG $+96
?broadcast@CondVarImpl@streamsdk@@AEAAHXZ$rtcFrameData DD 02H ; streamsdk::CondVarImpl::broadcast
	DD	00H
	DQ	FLAT:?broadcast@CondVarImpl@streamsdk@@AEAAHXZ$rtcVarDesc
$cppxdata$?broadcast@CondVarImpl@streamsdk@@AEAAHXZ DD 019930522H
	DD	06H
	DD	imagerel $stateUnwindMap$?broadcast@CondVarImpl@streamsdk@@AEAAHXZ
	DD	00H
	DD	00H
	DD	0aH
	DD	imagerel $ip2state$?broadcast@CondVarImpl@streamsdk@@AEAAHXZ
	DD	0b0H
	DD	00H
	DD	01H
; Function compile flags: /Odtp /RTCsu
CONST	ENDS
_TEXT	SEGMENT
it_run$ = 40
it_end$ = 88
$T81895 = 120
$T81896 = 144
$T81897 = 168
$T81898 = 172
$T81908 = 176
tv148 = 184
tv139 = 192
tv67 = 200
tv142 = 208
this$ = 240
?broadcast@CondVarImpl@streamsdk@@AEAAHXZ PROC		; streamsdk::CondVarImpl::broadcast
; Line 513
$LN11:
	mov	QWORD PTR [rsp+8], rcx
	push	rdi
	sub	rsp, 224				; 000000e0H
	mov	rdi, rsp
	mov	ecx, 56					; 00000038H
	mov	eax, -858993460				; ccccccccH
	rep stosd
	mov	rcx, QWORD PTR [rsp+240]
	mov	QWORD PTR $T81908[rsp], -2
; Line 516
	mov	rax, QWORD PTR this$[rsp]
	add	rax, 48					; 00000030H
	mov	rcx, rax
	call	QWORD PTR __imp_EnterCriticalSection
; Line 517
	lea	rdx, QWORD PTR $T81895[rsp]
	mov	rcx, QWORD PTR this$[rsp]
	call	?begin@?$deque@PEAXV?$allocator@PEAX@std@@@std@@QEAA?AV?$_Deque_iterator@PEAXV?$allocator@PEAX@std@@@2@XZ ; std::deque<void * __ptr64,std::allocator<void * __ptr64> >::begin
	mov	QWORD PTR tv148[rsp], rax
	mov	rax, QWORD PTR tv148[rsp]
	mov	QWORD PTR tv139[rsp], rax
	mov	rdx, QWORD PTR tv139[rsp]
	lea	rcx, QWORD PTR it_run$[rsp]
	call	??0?$_Deque_const_iterator@PEAXV?$allocator@PEAX@std@@@std@@QEAA@AEBV01@@Z
	npad	1
	lea	rcx, QWORD PTR $T81895[rsp]
	call	??1?$_Deque_iterator@PEAXV?$allocator@PEAX@std@@@std@@QEAA@XZ
; Line 518
	lea	rdx, QWORD PTR $T81896[rsp]
	mov	rcx, QWORD PTR this$[rsp]
	call	?end@?$deque@PEAXV?$allocator@PEAX@std@@@std@@QEAA?AV?$_Deque_iterator@PEAXV?$allocator@PEAX@std@@@2@XZ ; std::deque<void * __ptr64,std::allocator<void * __ptr64> >::end
	mov	QWORD PTR tv67[rsp], rax
	mov	rax, QWORD PTR tv67[rsp]
	mov	QWORD PTR tv142[rsp], rax
	mov	rdx, QWORD PTR tv142[rsp]
	lea	rcx, QWORD PTR it_end$[rsp]
	call	??0?$_Deque_const_iterator@PEAXV?$allocator@PEAX@std@@@std@@QEAA@AEBV01@@Z
	npad	1
	lea	rcx, QWORD PTR $T81896[rsp]
	call	??1?$_Deque_iterator@PEAXV?$allocator@PEAX@std@@@std@@QEAA@XZ
; Line 519
	jmp	SHORT $LN4@broadcast
$LN3@broadcast:
	lea	rcx, QWORD PTR it_run$[rsp]
	call	??E?$_Deque_const_iterator@PEAXV?$allocator@PEAX@std@@@std@@QEAAAEAV01@XZ ; std::_Deque_const_iterator<void * __ptr64,std::allocator<void * __ptr64> >::operator++
$LN4@broadcast:
	lea	rdx, QWORD PTR it_end$[rsp]
	lea	rcx, QWORD PTR it_run$[rsp]
	call	??M?$_Deque_const_iterator@PEAXV?$allocator@PEAX@std@@@std@@QEBA_NAEBV01@@Z ; std::_Deque_const_iterator<void * __ptr64,std::allocator<void * __ptr64> >::operator<
	movzx	eax, al
	test	eax, eax
	je	SHORT $LN2@broadcast
; Line 521
	lea	rcx, QWORD PTR it_run$[rsp]
	call	??D?$_Deque_const_iterator@PEAXV?$allocator@PEAX@std@@@std@@QEBAAEBQEAXXZ ; std::_Deque_const_iterator<void * __ptr64,std::allocator<void * __ptr64> >::operator*
	mov	rcx, QWORD PTR [rax]
	call	QWORD PTR __imp_SetEvent
	test	eax, eax
	jne	SHORT $LN1@broadcast
; Line 522
	mov	DWORD PTR $T81897[rsp], 0
	lea	rcx, QWORD PTR it_end$[rsp]
	call	??1?$_Deque_const_iterator@PEAXV?$allocator@PEAX@std@@@std@@QEAA@XZ
	npad	1
	lea	rcx, QWORD PTR it_run$[rsp]
	call	??1?$_Deque_const_iterator@PEAXV?$allocator@PEAX@std@@@std@@QEAA@XZ
	mov	eax, DWORD PTR $T81897[rsp]
	jmp	SHORT $LN5@broadcast
$LN1@broadcast:
; Line 523
	jmp	SHORT $LN3@broadcast
$LN2@broadcast:
; Line 524
	mov	rcx, QWORD PTR this$[rsp]
	call	?clear@?$deque@PEAXV?$allocator@PEAX@std@@@std@@QEAAXXZ ; std::deque<void * __ptr64,std::allocator<void * __ptr64> >::clear
; Line 525
	mov	rax, QWORD PTR this$[rsp]
	add	rax, 48					; 00000030H
	mov	rcx, rax
	call	QWORD PTR __imp_LeaveCriticalSection
; Line 527
	mov	DWORD PTR $T81898[rsp], 1
	lea	rcx, QWORD PTR it_end$[rsp]
	call	??1?$_Deque_const_iterator@PEAXV?$allocator@PEAX@std@@@std@@QEAA@XZ
	npad	1
	lea	rcx, QWORD PTR it_run$[rsp]
	call	??1?$_Deque_const_iterator@PEAXV?$allocator@PEAX@std@@@std@@QEAA@XZ
	mov	eax, DWORD PTR $T81898[rsp]
$LN5@broadcast:
; Line 528
	mov	rdi, rax
	mov	rcx, rsp
	lea	rdx, OFFSET FLAT:?broadcast@CondVarImpl@streamsdk@@AEAAHXZ$rtcFrameData
	call	_RTC_CheckStackVars
	mov	rax, rdi
	add	rsp, 224				; 000000e0H
	pop	rdi
	ret	0
?broadcast@CondVarImpl@streamsdk@@AEAAHXZ ENDP		; streamsdk::CondVarImpl::broadcast
; Function compile flags: /Odtp /RTCsu
_TEXT	ENDS
text$x	SEGMENT
it_run$ = 40
it_end$ = 88
$T81895 = 120
$T81896 = 144
$T81897 = 168
$T81898 = 172
$T81908 = 176
tv148 = 184
tv139 = 192
tv67 = 200
tv142 = 208
this$ = 240
?dtor$0@?0??broadcast@CondVarImpl@streamsdk@@AEAAHXZ@4HA PROC ; `streamsdk::CondVarImpl::broadcast'::`1'::dtor$0
	mov	QWORD PTR [rsp+8], rcx
	mov	QWORD PTR [rsp+16], rdx
	push	rbp
	push	rdi
	sub	rsp, 40					; 00000028H
	mov	rbp, rdx
	lea	rcx, QWORD PTR $T81895[rbp]
	call	??1?$_Deque_iterator@PEAXV?$allocator@PEAX@std@@@std@@QEAA@XZ
	add	rsp, 40					; 00000028H
	pop	rdi
	pop	rbp
	ret	0
?dtor$0@?0??broadcast@CondVarImpl@streamsdk@@AEAAHXZ@4HA ENDP ; `streamsdk::CondVarImpl::broadcast'::`1'::dtor$0
; Function compile flags: /Odtp /RTCsu
it_run$ = 40
it_end$ = 88
$T81895 = 120
$T81896 = 144
$T81897 = 168
$T81898 = 172
$T81908 = 176
tv148 = 184
tv139 = 192
tv67 = 200
tv142 = 208
this$ = 240
?dtor$1@?0??broadcast@CondVarImpl@streamsdk@@AEAAHXZ@4HA PROC ; `streamsdk::CondVarImpl::broadcast'::`1'::dtor$1
	mov	QWORD PTR [rsp+8], rcx
	mov	QWORD PTR [rsp+16], rdx
	push	rbp
	push	rdi
	sub	rsp, 40					; 00000028H
	mov	rbp, rdx
	lea	rcx, QWORD PTR it_run$[rbp]
	call	??1?$_Deque_const_iterator@PEAXV?$allocator@PEAX@std@@@std@@QEAA@XZ
	add	rsp, 40					; 00000028H
	pop	rdi
	pop	rbp
	ret	0
?dtor$1@?0??broadcast@CondVarImpl@streamsdk@@AEAAHXZ@4HA ENDP ; `streamsdk::CondVarImpl::broadcast'::`1'::dtor$1
; Function compile flags: /Odtp /RTCsu
it_run$ = 40
it_end$ = 88
$T81895 = 120
$T81896 = 144
$T81897 = 168
$T81898 = 172
$T81908 = 176
tv148 = 184
tv139 = 192
tv67 = 200
tv142 = 208
this$ = 240
?dtor$2@?0??broadcast@CondVarImpl@streamsdk@@AEAAHXZ@4HA PROC ; `streamsdk::CondVarImpl::broadcast'::`1'::dtor$2
	mov	QWORD PTR [rsp+8], rcx
	mov	QWORD PTR [rsp+16], rdx
	push	rbp
	push	rdi
	sub	rsp, 40					; 00000028H
	mov	rbp, rdx
	lea	rcx, QWORD PTR $T81896[rbp]
	call	??1?$_Deque_iterator@PEAXV?$allocator@PEAX@std@@@std@@QEAA@XZ
	add	rsp, 40					; 00000028H
	pop	rdi
	pop	rbp
	ret	0
?dtor$2@?0??broadcast@CondVarImpl@streamsdk@@AEAAHXZ@4HA ENDP ; `streamsdk::CondVarImpl::broadcast'::`1'::dtor$2
; Function compile flags: /Odtp /RTCsu
it_run$ = 40
it_end$ = 88
$T81895 = 120
$T81896 = 144
$T81897 = 168
$T81898 = 172
$T81908 = 176
tv148 = 184
tv139 = 192
tv67 = 200
tv142 = 208
this$ = 240
?dtor$3@?0??broadcast@CondVarImpl@streamsdk@@AEAAHXZ@4HA PROC ; `streamsdk::CondVarImpl::broadcast'::`1'::dtor$3
	mov	QWORD PTR [rsp+8], rcx
	mov	QWORD PTR [rsp+16], rdx
	push	rbp
	push	rdi
	sub	rsp, 40					; 00000028H
	mov	rbp, rdx
	lea	rcx, QWORD PTR it_end$[rbp]
	call	??1?$_Deque_const_iterator@PEAXV?$allocator@PEAX@std@@@std@@QEAA@XZ
	add	rsp, 40					; 00000028H
	pop	rdi
	pop	rbp
	ret	0
?dtor$3@?0??broadcast@CondVarImpl@streamsdk@@AEAAHXZ@4HA ENDP ; `streamsdk::CondVarImpl::broadcast'::`1'::dtor$3
text$x	ENDS
;	COMDAT pdata
pdata	SEGMENT
$pdata$??1?$_Deque_iterator@PEAXV?$allocator@PEAX@std@@@std@@QEAA@XZ DD imagerel $LN4
	DD	imagerel $LN4+46
	DD	imagerel $unwind$??1?$_Deque_iterator@PEAXV?$allocator@PEAX@std@@@std@@QEAA@XZ
pdata	ENDS
;	COMDAT xdata
xdata	SEGMENT
$unwind$??1?$_Deque_iterator@PEAXV?$allocator@PEAX@std@@@std@@QEAA@XZ DD 021e01H
	DD	07006320aH
; Function compile flags: /Odtp /RTCsu
xdata	ENDS
;	COMDAT ??1?$_Deque_iterator@PEAXV?$allocator@PEAX@std@@@std@@QEAA@XZ
_TEXT	SEGMENT
this$ = 48
??1?$_Deque_iterator@PEAXV?$allocator@PEAX@std@@@std@@QEAA@XZ PROC ; std::_Deque_iterator<void * __ptr64,std::allocator<void * __ptr64> >::~_Deque_iterator<void * __ptr64,std::allocator<void * __ptr64> >, COMDAT
$LN4:
	mov	QWORD PTR [rsp+8], rcx
	push	rdi
	sub	rsp, 32					; 00000020H
	mov	rdi, rsp
	mov	ecx, 8
	mov	eax, -858993460				; ccccccccH
	rep stosd
	mov	rcx, QWORD PTR [rsp+48]
	mov	rcx, QWORD PTR this$[rsp]
	call	??1?$_Deque_const_iterator@PEAXV?$allocator@PEAX@std@@@std@@QEAA@XZ
	add	rsp, 32					; 00000020H
	pop	rdi
	ret	0
??1?$_Deque_iterator@PEAXV?$allocator@PEAX@std@@@std@@QEAA@XZ ENDP ; std::_Deque_iterator<void * __ptr64,std::allocator<void * __ptr64> >::~_Deque_iterator<void * __ptr64,std::allocator<void * __ptr64> >
_TEXT	ENDS
PUBLIC	??0_Iterator_base12@std@@QEAA@AEBU01@@Z		; std::_Iterator_base12::_Iterator_base12
;	COMDAT pdata
pdata	SEGMENT
$pdata$??0?$_Deque_const_iterator@PEAXV?$allocator@PEAX@std@@@std@@QEAA@AEBV01@@Z DD imagerel $LN4
	DD	imagerel $LN4+79
	DD	imagerel $unwind$??0?$_Deque_const_iterator@PEAXV?$allocator@PEAX@std@@@std@@QEAA@AEBV01@@Z
pdata	ENDS
;	COMDAT xdata
xdata	SEGMENT
$unwind$??0?$_Deque_const_iterator@PEAXV?$allocator@PEAX@std@@@std@@QEAA@AEBV01@@Z DD 022301H
	DD	0700b320fH
; Function compile flags: /Odtp /RTCsu
xdata	ENDS
;	COMDAT ??0?$_Deque_const_iterator@PEAXV?$allocator@PEAX@std@@@std@@QEAA@AEBV01@@Z
_TEXT	SEGMENT
this$ = 48
__that$ = 56
??0?$_Deque_const_iterator@PEAXV?$allocator@PEAX@std@@@std@@QEAA@AEBV01@@Z PROC ; std::_Deque_const_iterator<void * __ptr64,std::allocator<void * __ptr64> >::_Deque_const_iterator<void * __ptr64,std::allocator<void * __ptr64> >, COMDAT
$LN4:
	mov	QWORD PTR [rsp+16], rdx
	mov	QWORD PTR [rsp+8], rcx
	push	rdi
	sub	rsp, 32					; 00000020H
	mov	rdi, rsp
	mov	ecx, 8
	mov	eax, -858993460				; ccccccccH
	rep stosd
	mov	rcx, QWORD PTR [rsp+48]
	mov	rdx, QWORD PTR __that$[rsp]
	mov	rcx, QWORD PTR this$[rsp]
	call	??0_Iterator_base12@std@@QEAA@AEBU01@@Z	; std::_Iterator_base12::_Iterator_base12
	mov	rax, QWORD PTR this$[rsp]
	mov	rcx, QWORD PTR __that$[rsp]
	mov	rcx, QWORD PTR [rcx+16]
	mov	QWORD PTR [rax+16], rcx
	mov	rax, QWORD PTR this$[rsp]
	add	rsp, 32					; 00000020H
	pop	rdi
	ret	0
??0?$_Deque_const_iterator@PEAXV?$allocator@PEAX@std@@@std@@QEAA@AEBV01@@Z ENDP ; std::_Deque_const_iterator<void * __ptr64,std::allocator<void * __ptr64> >::_Deque_const_iterator<void * __ptr64,std::allocator<void * __ptr64> >
_TEXT	ENDS
PUBLIC	??4_Iterator_base12@std@@QEAAAEAU01@AEBU01@@Z	; std::_Iterator_base12::operator=
;	COMDAT pdata
; File c:\program files (x86)\microsoft visual studio 10.0\vc\include\xutility
pdata	SEGMENT
$pdata$??0_Iterator_base12@std@@QEAA@AEBU01@@Z DD imagerel $LN3
	DD	imagerel $LN3+86
	DD	imagerel $unwind$??0_Iterator_base12@std@@QEAA@AEBU01@@Z
pdata	ENDS
;	COMDAT xdata
xdata	SEGMENT
$unwind$??0_Iterator_base12@std@@QEAA@AEBU01@@Z DD 022301H
	DD	0700b320fH
; Function compile flags: /Odtp /RTCsu
xdata	ENDS
;	COMDAT ??0_Iterator_base12@std@@QEAA@AEBU01@@Z
_TEXT	SEGMENT
this$ = 48
_Right$ = 56
??0_Iterator_base12@std@@QEAA@AEBU01@@Z PROC		; std::_Iterator_base12::_Iterator_base12, COMDAT
; Line 116
$LN3:
	mov	QWORD PTR [rsp+16], rdx
	mov	QWORD PTR [rsp+8], rcx
	push	rdi
	sub	rsp, 32					; 00000020H
	mov	rdi, rsp
	mov	ecx, 8
	mov	eax, -858993460				; ccccccccH
	rep stosd
	mov	rcx, QWORD PTR [rsp+48]
	mov	rax, QWORD PTR this$[rsp]
	mov	QWORD PTR [rax], 0
	mov	rax, QWORD PTR this$[rsp]
	mov	QWORD PTR [rax+8], 0
; Line 117
	mov	rdx, QWORD PTR _Right$[rsp]
	mov	rcx, QWORD PTR this$[rsp]
	call	??4_Iterator_base12@std@@QEAAAEAU01@AEBU01@@Z ; std::_Iterator_base12::operator=
; Line 118
	mov	rax, QWORD PTR this$[rsp]
	add	rsp, 32					; 00000020H
	pop	rdi
	ret	0
??0_Iterator_base12@std@@QEAA@AEBU01@@Z ENDP		; std::_Iterator_base12::_Iterator_base12
_TEXT	ENDS
PUBLIC	?_Orphan_me@_Iterator_base12@std@@QEAAXXZ	; std::_Iterator_base12::_Orphan_me
PUBLIC	?_Adopt@_Iterator_base12@std@@QEAAXPEBU_Container_base12@2@@Z ; std::_Iterator_base12::_Adopt
EXTRN	??1_Lockit@std@@QEAA@XZ:PROC			; std::_Lockit::~_Lockit
EXTRN	??0_Lockit@std@@QEAA@H@Z:PROC			; std::_Lockit::_Lockit
;	COMDAT pdata
pdata	SEGMENT
$pdata$??4_Iterator_base12@std@@QEAAAEAU01@AEBU01@@Z DD imagerel $LN8
	DD	imagerel $LN8+167
	DD	imagerel $unwind$??4_Iterator_base12@std@@QEAAAEAU01@AEBU01@@Z
pdata	ENDS
;	COMDAT pdata
pdata	SEGMENT
$pdata$?dtor$0@?0???4_Iterator_base12@std@@QEAAAEAU01@AEBU01@@Z@4HA DD imagerel ?dtor$0@?0???4_Iterator_base12@std@@QEAAAEAU01@AEBU01@@Z@4HA
	DD	imagerel ?dtor$0@?0???4_Iterator_base12@std@@QEAAAEAU01@AEBU01@@Z@4HA+35
	DD	imagerel $unwind$?dtor$0@?0???4_Iterator_base12@std@@QEAAAEAU01@AEBU01@@Z@4HA
pdata	ENDS
;	COMDAT xdata
xdata	SEGMENT
$ip2state$??4_Iterator_base12@std@@QEAAAEAU01@AEBU01@@Z DD imagerel ??4_Iterator_base12@std@@QEAAAEAU01@AEBU01@@Z
	DD	0ffffffffH
	DD	imagerel ??4_Iterator_base12@std@@QEAAAEAU01@AEBU01@@Z+114
	DD	00H
	DD	imagerel ??4_Iterator_base12@std@@QEAAAEAU01@AEBU01@@Z+125
	DD	0ffffffffH
xdata	ENDS
;	COMDAT xdata
xdata	SEGMENT
$unwind$?dtor$0@?0???4_Iterator_base12@std@@QEAAAEAU01@AEBU01@@Z@4HA DD 031001H
	DD	0700c4210H
	DD	0500bH
xdata	ENDS
;	COMDAT xdata
xdata	SEGMENT
$unwind$??4_Iterator_base12@std@@QEAAAEAU01@AEBU01@@Z DD 022c11H
	DD	0700b720fH
	DD	imagerel __CxxFrameHandler3
	DD	imagerel $cppxdata$??4_Iterator_base12@std@@QEAAAEAU01@AEBU01@@Z
xdata	ENDS
;	COMDAT xdata
xdata	SEGMENT
$stateUnwindMap$??4_Iterator_base12@std@@QEAAAEAU01@AEBU01@@Z DD 0ffffffffH
	DD	imagerel ?dtor$0@?0???4_Iterator_base12@std@@QEAAAEAU01@AEBU01@@Z@4HA
xdata	ENDS
;	COMDAT CONST
CONST	SEGMENT
??4_Iterator_base12@std@@QEAAAEAU01@AEBU01@@Z$rtcName$0 DB 05fH ; std::_Iterator_base12::operator=
	DB	04cH
	DB	06fH
	DB	063H
	DB	06bH
	DB	00H
	ORG $+10
??4_Iterator_base12@std@@QEAAAEAU01@AEBU01@@Z$rtcVarDesc DD 024H ; std::_Iterator_base12::operator=
	DD	04H
	DQ	FLAT:??4_Iterator_base12@std@@QEAAAEAU01@AEBU01@@Z$rtcName$0
	ORG $+48
??4_Iterator_base12@std@@QEAAAEAU01@AEBU01@@Z$rtcFrameData DD 01H ; std::_Iterator_base12::operator=
	DD	00H
	DQ	FLAT:??4_Iterator_base12@std@@QEAAAEAU01@AEBU01@@Z$rtcVarDesc
$cppxdata$??4_Iterator_base12@std@@QEAAAEAU01@AEBU01@@Z DD 019930522H
	DD	01H
	DD	imagerel $stateUnwindMap$??4_Iterator_base12@std@@QEAAAEAU01@AEBU01@@Z
	DD	00H
	DD	00H
	DD	03H
	DD	imagerel $ip2state$??4_Iterator_base12@std@@QEAAAEAU01@AEBU01@@Z
	DD	038H
	DD	00H
	DD	01H
; Function compile flags: /Odtp /RTCsu
CONST	ENDS
;	COMDAT ??4_Iterator_base12@std@@QEAAAEAU01@AEBU01@@Z
_TEXT	SEGMENT
_Lock$68401 = 36
$T81963 = 56
this$ = 80
_Right$ = 88
??4_Iterator_base12@std@@QEAAAEAU01@AEBU01@@Z PROC	; std::_Iterator_base12::operator=, COMDAT
; Line 121
$LN8:
	mov	QWORD PTR [rsp+16], rdx
	mov	QWORD PTR [rsp+8], rcx
	push	rdi
	sub	rsp, 64					; 00000040H
	mov	rdi, rsp
	mov	ecx, 16
	mov	eax, -858993460				; ccccccccH
	rep stosd
	mov	rcx, QWORD PTR [rsp+80]
	mov	QWORD PTR $T81963[rsp], -2
; Line 122
	mov	rax, QWORD PTR this$[rsp]
	mov	rcx, QWORD PTR _Right$[rsp]
	mov	rcx, QWORD PTR [rcx]
	cmp	QWORD PTR [rax], rcx
	jne	SHORT $LN4@operator
	jmp	SHORT $LN3@operator
$LN4@operator:
; Line 124
	mov	rax, QWORD PTR _Right$[rsp]
	cmp	QWORD PTR [rax], 0
	je	SHORT $LN2@operator
; Line 125
	mov	rax, QWORD PTR _Right$[rsp]
	mov	rax, QWORD PTR [rax]
	mov	rdx, QWORD PTR [rax]
	mov	rcx, QWORD PTR this$[rsp]
	call	?_Adopt@_Iterator_base12@std@@QEAAXPEBU_Container_base12@2@@Z ; std::_Iterator_base12::_Adopt
; Line 126
	jmp	SHORT $LN3@operator
$LN2@operator:
; Line 128
	mov	edx, 3
	lea	rcx, QWORD PTR _Lock$68401[rsp]
	call	??0_Lockit@std@@QEAA@H@Z		; std::_Lockit::_Lockit
	npad	1
; Line 129
	mov	rcx, QWORD PTR this$[rsp]
	call	?_Orphan_me@_Iterator_base12@std@@QEAAXXZ ; std::_Iterator_base12::_Orphan_me
	npad	1
; Line 130
	lea	rcx, QWORD PTR _Lock$68401[rsp]
	call	??1_Lockit@std@@QEAA@XZ			; std::_Lockit::~_Lockit
$LN3@operator:
; Line 131
	mov	rax, QWORD PTR this$[rsp]
; Line 132
	mov	rdi, rax
	mov	rcx, rsp
	lea	rdx, OFFSET FLAT:??4_Iterator_base12@std@@QEAAAEAU01@AEBU01@@Z$rtcFrameData
	call	_RTC_CheckStackVars
	mov	rax, rdi
	add	rsp, 64					; 00000040H
	pop	rdi
	ret	0
??4_Iterator_base12@std@@QEAAAEAU01@AEBU01@@Z ENDP	; std::_Iterator_base12::operator=
; Function compile flags: /Odtp /RTCsu
_TEXT	ENDS
;	COMDAT text$x
text$x	SEGMENT
_Lock$68401 = 36
$T81963 = 56
this$ = 80
_Right$ = 88
?dtor$0@?0???4_Iterator_base12@std@@QEAAAEAU01@AEBU01@@Z@4HA PROC ; `std::_Iterator_base12::operator='::`1'::dtor$0
	mov	QWORD PTR [rsp+8], rcx
	mov	QWORD PTR [rsp+16], rdx
	push	rbp
	push	rdi
	sub	rsp, 40					; 00000028H
	mov	rbp, rdx
	lea	rcx, QWORD PTR _Lock$68401[rbp]
	call	??1_Lockit@std@@QEAA@XZ			; std::_Lockit::~_Lockit
	add	rsp, 40					; 00000028H
	pop	rdi
	pop	rbp
	ret	0
?dtor$0@?0???4_Iterator_base12@std@@QEAAAEAU01@AEBU01@@Z@4HA ENDP ; `std::_Iterator_base12::operator='::`1'::dtor$0
text$x	ENDS
;	COMDAT pdata
pdata	SEGMENT
$pdata$?_Adopt@_Iterator_base12@std@@QEAAXPEBU_Container_base12@2@@Z DD imagerel $LN8
	DD	imagerel $LN8+221
	DD	imagerel $unwind$?_Adopt@_Iterator_base12@std@@QEAAXPEBU_Container_base12@2@@Z
pdata	ENDS
;	COMDAT pdata
pdata	SEGMENT
$pdata$?dtor$0@?0??_Adopt@_Iterator_base12@std@@QEAAXPEBU_Container_base12@2@@Z@4HA DD imagerel ?dtor$0@?0??_Adopt@_Iterator_base12@std@@QEAAXPEBU_Container_base12@2@@Z@4HA
	DD	imagerel ?dtor$0@?0??_Adopt@_Iterator_base12@std@@QEAAXPEBU_Container_base12@2@@Z@4HA+35
	DD	imagerel $unwind$?dtor$0@?0??_Adopt@_Iterator_base12@std@@QEAAXPEBU_Container_base12@2@@Z@4HA
pdata	ENDS
;	COMDAT pdata
pdata	SEGMENT
$pdata$?dtor$1@?0??_Adopt@_Iterator_base12@std@@QEAAXPEBU_Container_base12@2@@Z@4HA DD imagerel ?dtor$1@?0??_Adopt@_Iterator_base12@std@@QEAAXPEBU_Container_base12@2@@Z@4HA
	DD	imagerel ?dtor$1@?0??_Adopt@_Iterator_base12@std@@QEAAXPEBU_Container_base12@2@@Z@4HA+35
	DD	imagerel $unwind$?dtor$1@?0??_Adopt@_Iterator_base12@std@@QEAAXPEBU_Container_base12@2@@Z@4HA
pdata	ENDS
;	COMDAT xdata
xdata	SEGMENT
$ip2state$?_Adopt@_Iterator_base12@std@@QEAAXPEBU_Container_base12@2@@Z DD imagerel ?_Adopt@_Iterator_base12@std@@QEAAXPEBU_Container_base12@2@@Z
	DD	0ffffffffH
	DD	imagerel ?_Adopt@_Iterator_base12@std@@QEAAXPEBU_Container_base12@2@@Z+68
	DD	00H
	DD	imagerel ?_Adopt@_Iterator_base12@std@@QEAAXPEBU_Container_base12@2@@Z+79
	DD	0ffffffffH
	DD	imagerel ?_Adopt@_Iterator_base12@std@@QEAAXPEBU_Container_base12@2@@Z+135
	DD	01H
	DD	imagerel ?_Adopt@_Iterator_base12@std@@QEAAXPEBU_Container_base12@2@@Z+190
	DD	0ffffffffH
xdata	ENDS
;	COMDAT xdata
xdata	SEGMENT
$unwind$?dtor$1@?0??_Adopt@_Iterator_base12@std@@QEAAXPEBU_Container_base12@2@@Z@4HA DD 031001H
	DD	0700c4210H
	DD	0500bH
xdata	ENDS
;	COMDAT xdata
xdata	SEGMENT
$unwind$?dtor$0@?0??_Adopt@_Iterator_base12@std@@QEAAXPEBU_Container_base12@2@@Z@4HA DD 031001H
	DD	0700c4210H
	DD	0500bH
xdata	ENDS
;	COMDAT xdata
xdata	SEGMENT
$unwind$?_Adopt@_Iterator_base12@std@@QEAAXPEBU_Container_base12@2@@Z DD 022c11H
	DD	0700bb20fH
	DD	imagerel __CxxFrameHandler3
	DD	imagerel $cppxdata$?_Adopt@_Iterator_base12@std@@QEAAXPEBU_Container_base12@2@@Z
xdata	ENDS
;	COMDAT xdata
xdata	SEGMENT
$stateUnwindMap$?_Adopt@_Iterator_base12@std@@QEAAXPEBU_Container_base12@2@@Z DD 0ffffffffH
	DD	imagerel ?dtor$0@?0??_Adopt@_Iterator_base12@std@@QEAAXPEBU_Container_base12@2@@Z@4HA
	DD	0ffffffffH
	DD	imagerel ?dtor$1@?0??_Adopt@_Iterator_base12@std@@QEAAXPEBU_Container_base12@2@@Z@4HA
xdata	ENDS
;	COMDAT CONST
CONST	SEGMENT
?_Adopt@_Iterator_base12@std@@QEAAXPEBU_Container_base12@2@@Z$rtcName$0 DB 05fH ; std::_Iterator_base12::_Adopt
	DB	04cH
	DB	06fH
	DB	063H
	DB	06bH
	DB	00H
	ORG $+2
?_Adopt@_Iterator_base12@std@@QEAAXPEBU_Container_base12@2@@Z$rtcName$1 DB 05fH ; std::_Iterator_base12::_Adopt
	DB	04cH
	DB	06fH
	DB	063H
	DB	06bH
	DB	00H
	ORG $+2
?_Adopt@_Iterator_base12@std@@QEAAXPEBU_Container_base12@2@@Z$rtcVarDesc DD 044H ; std::_Iterator_base12::_Adopt
	DD	04H
	DQ	FLAT:?_Adopt@_Iterator_base12@std@@QEAAXPEBU_Container_base12@2@@Z$rtcName$1
	DD	024H
	DD	04H
	DQ	FLAT:?_Adopt@_Iterator_base12@std@@QEAAXPEBU_Container_base12@2@@Z$rtcName$0
	ORG $+96
?_Adopt@_Iterator_base12@std@@QEAAXPEBU_Container_base12@2@@Z$rtcFrameData DD 02H ; std::_Iterator_base12::_Adopt
	DD	00H
	DQ	FLAT:?_Adopt@_Iterator_base12@std@@QEAAXPEBU_Container_base12@2@@Z$rtcVarDesc
$cppxdata$?_Adopt@_Iterator_base12@std@@QEAAXPEBU_Container_base12@2@@Z DD 019930522H
	DD	02H
	DD	imagerel $stateUnwindMap$?_Adopt@_Iterator_base12@std@@QEAAXPEBU_Container_base12@2@@Z
	DD	00H
	DD	00H
	DD	05H
	DD	imagerel $ip2state$?_Adopt@_Iterator_base12@std@@QEAAXPEBU_Container_base12@2@@Z
	DD	058H
	DD	00H
	DD	01H
; Function compile flags: /Odtp /RTCsu
CONST	ENDS
;	COMDAT ?_Adopt@_Iterator_base12@std@@QEAAXPEBU_Container_base12@2@@Z
_TEXT	SEGMENT
_Lock$68408 = 36
_Parent_proxy$68410 = 56
_Lock$68412 = 68
$T81991 = 88
this$ = 112
_Parent$ = 120
?_Adopt@_Iterator_base12@std@@QEAAXPEBU_Container_base12@2@@Z PROC ; std::_Iterator_base12::_Adopt, COMDAT
; Line 143
$LN8:
	mov	QWORD PTR [rsp+16], rdx
	mov	QWORD PTR [rsp+8], rcx
	push	rdi
	sub	rsp, 96					; 00000060H
	mov	rdi, rsp
	mov	ecx, 24
	mov	eax, -858993460				; ccccccccH
	rep stosd
	mov	rcx, QWORD PTR [rsp+112]
	mov	QWORD PTR $T81991[rsp], -2
; Line 144
	cmp	QWORD PTR _Parent$[rsp], 0
	jne	SHORT $LN3@Adopt
; Line 146
	mov	edx, 3
	lea	rcx, QWORD PTR _Lock$68408[rsp]
	call	??0_Lockit@std@@QEAA@H@Z		; std::_Lockit::_Lockit
	npad	1
; Line 147
	mov	rcx, QWORD PTR this$[rsp]
	call	?_Orphan_me@_Iterator_base12@std@@QEAAXXZ ; std::_Iterator_base12::_Orphan_me
	npad	1
; Line 148
	lea	rcx, QWORD PTR _Lock$68408[rsp]
	call	??1_Lockit@std@@QEAA@XZ			; std::_Lockit::~_Lockit
; Line 149
	jmp	SHORT $LN2@Adopt
$LN3@Adopt:
; Line 151
	mov	rax, QWORD PTR _Parent$[rsp]
	mov	rax, QWORD PTR [rax]
	mov	QWORD PTR _Parent_proxy$68410[rsp], rax
; Line 154
	mov	rax, QWORD PTR this$[rsp]
	mov	rcx, QWORD PTR _Parent_proxy$68410[rsp]
	cmp	QWORD PTR [rax], rcx
	je	SHORT $LN2@Adopt
; Line 156
	mov	edx, 3
	lea	rcx, QWORD PTR _Lock$68412[rsp]
	call	??0_Lockit@std@@QEAA@H@Z		; std::_Lockit::_Lockit
	npad	1
; Line 157
	mov	rcx, QWORD PTR this$[rsp]
	call	?_Orphan_me@_Iterator_base12@std@@QEAAXXZ ; std::_Iterator_base12::_Orphan_me
; Line 158
	mov	rax, QWORD PTR this$[rsp]
	mov	rcx, QWORD PTR _Parent_proxy$68410[rsp]
	mov	rcx, QWORD PTR [rcx+8]
	mov	QWORD PTR [rax+8], rcx
; Line 159
	mov	rax, QWORD PTR _Parent_proxy$68410[rsp]
	mov	rcx, QWORD PTR this$[rsp]
	mov	QWORD PTR [rax+8], rcx
; Line 160
	mov	rax, QWORD PTR this$[rsp]
	mov	rcx, QWORD PTR _Parent_proxy$68410[rsp]
	mov	QWORD PTR [rax], rcx
; Line 161
	lea	rcx, QWORD PTR _Lock$68412[rsp]
	call	??1_Lockit@std@@QEAA@XZ			; std::_Lockit::~_Lockit
$LN2@Adopt:
; Line 166
	mov	rcx, rsp
	lea	rdx, OFFSET FLAT:?_Adopt@_Iterator_base12@std@@QEAAXPEBU_Container_base12@2@@Z$rtcFrameData
	call	_RTC_CheckStackVars
	add	rsp, 96					; 00000060H
	pop	rdi
	ret	0
?_Adopt@_Iterator_base12@std@@QEAAXPEBU_Container_base12@2@@Z ENDP ; std::_Iterator_base12::_Adopt
; Function compile flags: /Odtp /RTCsu
_TEXT	ENDS
;	COMDAT text$x
text$x	SEGMENT
_Lock$68408 = 36
_Parent_proxy$68410 = 56
_Lock$68412 = 68
$T81991 = 88
this$ = 112
_Parent$ = 120
?dtor$0@?0??_Adopt@_Iterator_base12@std@@QEAAXPEBU_Container_base12@2@@Z@4HA PROC ; `std::_Iterator_base12::_Adopt'::`1'::dtor$0
	mov	QWORD PTR [rsp+8], rcx
	mov	QWORD PTR [rsp+16], rdx
	push	rbp
	push	rdi
	sub	rsp, 40					; 00000028H
	mov	rbp, rdx
	lea	rcx, QWORD PTR _Lock$68408[rbp]
	call	??1_Lockit@std@@QEAA@XZ			; std::_Lockit::~_Lockit
	add	rsp, 40					; 00000028H
	pop	rdi
	pop	rbp
	ret	0
?dtor$0@?0??_Adopt@_Iterator_base12@std@@QEAAXPEBU_Container_base12@2@@Z@4HA ENDP ; `std::_Iterator_base12::_Adopt'::`1'::dtor$0
; Function compile flags: /Odtp /RTCsu
_Lock$68408 = 36
_Parent_proxy$68410 = 56
_Lock$68412 = 68
$T81991 = 88
this$ = 112
_Parent$ = 120
?dtor$1@?0??_Adopt@_Iterator_base12@std@@QEAAXPEBU_Container_base12@2@@Z@4HA PROC ; `std::_Iterator_base12::_Adopt'::`1'::dtor$1
	mov	QWORD PTR [rsp+8], rcx
	mov	QWORD PTR [rsp+16], rdx
	push	rbp
	push	rdi
	sub	rsp, 40					; 00000028H
	mov	rbp, rdx
	lea	rcx, QWORD PTR _Lock$68412[rbp]
	call	??1_Lockit@std@@QEAA@XZ			; std::_Lockit::~_Lockit
	add	rsp, 40					; 00000028H
	pop	rdi
	pop	rbp
	ret	0
?dtor$1@?0??_Adopt@_Iterator_base12@std@@QEAAXPEBU_Container_base12@2@@Z@4HA ENDP ; `std::_Iterator_base12::_Adopt'::`1'::dtor$1
text$x	ENDS
PUBLIC	??_C@_1DC@POOIKBAO@?$AAI?$AAT?$AAE?$AAR?$AAA?$AAT?$AAO?$AAR?$AA?5?$AAL?$AAI?$AAS?$AAT?$AA?5?$AAC?$AAO?$AAR?$AAR?$AAU?$AAP?$AAT?$AAE?$AAD?$AA?$CB?$AA?$AA@ ; `string'
PUBLIC	??_C@_1JA@HCKHPKJH@?$AAc?$AA?3?$AA?2?$AAP?$AAr?$AAo?$AAg?$AAr?$AAa?$AAm?$AA?5?$AAF?$AAi?$AAl?$AAe?$AAs?$AA?5?$AA?$CI?$AAx?$AA8?$AA6?$AA?$CJ?$AA?2?$AAM?$AAi?$AAc?$AAr?$AAo?$AAs?$AAo?$AAf?$AAt@ ; `string'
EXTRN	?_Debug_message@std@@YAXPEB_W0I@Z:PROC		; std::_Debug_message
;	COMDAT pdata
pdata	SEGMENT
$pdata$?_Orphan_me@_Iterator_base12@std@@QEAAXXZ DD imagerel $LN7
	DD	imagerel $LN7+174
	DD	imagerel $unwind$?_Orphan_me@_Iterator_base12@std@@QEAAXXZ
pdata	ENDS
;	COMDAT xdata
xdata	SEGMENT
$unwind$?_Orphan_me@_Iterator_base12@std@@QEAAXXZ DD 021e01H
	DD	07006520aH
xdata	ENDS
;	COMDAT ??_C@_1DC@POOIKBAO@?$AAI?$AAT?$AAE?$AAR?$AAA?$AAT?$AAO?$AAR?$AA?5?$AAL?$AAI?$AAS?$AAT?$AA?5?$AAC?$AAO?$AAR?$AAR?$AAU?$AAP?$AAT?$AAE?$AAD?$AA?$CB?$AA?$AA@
CONST	SEGMENT
??_C@_1DC@POOIKBAO@?$AAI?$AAT?$AAE?$AAR?$AAA?$AAT?$AAO?$AAR?$AA?5?$AAL?$AAI?$AAS?$AAT?$AA?5?$AAC?$AAO?$AAR?$AAR?$AAU?$AAP?$AAT?$AAE?$AAD?$AA?$CB?$AA?$AA@ DB 'I'
	DB	00H, 'T', 00H, 'E', 00H, 'R', 00H, 'A', 00H, 'T', 00H, 'O', 00H
	DB	'R', 00H, ' ', 00H, 'L', 00H, 'I', 00H, 'S', 00H, 'T', 00H, ' '
	DB	00H, 'C', 00H, 'O', 00H, 'R', 00H, 'R', 00H, 'U', 00H, 'P', 00H
	DB	'T', 00H, 'E', 00H, 'D', 00H, '!', 00H, 00H, 00H ; `string'
CONST	ENDS
;	COMDAT ??_C@_1JA@HCKHPKJH@?$AAc?$AA?3?$AA?2?$AAP?$AAr?$AAo?$AAg?$AAr?$AAa?$AAm?$AA?5?$AAF?$AAi?$AAl?$AAe?$AAs?$AA?5?$AA?$CI?$AAx?$AA8?$AA6?$AA?$CJ?$AA?2?$AAM?$AAi?$AAc?$AAr?$AAo?$AAs?$AAo?$AAf?$AAt@
CONST	SEGMENT
??_C@_1JA@HCKHPKJH@?$AAc?$AA?3?$AA?2?$AAP?$AAr?$AAo?$AAg?$AAr?$AAa?$AAm?$AA?5?$AAF?$AAi?$AAl?$AAe?$AAs?$AA?5?$AA?$CI?$AAx?$AA8?$AA6?$AA?$CJ?$AA?2?$AAM?$AAi?$AAc?$AAr?$AAo?$AAs?$AAo?$AAf?$AAt@ DB 'c'
	DB	00H, ':', 00H, '\', 00H, 'P', 00H, 'r', 00H, 'o', 00H, 'g', 00H
	DB	'r', 00H, 'a', 00H, 'm', 00H, ' ', 00H, 'F', 00H, 'i', 00H, 'l'
	DB	00H, 'e', 00H, 's', 00H, ' ', 00H, '(', 00H, 'x', 00H, '8', 00H
	DB	'6', 00H, ')', 00H, '\', 00H, 'M', 00H, 'i', 00H, 'c', 00H, 'r'
	DB	00H, 'o', 00H, 's', 00H, 'o', 00H, 'f', 00H, 't', 00H, ' ', 00H
	DB	'V', 00H, 'i', 00H, 's', 00H, 'u', 00H, 'a', 00H, 'l', 00H, ' '
	DB	00H, 'S', 00H, 't', 00H, 'u', 00H, 'd', 00H, 'i', 00H, 'o', 00H
	DB	' ', 00H, '1', 00H, '0', 00H, '.', 00H, '0', 00H, '\', 00H, 'V'
	DB	00H, 'C', 00H, '\', 00H, 'i', 00H, 'n', 00H, 'c', 00H, 'l', 00H
	DB	'u', 00H, 'd', 00H, 'e', 00H, '\', 00H, 'x', 00H, 'u', 00H, 't'
	DB	00H, 'i', 00H, 'l', 00H, 'i', 00H, 't', 00H, 'y', 00H, 00H, 00H ; `string'
; Function compile flags: /Odtp /RTCsu
CONST	ENDS
;	COMDAT ?_Orphan_me@_Iterator_base12@std@@QEAAXXZ
_TEXT	SEGMENT
_Pnext$68422 = 32
this$ = 64
?_Orphan_me@_Iterator_base12@std@@QEAAXXZ PROC		; std::_Iterator_base12::_Orphan_me, COMDAT
; Line 184
$LN7:
	mov	QWORD PTR [rsp+8], rcx
	push	rdi
	sub	rsp, 48					; 00000030H
	mov	rdi, rsp
	mov	ecx, 12
	mov	eax, -858993460				; ccccccccH
	rep stosd
	mov	rcx, QWORD PTR [rsp+64]
; Line 186
	mov	rax, QWORD PTR this$[rsp]
	cmp	QWORD PTR [rax], 0
	je	SHORT $LN4@Orphan_me
; Line 188
	mov	rax, QWORD PTR this$[rsp]
	mov	rax, QWORD PTR [rax]
	add	rax, 8
	mov	QWORD PTR _Pnext$68422[rsp], rax
$LN3@Orphan_me:
; Line 189
	mov	rax, QWORD PTR _Pnext$68422[rsp]
	cmp	QWORD PTR [rax], 0
	je	SHORT $LN2@Orphan_me
	mov	rax, QWORD PTR _Pnext$68422[rsp]
	mov	rcx, QWORD PTR this$[rsp]
	cmp	QWORD PTR [rax], rcx
	je	SHORT $LN2@Orphan_me
; Line 190
	mov	rax, QWORD PTR _Pnext$68422[rsp]
	mov	rax, QWORD PTR [rax]
	add	rax, 8
	mov	QWORD PTR _Pnext$68422[rsp], rax
	jmp	SHORT $LN3@Orphan_me
$LN2@Orphan_me:
; Line 192
	mov	rax, QWORD PTR _Pnext$68422[rsp]
	cmp	QWORD PTR [rax], 0
	jne	SHORT $LN1@Orphan_me
; Line 193
	mov	r8d, 193				; 000000c1H
	lea	rdx, OFFSET FLAT:??_C@_1JA@HCKHPKJH@?$AAc?$AA?3?$AA?2?$AAP?$AAr?$AAo?$AAg?$AAr?$AAa?$AAm?$AA?5?$AAF?$AAi?$AAl?$AAe?$AAs?$AA?5?$AA?$CI?$AAx?$AA8?$AA6?$AA?$CJ?$AA?2?$AAM?$AAi?$AAc?$AAr?$AAo?$AAs?$AAo?$AAf?$AAt@
	lea	rcx, OFFSET FLAT:??_C@_1DC@POOIKBAO@?$AAI?$AAT?$AAE?$AAR?$AAA?$AAT?$AAO?$AAR?$AA?5?$AAL?$AAI?$AAS?$AAT?$AA?5?$AAC?$AAO?$AAR?$AAR?$AAU?$AAP?$AAT?$AAE?$AAD?$AA?$CB?$AA?$AA@
	call	?_Debug_message@std@@YAXPEB_W0I@Z	; std::_Debug_message
$LN1@Orphan_me:
; Line 194
	mov	rax, QWORD PTR _Pnext$68422[rsp]
	mov	rcx, QWORD PTR this$[rsp]
	mov	rcx, QWORD PTR [rcx+8]
	mov	QWORD PTR [rax], rcx
; Line 195
	mov	rax, QWORD PTR this$[rsp]
	mov	QWORD PTR [rax], 0
$LN4@Orphan_me:
; Line 198
	add	rsp, 48					; 00000030H
	pop	rdi
	ret	0
?_Orphan_me@_Iterator_base12@std@@QEAAXXZ ENDP		; std::_Iterator_base12::_Orphan_me
_TEXT	ENDS
PUBLIC	??1_Iterator_base12@std@@QEAA@XZ		; std::_Iterator_base12::~_Iterator_base12
;	COMDAT pdata
pdata	SEGMENT
$pdata$??1?$_Deque_const_iterator@PEAXV?$allocator@PEAX@std@@@std@@QEAA@XZ DD imagerel $LN4
	DD	imagerel $LN4+46
	DD	imagerel $unwind$??1?$_Deque_const_iterator@PEAXV?$allocator@PEAX@std@@@std@@QEAA@XZ
pdata	ENDS
;	COMDAT xdata
xdata	SEGMENT
$unwind$??1?$_Deque_const_iterator@PEAXV?$allocator@PEAX@std@@@std@@QEAA@XZ DD 021e01H
	DD	07006320aH
; Function compile flags: /Odtp /RTCsu
xdata	ENDS
;	COMDAT ??1?$_Deque_const_iterator@PEAXV?$allocator@PEAX@std@@@std@@QEAA@XZ
_TEXT	SEGMENT
this$ = 48
??1?$_Deque_const_iterator@PEAXV?$allocator@PEAX@std@@@std@@QEAA@XZ PROC ; std::_Deque_const_iterator<void * __ptr64,std::allocator<void * __ptr64> >::~_Deque_const_iterator<void * __ptr64,std::allocator<void * __ptr64> >, COMDAT
$LN4:
	mov	QWORD PTR [rsp+8], rcx
	push	rdi
	sub	rsp, 32					; 00000020H
	mov	rdi, rsp
	mov	ecx, 8
	mov	eax, -858993460				; ccccccccH
	rep stosd
	mov	rcx, QWORD PTR [rsp+48]
	mov	rcx, QWORD PTR this$[rsp]
	call	??1_Iterator_base12@std@@QEAA@XZ	; std::_Iterator_base12::~_Iterator_base12
	add	rsp, 32					; 00000020H
	pop	rdi
	ret	0
??1?$_Deque_const_iterator@PEAXV?$allocator@PEAX@std@@@std@@QEAA@XZ ENDP ; std::_Deque_const_iterator<void * __ptr64,std::allocator<void * __ptr64> >::~_Deque_const_iterator<void * __ptr64,std::allocator<void * __ptr64> >
_TEXT	ENDS
;	COMDAT pdata
pdata	SEGMENT
$pdata$??1_Iterator_base12@std@@QEAA@XZ DD imagerel $LN4
	DD	imagerel $LN4+97
	DD	imagerel $unwind$??1_Iterator_base12@std@@QEAA@XZ
pdata	ENDS
;	COMDAT pdata
pdata	SEGMENT
$pdata$?dtor$0@?0???1_Iterator_base12@std@@QEAA@XZ@4HA DD imagerel ?dtor$0@?0???1_Iterator_base12@std@@QEAA@XZ@4HA
	DD	imagerel ?dtor$0@?0???1_Iterator_base12@std@@QEAA@XZ@4HA+35
	DD	imagerel $unwind$?dtor$0@?0???1_Iterator_base12@std@@QEAA@XZ@4HA
pdata	ENDS
;	COMDAT xdata
xdata	SEGMENT
$ip2state$??1_Iterator_base12@std@@QEAA@XZ DD imagerel ??1_Iterator_base12@std@@QEAA@XZ
	DD	0ffffffffH
	DD	imagerel ??1_Iterator_base12@std@@QEAA@XZ+55
	DD	00H
	DD	imagerel ??1_Iterator_base12@std@@QEAA@XZ+66
	DD	0ffffffffH
xdata	ENDS
;	COMDAT xdata
xdata	SEGMENT
$unwind$?dtor$0@?0???1_Iterator_base12@std@@QEAA@XZ@4HA DD 031001H
	DD	0700c4210H
	DD	0500bH
xdata	ENDS
;	COMDAT xdata
xdata	SEGMENT
$unwind$??1_Iterator_base12@std@@QEAA@XZ DD 022711H
	DD	07006720aH
	DD	imagerel __CxxFrameHandler3
	DD	imagerel $cppxdata$??1_Iterator_base12@std@@QEAA@XZ
xdata	ENDS
;	COMDAT xdata
xdata	SEGMENT
$stateUnwindMap$??1_Iterator_base12@std@@QEAA@XZ DD 0ffffffffH
	DD	imagerel ?dtor$0@?0???1_Iterator_base12@std@@QEAA@XZ@4HA
xdata	ENDS
;	COMDAT CONST
CONST	SEGMENT
??1_Iterator_base12@std@@QEAA@XZ$rtcName$0 DB 05fH	; std::_Iterator_base12::~_Iterator_base12
	DB	04cH
	DB	06fH
	DB	063H
	DB	06bH
	DB	00H
	ORG $+10
??1_Iterator_base12@std@@QEAA@XZ$rtcVarDesc DD 024H	; std::_Iterator_base12::~_Iterator_base12
	DD	04H
	DQ	FLAT:??1_Iterator_base12@std@@QEAA@XZ$rtcName$0
	ORG $+48
??1_Iterator_base12@std@@QEAA@XZ$rtcFrameData DD 01H	; std::_Iterator_base12::~_Iterator_base12
	DD	00H
	DQ	FLAT:??1_Iterator_base12@std@@QEAA@XZ$rtcVarDesc
$cppxdata$??1_Iterator_base12@std@@QEAA@XZ DD 019930522H
	DD	01H
	DD	imagerel $stateUnwindMap$??1_Iterator_base12@std@@QEAA@XZ
	DD	00H
	DD	00H
	DD	03H
	DD	imagerel $ip2state$??1_Iterator_base12@std@@QEAA@XZ
	DD	038H
	DD	00H
	DD	01H
; Function compile flags: /Odtp /RTCsu
CONST	ENDS
;	COMDAT ??1_Iterator_base12@std@@QEAA@XZ
_TEXT	SEGMENT
_Lock$ = 36
$T82040 = 56
this$ = 80
??1_Iterator_base12@std@@QEAA@XZ PROC			; std::_Iterator_base12::~_Iterator_base12, COMDAT
; Line 135
$LN4:
	mov	QWORD PTR [rsp+8], rcx
	push	rdi
	sub	rsp, 64					; 00000040H
	mov	rdi, rsp
	mov	ecx, 16
	mov	eax, -858993460				; ccccccccH
	rep stosd
	mov	rcx, QWORD PTR [rsp+80]
	mov	QWORD PTR $T82040[rsp], -2
; Line 137
	mov	edx, 3
	lea	rcx, QWORD PTR _Lock$[rsp]
	call	??0_Lockit@std@@QEAA@H@Z		; std::_Lockit::_Lockit
	npad	1
; Line 138
	mov	rcx, QWORD PTR this$[rsp]
	call	?_Orphan_me@_Iterator_base12@std@@QEAAXXZ ; std::_Iterator_base12::_Orphan_me
	npad	1
; Line 140
	lea	rcx, QWORD PTR _Lock$[rsp]
	call	??1_Lockit@std@@QEAA@XZ			; std::_Lockit::~_Lockit
	mov	rcx, rsp
	lea	rdx, OFFSET FLAT:??1_Iterator_base12@std@@QEAA@XZ$rtcFrameData
	call	_RTC_CheckStackVars
	add	rsp, 64					; 00000040H
	pop	rdi
	ret	0
??1_Iterator_base12@std@@QEAA@XZ ENDP			; std::_Iterator_base12::~_Iterator_base12
; Function compile flags: /Odtp /RTCsu
_TEXT	ENDS
;	COMDAT text$x
text$x	SEGMENT
_Lock$ = 36
$T82040 = 56
this$ = 80
?dtor$0@?0???1_Iterator_base12@std@@QEAA@XZ@4HA PROC	; `std::_Iterator_base12::~_Iterator_base12'::`1'::dtor$0
	mov	QWORD PTR [rsp+8], rcx
	mov	QWORD PTR [rsp+16], rdx
	push	rbp
	push	rdi
	sub	rsp, 40					; 00000028H
	mov	rbp, rdx
	lea	rcx, QWORD PTR _Lock$[rbp]
	call	??1_Lockit@std@@QEAA@XZ			; std::_Lockit::~_Lockit
	add	rsp, 40					; 00000028H
	pop	rdi
	pop	rbp
	ret	0
?dtor$0@?0???1_Iterator_base12@std@@QEAA@XZ@4HA ENDP	; `std::_Iterator_base12::~_Iterator_base12'::`1'::dtor$0
text$x	ENDS
PUBLIC	?push_back@?$deque@PEAXV?$allocator@PEAX@std@@@std@@QEAAXAEBQEAX@Z ; std::deque<void * __ptr64,std::allocator<void * __ptr64> >::push_back
EXTRN	__imp_CreateEventA:PROC
pdata	SEGMENT
$pdata$?_push@CondVarImpl@streamsdk@@AEAAPEAXXZ DD imagerel $LN4
	DD	imagerel $LN4+146
	DD	imagerel $unwind$?_push@CondVarImpl@streamsdk@@AEAAPEAXXZ
pdata	ENDS
xdata	SEGMENT
$unwind$?_push@CondVarImpl@streamsdk@@AEAAPEAXXZ DD 021e01H
	DD	07006720aH
xdata	ENDS
CONST	SEGMENT
?_push@CondVarImpl@streamsdk@@AEAAPEAXXZ$rtcName$0 DB 068H ; streamsdk::CondVarImpl::_push
	DB	057H
	DB	061H
	DB	069H
	DB	074H
	DB	045H
	DB	076H
	DB	065H
	DB	06eH
	DB	074H
	DB	00H
	ORG $+13
?_push@CondVarImpl@streamsdk@@AEAAPEAXXZ$rtcVarDesc DD 028H ; streamsdk::CondVarImpl::_push
	DD	08H
	DQ	FLAT:?_push@CondVarImpl@streamsdk@@AEAAPEAXXZ$rtcName$0
	ORG $+48
?_push@CondVarImpl@streamsdk@@AEAAPEAXXZ$rtcFrameData DD 01H ; streamsdk::CondVarImpl::_push
	DD	00H
	DQ	FLAT:?_push@CondVarImpl@streamsdk@@AEAAPEAXXZ$rtcVarDesc
; Function compile flags: /Odtp /RTCsu
CONST	ENDS
_TEXT	SEGMENT
hWaitEvent$ = 40
this$ = 80
?_push@CondVarImpl@streamsdk@@AEAAPEAXXZ PROC		; streamsdk::CondVarImpl::_push
; File c:\development\cellct\tomographic_imaging - current\sdkutil\sdkthread.cpp
; Line 538
$LN4:
	mov	QWORD PTR [rsp+8], rcx
	push	rdi
	sub	rsp, 64					; 00000040H
	mov	rdi, rsp
	mov	ecx, 16
	mov	eax, -858993460				; ccccccccH
	rep stosd
	mov	rcx, QWORD PTR [rsp+80]
; Line 543
	xor	r9d, r9d
	xor	r8d, r8d
	xor	edx, edx
	xor	ecx, ecx
	call	QWORD PTR __imp_CreateEventA
	mov	QWORD PTR hWaitEvent$[rsp], rax
; Line 545
	cmp	QWORD PTR hWaitEvent$[rsp], 0
	jne	SHORT $LN1@push
; Line 547
	xor	eax, eax
	jmp	SHORT $LN2@push
$LN1@push:
; Line 551
	mov	rax, QWORD PTR this$[rsp]
	add	rax, 48					; 00000030H
	mov	rcx, rax
	call	QWORD PTR __imp_EnterCriticalSection
; Line 552
	lea	rdx, QWORD PTR hWaitEvent$[rsp]
	mov	rcx, QWORD PTR this$[rsp]
	call	?push_back@?$deque@PEAXV?$allocator@PEAX@std@@@std@@QEAAXAEBQEAX@Z ; std::deque<void * __ptr64,std::allocator<void * __ptr64> >::push_back
; Line 553
	mov	rax, QWORD PTR this$[rsp]
	add	rax, 48					; 00000030H
	mov	rcx, rax
	call	QWORD PTR __imp_LeaveCriticalSection
; Line 555
	mov	rax, QWORD PTR hWaitEvent$[rsp]
$LN2@push:
; Line 556
	mov	rdi, rax
	mov	rcx, rsp
	lea	rdx, OFFSET FLAT:?_push@CondVarImpl@streamsdk@@AEAAPEAXXZ$rtcFrameData
	call	_RTC_CheckStackVars
	mov	rax, rdi
	add	rsp, 64					; 00000040H
	pop	rdi
	ret	0
?_push@CondVarImpl@streamsdk@@AEAAPEAXXZ ENDP		; streamsdk::CondVarImpl::_push
_TEXT	ENDS
PUBLIC	?pop_front@?$deque@PEAXV?$allocator@PEAX@std@@@std@@QEAAXXZ ; std::deque<void * __ptr64,std::allocator<void * __ptr64> >::pop_front
PUBLIC	?front@?$deque@PEAXV?$allocator@PEAX@std@@@std@@QEAAAEAPEAXXZ ; std::deque<void * __ptr64,std::allocator<void * __ptr64> >::front
PUBLIC	?size@?$deque@PEAXV?$allocator@PEAX@std@@@std@@QEBA_KXZ ; std::deque<void * __ptr64,std::allocator<void * __ptr64> >::size
PUBLIC	?_pop@CondVarImpl@streamsdk@@AEAAPEAXXZ		; streamsdk::CondVarImpl::_pop
pdata	SEGMENT
$pdata$?_pop@CondVarImpl@streamsdk@@AEAAPEAXXZ DD imagerel $LN4
	DD	imagerel $LN4+129
	DD	imagerel $unwind$?_pop@CondVarImpl@streamsdk@@AEAAPEAXXZ
pdata	ENDS
xdata	SEGMENT
$unwind$?_pop@CondVarImpl@streamsdk@@AEAAPEAXXZ DD 021e01H
	DD	07006520aH
; Function compile flags: /Odtp /RTCsu
xdata	ENDS
_TEXT	SEGMENT
hWaitEvent$ = 32
this$ = 64
?_pop@CondVarImpl@streamsdk@@AEAAPEAXXZ PROC		; streamsdk::CondVarImpl::_pop
; Line 564
$LN4:
	mov	QWORD PTR [rsp+8], rcx
	push	rdi
	sub	rsp, 48					; 00000030H
	mov	rdi, rsp
	mov	ecx, 12
	mov	eax, -858993460				; ccccccccH
	rep stosd
	mov	rcx, QWORD PTR [rsp+64]
; Line 566
	mov	rax, QWORD PTR this$[rsp]
	add	rax, 48					; 00000030H
	mov	rcx, rax
	call	QWORD PTR __imp_EnterCriticalSection
; Line 567
	mov	QWORD PTR hWaitEvent$[rsp], 0
; Line 568
	mov	rcx, QWORD PTR this$[rsp]
	call	?size@?$deque@PEAXV?$allocator@PEAX@std@@@std@@QEBA_KXZ ; std::deque<void * __ptr64,std::allocator<void * __ptr64> >::size
	test	rax, rax
	je	SHORT $LN1@pop
; Line 570
	mov	rcx, QWORD PTR this$[rsp]
	call	?front@?$deque@PEAXV?$allocator@PEAX@std@@@std@@QEAAAEAPEAXXZ ; std::deque<void * __ptr64,std::allocator<void * __ptr64> >::front
	mov	rax, QWORD PTR [rax]
	mov	QWORD PTR hWaitEvent$[rsp], rax
; Line 571
	mov	rcx, QWORD PTR this$[rsp]
	call	?pop_front@?$deque@PEAXV?$allocator@PEAX@std@@@std@@QEAAXXZ ; std::deque<void * __ptr64,std::allocator<void * __ptr64> >::pop_front
$LN1@pop:
; Line 573
	mov	rax, QWORD PTR this$[rsp]
	add	rax, 48					; 00000030H
	mov	rcx, rax
	call	QWORD PTR __imp_LeaveCriticalSection
; Line 575
	mov	rax, QWORD PTR hWaitEvent$[rsp]
; Line 576
	add	rsp, 48					; 00000030H
	pop	rdi
	ret	0
?_pop@CondVarImpl@streamsdk@@AEAAPEAXXZ ENDP		; streamsdk::CondVarImpl::_pop
_TEXT	ENDS
pdata	SEGMENT
$pdata$?_lockHeldByCallingThread@CondVarImpl@streamsdk@@AEAAHXZ DD imagerel $LN8
	DD	imagerel $LN8+213
	DD	imagerel $unwind$?_lockHeldByCallingThread@CondVarImpl@streamsdk@@AEAAHXZ
pdata	ENDS
xdata	SEGMENT
$unwind$?_lockHeldByCallingThread@CondVarImpl@streamsdk@@AEAAHXZ DD 021e01H
	DD	07006520aH
; Function compile flags: /Odtp /RTCsu
xdata	ENDS
_TEXT	SEGMENT
bTryLockResult$ = 32
this$ = 64
?_lockHeldByCallingThread@CondVarImpl@streamsdk@@AEAAHXZ PROC ; streamsdk::CondVarImpl::_lockHeldByCallingThread
; Line 583
$LN8:
	mov	QWORD PTR [rsp+8], rcx
	push	rdi
	sub	rsp, 48					; 00000030H
	mov	rdi, rsp
	mov	ecx, 12
	mov	eax, -858993460				; ccccccccH
	rep stosd
	mov	rcx, QWORD PTR [rsp+64]
; Line 584
	mov	rax, QWORD PTR this$[rsp]
	add	rax, 88					; 00000058H
	mov	rcx, rax
	call	QWORD PTR __imp_TryEnterCriticalSection
	mov	DWORD PTR bTryLockResult$[rsp], eax
; Line 587
	cmp	DWORD PTR bTryLockResult$[rsp], 0
	jne	SHORT $LN2@lockHeldBy
; Line 589
	xor	eax, eax
	jmp	$LN3@lockHeldBy
$LN2@lockHeldBy:
; Line 593
	mov	rax, QWORD PTR this$[rsp]
	cmp	DWORD PTR [rax+128], 0
	jne	SHORT $LN1@lockHeldBy
; Line 595
	cmp	DWORD PTR bTryLockResult$[rsp], 0
	jne	SHORT $LN5@lockHeldBy
	mov	r8d, 595				; 00000253H
	lea	rdx, OFFSET FLAT:$SG79770
	lea	rcx, OFFSET FLAT:$SG79771
	call	_wassert
	xor	eax, eax
$LN5@lockHeldBy:
; Line 596
	mov	rax, QWORD PTR this$[rsp]
	add	rax, 88					; 00000058H
	mov	rcx, rax
	call	QWORD PTR __imp_LeaveCriticalSection
; Line 597
	xor	eax, eax
	jmp	SHORT $LN3@lockHeldBy
$LN1@lockHeldBy:
; Line 602
	cmp	DWORD PTR bTryLockResult$[rsp], 0
	je	SHORT $LN6@lockHeldBy
	mov	rax, QWORD PTR this$[rsp]
	cmp	DWORD PTR [rax+128], 0
	jg	SHORT $LN7@lockHeldBy
$LN6@lockHeldBy:
	mov	r8d, 602				; 0000025aH
	lea	rdx, OFFSET FLAT:$SG79773
	lea	rcx, OFFSET FLAT:$SG79774
	call	_wassert
	xor	eax, eax
$LN7@lockHeldBy:
; Line 603
	mov	rax, QWORD PTR this$[rsp]
	add	rax, 88					; 00000058H
	mov	rcx, rax
	call	QWORD PTR __imp_LeaveCriticalSection
; Line 606
	mov	eax, 1
$LN3@lockHeldBy:
; Line 607
	add	rsp, 48					; 00000030H
	pop	rdi
	ret	0
?_lockHeldByCallingThread@CondVarImpl@streamsdk@@AEAAHXZ ENDP ; streamsdk::CondVarImpl::_lockHeldByCallingThread
_TEXT	ENDS
pdata	SEGMENT
$pdata$?beginSynchronized@CondVarImpl@streamsdk@@AEAAXXZ DD imagerel $LN3
	DD	imagerel $LN3+78
	DD	imagerel $unwind$?beginSynchronized@CondVarImpl@streamsdk@@AEAAXXZ
pdata	ENDS
xdata	SEGMENT
$unwind$?beginSynchronized@CondVarImpl@streamsdk@@AEAAXXZ DD 021e01H
	DD	07006320aH
; Function compile flags: /Odtp /RTCsu
xdata	ENDS
_TEXT	SEGMENT
this$ = 48
?beginSynchronized@CondVarImpl@streamsdk@@AEAAXXZ PROC	; streamsdk::CondVarImpl::beginSynchronized
; Line 614
$LN3:
	mov	QWORD PTR [rsp+8], rcx
	push	rdi
	sub	rsp, 32					; 00000020H
	mov	rdi, rsp
	mov	ecx, 8
	mov	eax, -858993460				; ccccccccH
	rep stosd
	mov	rcx, QWORD PTR [rsp+48]
; Line 618
	mov	rax, QWORD PTR this$[rsp]
	add	rax, 88					; 00000058H
	mov	rcx, rax
	call	QWORD PTR __imp_EnterCriticalSection
; Line 621
	mov	rax, QWORD PTR this$[rsp]
	mov	eax, DWORD PTR [rax+128]
	inc	eax
	mov	rcx, QWORD PTR this$[rsp]
	mov	DWORD PTR [rcx+128], eax
; Line 625
	add	rsp, 32					; 00000020H
	pop	rdi
	ret	0
?beginSynchronized@CondVarImpl@streamsdk@@AEAAXXZ ENDP	; streamsdk::CondVarImpl::beginSynchronized
_TEXT	ENDS
pdata	SEGMENT
$pdata$?endSynchronized@CondVarImpl@streamsdk@@AEAAHXZ DD imagerel $LN4
	DD	imagerel $LN4+112
	DD	imagerel $unwind$?endSynchronized@CondVarImpl@streamsdk@@AEAAHXZ
pdata	ENDS
xdata	SEGMENT
$unwind$?endSynchronized@CondVarImpl@streamsdk@@AEAAHXZ DD 021e01H
	DD	07006320aH
; Function compile flags: /Odtp /RTCsu
xdata	ENDS
_TEXT	SEGMENT
this$ = 48
?endSynchronized@CondVarImpl@streamsdk@@AEAAHXZ PROC	; streamsdk::CondVarImpl::endSynchronized
; Line 631
$LN4:
	mov	QWORD PTR [rsp+8], rcx
	push	rdi
	sub	rsp, 32					; 00000020H
	mov	rdi, rsp
	mov	ecx, 8
	mov	eax, -858993460				; ccccccccH
	rep stosd
	mov	rcx, QWORD PTR [rsp+48]
; Line 633
	mov	rcx, QWORD PTR this$[rsp]
	call	?_lockHeldByCallingThread@CondVarImpl@streamsdk@@AEAAHXZ ; streamsdk::CondVarImpl::_lockHeldByCallingThread
	test	eax, eax
	jne	SHORT $LN1@endSynchro
; Line 635
	mov	ecx, 1
	call	QWORD PTR __imp_SetLastError
; Line 636
	xor	eax, eax
	jmp	SHORT $LN2@endSynchro
$LN1@endSynchro:
; Line 639
	mov	rax, QWORD PTR this$[rsp]
	mov	eax, DWORD PTR [rax+128]
	dec	eax
	mov	rcx, QWORD PTR this$[rsp]
	mov	DWORD PTR [rcx+128], eax
; Line 642
	mov	rax, QWORD PTR this$[rsp]
	add	rax, 88					; 00000058H
	mov	rcx, rax
	call	QWORD PTR __imp_LeaveCriticalSection
; Line 647
	mov	eax, 1
$LN2@endSynchro:
; Line 648
	add	rsp, 32					; 00000020H
	pop	rdi
	ret	0
?endSynchronized@CondVarImpl@streamsdk@@AEAAHXZ ENDP	; streamsdk::CondVarImpl::endSynchronized
_TEXT	ENDS
PUBLIC	??0SDKThread@streamsdk@@QEAA@XZ			; streamsdk::SDKThread::SDKThread
pdata	SEGMENT
$pdata$??0SDKThread@streamsdk@@QEAA@XZ DD imagerel $LN3
	DD	imagerel $LN3+38
	DD	imagerel $unwind$??0SDKThread@streamsdk@@QEAA@XZ
pdata	ENDS
xdata	SEGMENT
$unwind$??0SDKThread@streamsdk@@QEAA@XZ DD 010601H
	DD	07006H
; Function compile flags: /Odtp /RTCsu
xdata	ENDS
_TEXT	SEGMENT
this$ = 16
??0SDKThread@streamsdk@@QEAA@XZ PROC			; streamsdk::SDKThread::SDKThread
; Line 658
$LN3:
	mov	QWORD PTR [rsp+8], rcx
	push	rdi
	mov	rax, QWORD PTR this$[rsp]
	mov	QWORD PTR [rax], 0
	mov	rax, QWORD PTR this$[rsp]
	mov	QWORD PTR [rax+8], 0
; Line 659
	mov	rax, QWORD PTR this$[rsp]
	pop	rdi
	ret	0
??0SDKThread@streamsdk@@QEAA@XZ ENDP			; streamsdk::SDKThread::SDKThread
_TEXT	ENDS
PUBLIC	??1SDKThread@streamsdk@@QEAA@XZ			; streamsdk::SDKThread::~SDKThread
pdata	SEGMENT
$pdata$??1SDKThread@streamsdk@@QEAA@XZ DD imagerel $LN4
	DD	imagerel $LN4+73
	DD	imagerel $unwind$??1SDKThread@streamsdk@@QEAA@XZ
pdata	ENDS
xdata	SEGMENT
$unwind$??1SDKThread@streamsdk@@QEAA@XZ DD 021e01H
	DD	07006320aH
; Function compile flags: /Odtp /RTCsu
xdata	ENDS
_TEXT	SEGMENT
this$ = 48
??1SDKThread@streamsdk@@QEAA@XZ PROC			; streamsdk::SDKThread::~SDKThread
; Line 668
$LN4:
	mov	QWORD PTR [rsp+8], rcx
	push	rdi
	sub	rsp, 32					; 00000020H
	mov	rdi, rsp
	mov	ecx, 8
	mov	eax, -858993460				; ccccccccH
	rep stosd
	mov	rcx, QWORD PTR [rsp+48]
; Line 670
	mov	rax, QWORD PTR this$[rsp]
	cmp	QWORD PTR [rax], 0
	je	SHORT $LN1@SDKThread
; Line 672
	mov	rax, QWORD PTR this$[rsp]
	mov	rcx, QWORD PTR [rax]
	call	QWORD PTR __imp_CloseHandle
; Line 673
	mov	rax, QWORD PTR this$[rsp]
	mov	QWORD PTR [rax], 0
$LN1@SDKThread:
; Line 676
	add	rsp, 32					; 00000020H
	pop	rdi
	ret	0
??1SDKThread@streamsdk@@QEAA@XZ ENDP			; streamsdk::SDKThread::~SDKThread
_TEXT	ENDS
PUBLIC	?create@SDKThread@streamsdk@@QEAA_NP6APEAXPEAX@Z0@Z ; streamsdk::SDKThread::create
EXTRN	_beginthreadex:PROC
pdata	SEGMENT
$pdata$?create@SDKThread@streamsdk@@QEAA_NP6APEAXPEAX@Z0@Z DD imagerel $LN4
	DD	imagerel $LN4+175
	DD	imagerel $unwind$?create@SDKThread@streamsdk@@QEAA_NP6APEAXPEAX@Z0@Z
pdata	ENDS
xdata	SEGMENT
$unwind$?create@SDKThread@streamsdk@@QEAA_NP6APEAXPEAX@Z0@Z DD 022801H
	DD	070107214H
; Function compile flags: /Odtp /RTCsu
xdata	ENDS
_TEXT	SEGMENT
args$ = 48
$T82095 = 56
this$ = 80
func$ = 88
arg$ = 96
?create@SDKThread@streamsdk@@QEAA_NP6APEAXPEAX@Z0@Z PROC ; streamsdk::SDKThread::create
; Line 687
$LN4:
	mov	QWORD PTR [rsp+24], r8
	mov	QWORD PTR [rsp+16], rdx
	mov	QWORD PTR [rsp+8], rcx
	push	rdi
	sub	rsp, 64					; 00000040H
	mov	rdi, rsp
	mov	ecx, 16
	mov	eax, -858993460				; ccccccccH
	rep stosd
	mov	rcx, QWORD PTR [rsp+80]
; Line 689
	mov	rax, QWORD PTR this$[rsp]
	mov	rcx, QWORD PTR arg$[rsp]
	mov	QWORD PTR [rax+8], rcx
; Line 695
	mov	ecx, 16
	call	??2@YAPEAX_K@Z				; operator new
	mov	QWORD PTR $T82095[rsp], rax
	mov	rax, QWORD PTR $T82095[rsp]
	mov	QWORD PTR args$[rsp], rax
; Line 696
	mov	rax, QWORD PTR args$[rsp]
	mov	rcx, QWORD PTR func$[rsp]
	mov	QWORD PTR [rax], rcx
; Line 697
	mov	rax, QWORD PTR args$[rsp]
	mov	rcx, QWORD PTR this$[rsp]
	mov	QWORD PTR [rax+8], rcx
; Line 699
	mov	QWORD PTR [rsp+40], 0
	mov	DWORD PTR [rsp+32], 0
	mov	r9, QWORD PTR args$[rsp]
	lea	r8, OFFSET FLAT:?win32ThreadFunc@streamsdk@@YAIPEAX@Z ; streamsdk::win32ThreadFunc
	xor	edx, edx
	xor	ecx, ecx
	call	_beginthreadex
	mov	rcx, QWORD PTR this$[rsp]
	mov	QWORD PTR [rcx], rax
; Line 700
	mov	rax, QWORD PTR this$[rsp]
	cmp	QWORD PTR [rax], 0
	jne	SHORT $LN1@create
; Line 702
	xor	al, al
	jmp	SHORT $LN2@create
$LN1@create:
; Line 715
	mov	al, 1
$LN2@create:
; Line 716
	add	rsp, 64					; 00000040H
	pop	rdi
	ret	0
?create@SDKThread@streamsdk@@QEAA_NP6APEAXPEAX@Z0@Z ENDP ; streamsdk::SDKThread::create
_TEXT	ENDS
PUBLIC	?getID@SDKThread@streamsdk@@QEAAIXZ		; streamsdk::SDKThread::getID
pdata	SEGMENT
$pdata$?getID@SDKThread@streamsdk@@QEAAIXZ DD imagerel $LN3
	DD	imagerel $LN3+15
	DD	imagerel $unwind$?getID@SDKThread@streamsdk@@QEAAIXZ
pdata	ENDS
xdata	SEGMENT
$unwind$?getID@SDKThread@streamsdk@@QEAAIXZ DD 010601H
	DD	07006H
; Function compile flags: /Odtp /RTCsu
xdata	ENDS
_TEXT	SEGMENT
this$ = 16
?getID@SDKThread@streamsdk@@QEAAIXZ PROC		; streamsdk::SDKThread::getID
; Line 726
$LN3:
	mov	QWORD PTR [rsp+8], rcx
	push	rdi
; Line 731
	mov	rax, QWORD PTR this$[rsp]
	mov	eax, DWORD PTR [rax]
; Line 734
	pop	rdi
	ret	0
?getID@SDKThread@streamsdk@@QEAAIXZ ENDP		; streamsdk::SDKThread::getID
_TEXT	ENDS
PUBLIC	?join@SDKThread@streamsdk@@QEAA_NXZ		; streamsdk::SDKThread::join
EXTRN	__imp_WaitForSingleObject:PROC
pdata	SEGMENT
$pdata$?join@SDKThread@streamsdk@@QEAA_NXZ DD imagerel $LN6
	DD	imagerel $LN6+128
	DD	imagerel $unwind$?join@SDKThread@streamsdk@@QEAA_NXZ
pdata	ENDS
xdata	SEGMENT
$unwind$?join@SDKThread@streamsdk@@QEAA_NXZ DD 021e01H
	DD	07006520aH
; Function compile flags: /Odtp /RTCsu
xdata	ENDS
_TEXT	SEGMENT
rc$79807 = 32
this$ = 64
?join@SDKThread@streamsdk@@QEAA_NXZ PROC		; streamsdk::SDKThread::join
; Line 744
$LN6:
	mov	QWORD PTR [rsp+8], rcx
	push	rdi
	sub	rsp, 48					; 00000030H
	mov	rdi, rsp
	mov	ecx, 12
	mov	eax, -858993460				; ccccccccH
	rep stosd
	mov	rcx, QWORD PTR [rsp+64]
; Line 745
	mov	rax, QWORD PTR this$[rsp]
	cmp	QWORD PTR [rax], 0
	je	SHORT $LN3@join
; Line 748
	mov	edx, -1					; ffffffffH
	mov	rax, QWORD PTR this$[rsp]
	mov	rcx, QWORD PTR [rax]
	call	QWORD PTR __imp_WaitForSingleObject
	mov	DWORD PTR rc$79807[rsp], eax
; Line 749
	mov	rax, QWORD PTR this$[rsp]
	mov	rcx, QWORD PTR [rax]
	call	QWORD PTR __imp_CloseHandle
; Line 751
	cmp	DWORD PTR rc$79807[rsp], -1		; ffffffffH
	jne	SHORT $LN2@join
; Line 753
	lea	rcx, OFFSET FLAT:$SG79810
	call	printf
$LN2@join:
; Line 759
	mov	rax, QWORD PTR this$[rsp]
	mov	QWORD PTR [rax], 0
; Line 761
	cmp	DWORD PTR rc$79807[rsp], 0
	je	SHORT $LN1@join
; Line 762
	xor	al, al
	jmp	SHORT $LN4@join
$LN1@join:
$LN3@join:
; Line 765
	mov	al, 1
$LN4@join:
; Line 766
	add	rsp, 48					; 00000030H
	pop	rdi
	ret	0
?join@SDKThread@streamsdk@@QEAA_NXZ ENDP		; streamsdk::SDKThread::join
_TEXT	ENDS
PUBLIC	??0?$_Deque_val@PEAXV?$allocator@PEAX@std@@@std@@QEAA@V?$allocator@PEAX@1@@Z ; std::_Deque_val<void * __ptr64,std::allocator<void * __ptr64> >::_Deque_val<void * __ptr64,std::allocator<void * __ptr64> >
PUBLIC	??0?$allocator@PEAX@std@@QEAA@XZ		; std::allocator<void * __ptr64>::allocator<void * __ptr64>
;	COMDAT pdata
; File c:\program files (x86)\microsoft visual studio 10.0\vc\include\deque
pdata	SEGMENT
$pdata$??0?$deque@PEAXV?$allocator@PEAX@std@@@std@@QEAA@XZ DD imagerel $LN4
	DD	imagerel $LN4+74
	DD	imagerel $unwind$??0?$deque@PEAXV?$allocator@PEAX@std@@@std@@QEAA@XZ
pdata	ENDS
;	COMDAT xdata
xdata	SEGMENT
$unwind$??0?$deque@PEAXV?$allocator@PEAX@std@@@std@@QEAA@XZ DD 021e01H
	DD	07006520aH
; Function compile flags: /Odtp /RTCsu
xdata	ENDS
;	COMDAT ??0?$deque@PEAXV?$allocator@PEAX@std@@@std@@QEAA@XZ
_TEXT	SEGMENT
$T82108 = 32
$T82109 = 40
this$ = 64
??0?$deque@PEAXV?$allocator@PEAX@std@@@std@@QEAA@XZ PROC ; std::deque<void * __ptr64,std::allocator<void * __ptr64> >::deque<void * __ptr64,std::allocator<void * __ptr64> >, COMDAT
; Line 799
$LN4:
	mov	QWORD PTR [rsp+8], rcx
	push	rdi
	sub	rsp, 48					; 00000030H
	mov	rdi, rsp
	mov	ecx, 12
	mov	eax, -858993460				; ccccccccH
	rep stosd
	mov	rcx, QWORD PTR [rsp+64]
	lea	rax, QWORD PTR $T82108[rsp]
	mov	QWORD PTR $T82109[rsp], rax
	mov	rcx, QWORD PTR $T82109[rsp]
	call	??0?$allocator@PEAX@std@@QEAA@XZ	; std::allocator<void * __ptr64>::allocator<void * __ptr64>
	mov	rdx, rax
	mov	rcx, QWORD PTR this$[rsp]
	call	??0?$_Deque_val@PEAXV?$allocator@PEAX@std@@@std@@QEAA@V?$allocator@PEAX@1@@Z ; std::_Deque_val<void * __ptr64,std::allocator<void * __ptr64> >::_Deque_val<void * __ptr64,std::allocator<void * __ptr64> >
; Line 800
	mov	rax, QWORD PTR this$[rsp]
	add	rsp, 48					; 00000030H
	pop	rdi
	ret	0
??0?$deque@PEAXV?$allocator@PEAX@std@@@std@@QEAA@XZ ENDP ; std::deque<void * __ptr64,std::allocator<void * __ptr64> >::deque<void * __ptr64,std::allocator<void * __ptr64> >
_TEXT	ENDS
PUBLIC	??1?$_Deque_val@PEAXV?$allocator@PEAX@std@@@std@@QEAA@XZ ; std::_Deque_val<void * __ptr64,std::allocator<void * __ptr64> >::~_Deque_val<void * __ptr64,std::allocator<void * __ptr64> >
PUBLIC	?_Tidy@?$deque@PEAXV?$allocator@PEAX@std@@@std@@IEAAXXZ ; std::deque<void * __ptr64,std::allocator<void * __ptr64> >::_Tidy
;	COMDAT pdata
pdata	SEGMENT
$pdata$??1?$deque@PEAXV?$allocator@PEAX@std@@@std@@QEAA@XZ DD imagerel $LN4
	DD	imagerel $LN4+66
	DD	imagerel $unwind$??1?$deque@PEAXV?$allocator@PEAX@std@@@std@@QEAA@XZ
pdata	ENDS
;	COMDAT pdata
pdata	SEGMENT
$pdata$?dtor$0@?0???1?$deque@PEAXV?$allocator@PEAX@std@@@std@@QEAA@XZ@4HA DD imagerel ?dtor$0@?0???1?$deque@PEAXV?$allocator@PEAX@std@@@std@@QEAA@XZ@4HA
	DD	imagerel ?dtor$0@?0???1?$deque@PEAXV?$allocator@PEAX@std@@@std@@QEAA@XZ@4HA+35
	DD	imagerel $unwind$?dtor$0@?0???1?$deque@PEAXV?$allocator@PEAX@std@@@std@@QEAA@XZ@4HA
pdata	ENDS
;	COMDAT xdata
xdata	SEGMENT
$ip2state$??1?$deque@PEAXV?$allocator@PEAX@std@@@std@@QEAA@XZ DD imagerel ??1?$deque@PEAXV?$allocator@PEAX@std@@@std@@QEAA@XZ
	DD	0ffffffffH
	DD	imagerel ??1?$deque@PEAXV?$allocator@PEAX@std@@@std@@QEAA@XZ+39
	DD	00H
	DD	imagerel ??1?$deque@PEAXV?$allocator@PEAX@std@@@std@@QEAA@XZ+50
	DD	0ffffffffH
xdata	ENDS
;	COMDAT xdata
xdata	SEGMENT
$unwind$?dtor$0@?0???1?$deque@PEAXV?$allocator@PEAX@std@@@std@@QEAA@XZ@4HA DD 031001H
	DD	0700c4210H
	DD	0500bH
xdata	ENDS
;	COMDAT xdata
xdata	SEGMENT
$unwind$??1?$deque@PEAXV?$allocator@PEAX@std@@@std@@QEAA@XZ DD 022711H
	DD	07006520aH
	DD	imagerel __CxxFrameHandler3
	DD	imagerel $cppxdata$??1?$deque@PEAXV?$allocator@PEAX@std@@@std@@QEAA@XZ
xdata	ENDS
;	COMDAT CONST
CONST	SEGMENT
$cppxdata$??1?$deque@PEAXV?$allocator@PEAX@std@@@std@@QEAA@XZ DD 019930522H
	DD	01H
	DD	imagerel $stateUnwindMap$??1?$deque@PEAXV?$allocator@PEAX@std@@@std@@QEAA@XZ
	DD	00H
	DD	00H
	DD	03H
	DD	imagerel $ip2state$??1?$deque@PEAXV?$allocator@PEAX@std@@@std@@QEAA@XZ
	DD	020H
	DD	00H
	DD	01H
CONST	ENDS
;	COMDAT xdata
xdata	SEGMENT
$stateUnwindMap$??1?$deque@PEAXV?$allocator@PEAX@std@@@std@@QEAA@XZ DD 0ffffffffH
	DD	imagerel ?dtor$0@?0???1?$deque@PEAXV?$allocator@PEAX@std@@@std@@QEAA@XZ@4HA
; Function compile flags: /Odtp /RTCsu
xdata	ENDS
;	COMDAT ??1?$deque@PEAXV?$allocator@PEAX@std@@@std@@QEAA@XZ
_TEXT	SEGMENT
$T82126 = 32
this$ = 64
??1?$deque@PEAXV?$allocator@PEAX@std@@@std@@QEAA@XZ PROC ; std::deque<void * __ptr64,std::allocator<void * __ptr64> >::~deque<void * __ptr64,std::allocator<void * __ptr64> >, COMDAT
; Line 1021
$LN4:
	mov	QWORD PTR [rsp+8], rcx
	push	rdi
	sub	rsp, 48					; 00000030H
	mov	rdi, rsp
	mov	ecx, 12
	mov	eax, -858993460				; ccccccccH
	rep stosd
	mov	rcx, QWORD PTR [rsp+64]
	mov	QWORD PTR $T82126[rsp], -2
; Line 1022
	mov	rcx, QWORD PTR this$[rsp]
	call	?_Tidy@?$deque@PEAXV?$allocator@PEAX@std@@@std@@IEAAXXZ ; std::deque<void * __ptr64,std::allocator<void * __ptr64> >::_Tidy
	npad	1
; Line 1023
	mov	rcx, QWORD PTR this$[rsp]
	call	??1?$_Deque_val@PEAXV?$allocator@PEAX@std@@@std@@QEAA@XZ ; std::_Deque_val<void * __ptr64,std::allocator<void * __ptr64> >::~_Deque_val<void * __ptr64,std::allocator<void * __ptr64> >
	add	rsp, 48					; 00000030H
	pop	rdi
	ret	0
??1?$deque@PEAXV?$allocator@PEAX@std@@@std@@QEAA@XZ ENDP ; std::deque<void * __ptr64,std::allocator<void * __ptr64> >::~deque<void * __ptr64,std::allocator<void * __ptr64> >
; Function compile flags: /Odtp /RTCsu
_TEXT	ENDS
;	COMDAT text$x
text$x	SEGMENT
$T82126 = 32
this$ = 64
?dtor$0@?0???1?$deque@PEAXV?$allocator@PEAX@std@@@std@@QEAA@XZ@4HA PROC ; `std::deque<void * __ptr64,std::allocator<void * __ptr64> >::~deque<void * __ptr64,std::allocator<void * __ptr64> >'::`1'::dtor$0
	mov	QWORD PTR [rsp+8], rcx
	mov	QWORD PTR [rsp+16], rdx
	push	rbp
	push	rdi
	sub	rsp, 40					; 00000028H
	mov	rbp, rdx
	mov	rcx, QWORD PTR this$[rbp]
	call	??1?$_Deque_val@PEAXV?$allocator@PEAX@std@@@std@@QEAA@XZ ; std::_Deque_val<void * __ptr64,std::allocator<void * __ptr64> >::~_Deque_val<void * __ptr64,std::allocator<void * __ptr64> >
	add	rsp, 40					; 00000028H
	pop	rdi
	pop	rbp
	ret	0
?dtor$0@?0???1?$deque@PEAXV?$allocator@PEAX@std@@@std@@QEAA@XZ@4HA ENDP ; `std::deque<void * __ptr64,std::allocator<void * __ptr64> >::~deque<void * __ptr64,std::allocator<void * __ptr64> >'::`1'::dtor$0
text$x	ENDS
PUBLIC	??0?$_Deque_iterator@PEAXV?$allocator@PEAX@std@@@std@@QEAA@_KPEBU_Container_base12@1@@Z ; std::_Deque_iterator<void * __ptr64,std::allocator<void * __ptr64> >::_Deque_iterator<void * __ptr64,std::allocator<void * __ptr64> >
;	COMDAT pdata
pdata	SEGMENT
$pdata$?begin@?$deque@PEAXV?$allocator@PEAX@std@@@std@@QEAA?AV?$_Deque_iterator@PEAXV?$allocator@PEAX@std@@@2@XZ DD imagerel $LN5
	DD	imagerel $LN5+89
	DD	imagerel $unwind$?begin@?$deque@PEAXV?$allocator@PEAX@std@@@std@@QEAA?AV?$_Deque_iterator@PEAXV?$allocator@PEAX@std@@@2@XZ
pdata	ENDS
;	COMDAT xdata
xdata	SEGMENT
$unwind$?begin@?$deque@PEAXV?$allocator@PEAX@std@@@std@@QEAA?AV?$_Deque_iterator@PEAXV?$allocator@PEAX@std@@@2@XZ DD 022301H
	DD	0700b520fH
; Function compile flags: /Odtp /RTCsu
xdata	ENDS
;	COMDAT ?begin@?$deque@PEAXV?$allocator@PEAX@std@@@std@@QEAA?AV?$_Deque_iterator@PEAXV?$allocator@PEAX@std@@@2@XZ
_TEXT	SEGMENT
$T82148 = 32
this$ = 64
__$ReturnUdt$ = 72
?begin@?$deque@PEAXV?$allocator@PEAX@std@@@std@@QEAA?AV?$_Deque_iterator@PEAXV?$allocator@PEAX@std@@@2@XZ PROC ; std::deque<void * __ptr64,std::allocator<void * __ptr64> >::begin, COMDAT
; Line 1050
$LN5:
	mov	QWORD PTR [rsp+16], rdx
	mov	QWORD PTR [rsp+8], rcx
	push	rdi
	sub	rsp, 48					; 00000030H
	mov	rdi, rsp
	mov	ecx, 12
	mov	eax, -858993460				; ccccccccH
	rep stosd
	mov	rcx, QWORD PTR [rsp+64]
	mov	DWORD PTR $T82148[rsp], 0
; Line 1051
	mov	r8, QWORD PTR this$[rsp]
	mov	rax, QWORD PTR this$[rsp]
	mov	rdx, QWORD PTR [rax+24]
	mov	rcx, QWORD PTR __$ReturnUdt$[rsp]
	call	??0?$_Deque_iterator@PEAXV?$allocator@PEAX@std@@@std@@QEAA@_KPEBU_Container_base12@1@@Z ; std::_Deque_iterator<void * __ptr64,std::allocator<void * __ptr64> >::_Deque_iterator<void * __ptr64,std::allocator<void * __ptr64> >
	mov	eax, DWORD PTR $T82148[rsp]
	or	eax, 1
	mov	DWORD PTR $T82148[rsp], eax
	mov	rax, QWORD PTR __$ReturnUdt$[rsp]
; Line 1052
	add	rsp, 48					; 00000030H
	pop	rdi
	ret	0
?begin@?$deque@PEAXV?$allocator@PEAX@std@@@std@@QEAA?AV?$_Deque_iterator@PEAXV?$allocator@PEAX@std@@@2@XZ ENDP ; std::deque<void * __ptr64,std::allocator<void * __ptr64> >::begin
_TEXT	ENDS
;	COMDAT pdata
pdata	SEGMENT
$pdata$?end@?$deque@PEAXV?$allocator@PEAX@std@@@std@@QEAA?AV?$_Deque_iterator@PEAXV?$allocator@PEAX@std@@@2@XZ DD imagerel $LN5
	DD	imagerel $LN5+101
	DD	imagerel $unwind$?end@?$deque@PEAXV?$allocator@PEAX@std@@@std@@QEAA?AV?$_Deque_iterator@PEAXV?$allocator@PEAX@std@@@2@XZ
pdata	ENDS
;	COMDAT xdata
xdata	SEGMENT
$unwind$?end@?$deque@PEAXV?$allocator@PEAX@std@@@std@@QEAA?AV?$_Deque_iterator@PEAXV?$allocator@PEAX@std@@@2@XZ DD 022301H
	DD	0700b520fH
; Function compile flags: /Odtp /RTCsu
xdata	ENDS
;	COMDAT ?end@?$deque@PEAXV?$allocator@PEAX@std@@@std@@QEAA?AV?$_Deque_iterator@PEAXV?$allocator@PEAX@std@@@2@XZ
_TEXT	SEGMENT
$T82161 = 32
this$ = 64
__$ReturnUdt$ = 72
?end@?$deque@PEAXV?$allocator@PEAX@std@@@std@@QEAA?AV?$_Deque_iterator@PEAXV?$allocator@PEAX@std@@@2@XZ PROC ; std::deque<void * __ptr64,std::allocator<void * __ptr64> >::end, COMDAT
; Line 1060
$LN5:
	mov	QWORD PTR [rsp+16], rdx
	mov	QWORD PTR [rsp+8], rcx
	push	rdi
	sub	rsp, 48					; 00000030H
	mov	rdi, rsp
	mov	ecx, 12
	mov	eax, -858993460				; ccccccccH
	rep stosd
	mov	rcx, QWORD PTR [rsp+64]
	mov	DWORD PTR $T82161[rsp], 0
; Line 1061
	mov	rax, QWORD PTR this$[rsp]
	mov	rax, QWORD PTR [rax+24]
	mov	rcx, QWORD PTR this$[rsp]
	add	rax, QWORD PTR [rcx+32]
	mov	r8, QWORD PTR this$[rsp]
	mov	rdx, rax
	mov	rcx, QWORD PTR __$ReturnUdt$[rsp]
	call	??0?$_Deque_iterator@PEAXV?$allocator@PEAX@std@@@std@@QEAA@_KPEBU_Container_base12@1@@Z ; std::_Deque_iterator<void * __ptr64,std::allocator<void * __ptr64> >::_Deque_iterator<void * __ptr64,std::allocator<void * __ptr64> >
	mov	eax, DWORD PTR $T82161[rsp]
	or	eax, 1
	mov	DWORD PTR $T82161[rsp], eax
	mov	rax, QWORD PTR __$ReturnUdt$[rsp]
; Line 1062
	add	rsp, 48					; 00000030H
	pop	rdi
	ret	0
?end@?$deque@PEAXV?$allocator@PEAX@std@@@std@@QEAA?AV?$_Deque_iterator@PEAXV?$allocator@PEAX@std@@@2@XZ ENDP ; std::deque<void * __ptr64,std::allocator<void * __ptr64> >::end
_TEXT	ENDS
;	COMDAT pdata
pdata	SEGMENT
$pdata$?size@?$deque@PEAXV?$allocator@PEAX@std@@@std@@QEBA_KXZ DD imagerel $LN3
	DD	imagerel $LN3+17
	DD	imagerel $unwind$?size@?$deque@PEAXV?$allocator@PEAX@std@@@std@@QEBA_KXZ
pdata	ENDS
;	COMDAT xdata
xdata	SEGMENT
$unwind$?size@?$deque@PEAXV?$allocator@PEAX@std@@@std@@QEBA_KXZ DD 010601H
	DD	07006H
; Function compile flags: /Odtp /RTCsu
xdata	ENDS
;	COMDAT ?size@?$deque@PEAXV?$allocator@PEAX@std@@@std@@QEBA_KXZ
_TEXT	SEGMENT
this$ = 16
?size@?$deque@PEAXV?$allocator@PEAX@std@@@std@@QEBA_KXZ PROC ; std::deque<void * __ptr64,std::allocator<void * __ptr64> >::size, COMDAT
; Line 1149
$LN3:
	mov	QWORD PTR [rsp+8], rcx
	push	rdi
; Line 1150
	mov	rax, QWORD PTR this$[rsp]
	mov	rax, QWORD PTR [rax+32]
; Line 1151
	pop	rdi
	ret	0
?size@?$deque@PEAXV?$allocator@PEAX@std@@@std@@QEBA_KXZ ENDP ; std::deque<void * __ptr64,std::allocator<void * __ptr64> >::size
_TEXT	ENDS
;	COMDAT pdata
pdata	SEGMENT
$pdata$?empty@?$deque@PEAXV?$allocator@PEAX@std@@@std@@QEBA_NXZ DD imagerel $LN5
	DD	imagerel $LN5+68
	DD	imagerel $unwind$?empty@?$deque@PEAXV?$allocator@PEAX@std@@@std@@QEBA_NXZ
pdata	ENDS
;	COMDAT xdata
xdata	SEGMENT
$unwind$?empty@?$deque@PEAXV?$allocator@PEAX@std@@@std@@QEBA_NXZ DD 021e01H
	DD	07006120aH
; Function compile flags: /Odtp /RTCsu
xdata	ENDS
;	COMDAT ?empty@?$deque@PEAXV?$allocator@PEAX@std@@@std@@QEBA_NXZ
_TEXT	SEGMENT
tv70 = 0
this$ = 32
?empty@?$deque@PEAXV?$allocator@PEAX@std@@@std@@QEBA_NXZ PROC ; std::deque<void * __ptr64,std::allocator<void * __ptr64> >::empty, COMDAT
; Line 1159
$LN5:
	mov	QWORD PTR [rsp+8], rcx
	push	rdi
	sub	rsp, 16
	mov	rdi, rsp
	mov	ecx, 4
	mov	eax, -858993460				; ccccccccH
	rep stosd
	mov	rcx, QWORD PTR [rsp+32]
; Line 1160
	mov	rax, QWORD PTR this$[rsp]
	cmp	QWORD PTR [rax+32], 0
	jne	SHORT $LN3@empty
	mov	DWORD PTR tv70[rsp], 1
	jmp	SHORT $LN4@empty
$LN3@empty:
	mov	DWORD PTR tv70[rsp], 0
$LN4@empty:
	movzx	eax, BYTE PTR tv70[rsp]
; Line 1161
	add	rsp, 16
	pop	rdi
	ret	0
?empty@?$deque@PEAXV?$allocator@PEAX@std@@@std@@QEBA_NXZ ENDP ; std::deque<void * __ptr64,std::allocator<void * __ptr64> >::empty
_TEXT	ENDS
PUBLIC	??D?$_Deque_iterator@PEAXV?$allocator@PEAX@std@@@std@@QEBAAEAPEAXXZ ; std::_Deque_iterator<void * __ptr64,std::allocator<void * __ptr64> >::operator*
;	COMDAT pdata
pdata	SEGMENT
$pdata$?front@?$deque@PEAXV?$allocator@PEAX@std@@@std@@QEAAAEAPEAXXZ DD imagerel $LN4
	DD	imagerel $LN4+105
	DD	imagerel $unwind$?front@?$deque@PEAXV?$allocator@PEAX@std@@@std@@QEAAAEAPEAXXZ
pdata	ENDS
;	COMDAT pdata
pdata	SEGMENT
$pdata$?dtor$0@?0??front@?$deque@PEAXV?$allocator@PEAX@std@@@std@@QEAAAEAPEAXXZ@4HA DD imagerel ?dtor$0@?0??front@?$deque@PEAXV?$allocator@PEAX@std@@@std@@QEAAAEAPEAXXZ@4HA
	DD	imagerel ?dtor$0@?0??front@?$deque@PEAXV?$allocator@PEAX@std@@@std@@QEAAAEAPEAXXZ@4HA+35
	DD	imagerel $unwind$?dtor$0@?0??front@?$deque@PEAXV?$allocator@PEAX@std@@@std@@QEAAAEAPEAXXZ@4HA
pdata	ENDS
;	COMDAT xdata
xdata	SEGMENT
$ip2state$?front@?$deque@PEAXV?$allocator@PEAX@std@@@std@@QEAAAEAPEAXXZ DD imagerel ?front@?$deque@PEAXV?$allocator@PEAX@std@@@std@@QEAAAEAPEAXXZ
	DD	0ffffffffH
	DD	imagerel ?front@?$deque@PEAXV?$allocator@PEAX@std@@@std@@QEAAAEAPEAXXZ+69
	DD	00H
	DD	imagerel ?front@?$deque@PEAXV?$allocator@PEAX@std@@@std@@QEAAAEAPEAXXZ+84
	DD	0ffffffffH
xdata	ENDS
;	COMDAT xdata
xdata	SEGMENT
$unwind$?dtor$0@?0??front@?$deque@PEAXV?$allocator@PEAX@std@@@std@@QEAAAEAPEAXXZ@4HA DD 031001H
	DD	0700c4210H
	DD	0500bH
xdata	ENDS
;	COMDAT xdata
xdata	SEGMENT
$unwind$?front@?$deque@PEAXV?$allocator@PEAX@std@@@std@@QEAAAEAPEAXXZ DD 022711H
	DD	07006b20aH
	DD	imagerel __CxxFrameHandler3
	DD	imagerel $cppxdata$?front@?$deque@PEAXV?$allocator@PEAX@std@@@std@@QEAAAEAPEAXXZ
xdata	ENDS
;	COMDAT CONST
CONST	SEGMENT
$cppxdata$?front@?$deque@PEAXV?$allocator@PEAX@std@@@std@@QEAAAEAPEAXXZ DD 019930522H
	DD	01H
	DD	imagerel $stateUnwindMap$?front@?$deque@PEAXV?$allocator@PEAX@std@@@std@@QEAAAEAPEAXXZ
	DD	00H
	DD	00H
	DD	03H
	DD	imagerel $ip2state$?front@?$deque@PEAXV?$allocator@PEAX@std@@@std@@QEAAAEAPEAXXZ
	DD	040H
	DD	00H
	DD	01H
CONST	ENDS
;	COMDAT xdata
xdata	SEGMENT
$stateUnwindMap$?front@?$deque@PEAXV?$allocator@PEAX@std@@@std@@QEAAAEAPEAXXZ DD 0ffffffffH
	DD	imagerel ?dtor$0@?0??front@?$deque@PEAXV?$allocator@PEAX@std@@@std@@QEAAAEAPEAXXZ@4HA
; Function compile flags: /Odtp /RTCsu
xdata	ENDS
;	COMDAT ?front@?$deque@PEAXV?$allocator@PEAX@std@@@std@@QEAAAEAPEAXXZ
_TEXT	SEGMENT
$T82186 = 32
$T82187 = 40
$T82193 = 64
tv73 = 72
tv72 = 80
this$ = 112
?front@?$deque@PEAXV?$allocator@PEAX@std@@@std@@QEAAAEAPEAXXZ PROC ; std::deque<void * __ptr64,std::allocator<void * __ptr64> >::front, COMDAT
; Line 1203
$LN4:
	mov	QWORD PTR [rsp+8], rcx
	push	rdi
	sub	rsp, 96					; 00000060H
	mov	rdi, rsp
	mov	ecx, 24
	mov	eax, -858993460				; ccccccccH
	rep stosd
	mov	rcx, QWORD PTR [rsp+112]
	mov	QWORD PTR $T82193[rsp], -2
; Line 1204
	lea	rdx, QWORD PTR $T82187[rsp]
	mov	rcx, QWORD PTR this$[rsp]
	call	?begin@?$deque@PEAXV?$allocator@PEAX@std@@@std@@QEAA?AV?$_Deque_iterator@PEAXV?$allocator@PEAX@std@@@2@XZ ; std::deque<void * __ptr64,std::allocator<void * __ptr64> >::begin
	mov	QWORD PTR tv73[rsp], rax
	mov	rax, QWORD PTR tv73[rsp]
	mov	QWORD PTR tv72[rsp], rax
	mov	rcx, QWORD PTR tv72[rsp]
	call	??D?$_Deque_iterator@PEAXV?$allocator@PEAX@std@@@std@@QEBAAEAPEAXXZ ; std::_Deque_iterator<void * __ptr64,std::allocator<void * __ptr64> >::operator*
	mov	QWORD PTR $T82186[rsp], rax
	lea	rcx, QWORD PTR $T82187[rsp]
	call	??1?$_Deque_iterator@PEAXV?$allocator@PEAX@std@@@std@@QEAA@XZ
	mov	rax, QWORD PTR $T82186[rsp]
; Line 1205
	add	rsp, 96					; 00000060H
	pop	rdi
	ret	0
?front@?$deque@PEAXV?$allocator@PEAX@std@@@std@@QEAAAEAPEAXXZ ENDP ; std::deque<void * __ptr64,std::allocator<void * __ptr64> >::front
; Function compile flags: /Odtp /RTCsu
_TEXT	ENDS
;	COMDAT text$x
text$x	SEGMENT
$T82186 = 32
$T82187 = 40
$T82193 = 64
tv73 = 72
tv72 = 80
this$ = 112
?dtor$0@?0??front@?$deque@PEAXV?$allocator@PEAX@std@@@std@@QEAAAEAPEAXXZ@4HA PROC ; `std::deque<void * __ptr64,std::allocator<void * __ptr64> >::front'::`1'::dtor$0
	mov	QWORD PTR [rsp+8], rcx
	mov	QWORD PTR [rsp+16], rdx
	push	rbp
	push	rdi
	sub	rsp, 40					; 00000028H
	mov	rbp, rdx
	lea	rcx, QWORD PTR $T82187[rbp]
	call	??1?$_Deque_iterator@PEAXV?$allocator@PEAX@std@@@std@@QEAA@XZ
	add	rsp, 40					; 00000028H
	pop	rdi
	pop	rbp
	ret	0
?dtor$0@?0??front@?$deque@PEAXV?$allocator@PEAX@std@@@std@@QEAAAEAPEAXXZ@4HA ENDP ; `std::deque<void * __ptr64,std::allocator<void * __ptr64> >::front'::`1'::dtor$0
text$x	ENDS
PUBLIC	??$_Dest_val@V?$allocator@PEAX@std@@PEAX@std@@YAXAEAV?$allocator@PEAX@0@PEAPEAX@Z ; std::_Dest_val<std::allocator<void * __ptr64>,void * __ptr64>
PUBLIC	?_Orphan_off@?$deque@PEAXV?$allocator@PEAX@std@@@std@@IEBAX_K@Z ; std::deque<void * __ptr64,std::allocator<void * __ptr64> >::_Orphan_off
PUBLIC	??_C@_1CO@FNIDKHMC@?$AAd?$AAe?$AAq?$AAu?$AAe?$AA?5?$AAe?$AAm?$AAp?$AAt?$AAy?$AA?5?$AAb?$AAe?$AAf?$AAo?$AAr?$AAe?$AA?5?$AAp?$AAo?$AAp?$AA?$AA@ ; `string'
PUBLIC	??_C@_1IK@NBJCLFHG@?$AAc?$AA?3?$AA?2?$AAP?$AAr?$AAo?$AAg?$AAr?$AAa?$AAm?$AA?5?$AAF?$AAi?$AAl?$AAe?$AAs?$AA?5?$AA?$CI?$AAx?$AA8?$AA6?$AA?$CJ?$AA?2?$AAM?$AAi?$AAc?$AAr?$AAo?$AAs?$AAo?$AAf?$AAt@ ; `string'
;	COMDAT pdata
pdata	SEGMENT
$pdata$?pop_front@?$deque@PEAXV?$allocator@PEAX@std@@@std@@QEAAXXZ DD imagerel $LN7
	DD	imagerel $LN7+312
	DD	imagerel $unwind$?pop_front@?$deque@PEAXV?$allocator@PEAX@std@@@std@@QEAAXXZ
pdata	ENDS
;	COMDAT xdata
xdata	SEGMENT
$unwind$?pop_front@?$deque@PEAXV?$allocator@PEAX@std@@@std@@QEAAXXZ DD 021e01H
	DD	07006720aH
xdata	ENDS
;	COMDAT ??_C@_1CO@FNIDKHMC@?$AAd?$AAe?$AAq?$AAu?$AAe?$AA?5?$AAe?$AAm?$AAp?$AAt?$AAy?$AA?5?$AAb?$AAe?$AAf?$AAo?$AAr?$AAe?$AA?5?$AAp?$AAo?$AAp?$AA?$AA@
CONST	SEGMENT
??_C@_1CO@FNIDKHMC@?$AAd?$AAe?$AAq?$AAu?$AAe?$AA?5?$AAe?$AAm?$AAp?$AAt?$AAy?$AA?5?$AAb?$AAe?$AAf?$AAo?$AAr?$AAe?$AA?5?$AAp?$AAo?$AAp?$AA?$AA@ DB 'd'
	DB	00H, 'e', 00H, 'q', 00H, 'u', 00H, 'e', 00H, ' ', 00H, 'e', 00H
	DB	'm', 00H, 'p', 00H, 't', 00H, 'y', 00H, ' ', 00H, 'b', 00H, 'e'
	DB	00H, 'f', 00H, 'o', 00H, 'r', 00H, 'e', 00H, ' ', 00H, 'p', 00H
	DB	'o', 00H, 'p', 00H, 00H, 00H			; `string'
CONST	ENDS
;	COMDAT ??_C@_1IK@NBJCLFHG@?$AAc?$AA?3?$AA?2?$AAP?$AAr?$AAo?$AAg?$AAr?$AAa?$AAm?$AA?5?$AAF?$AAi?$AAl?$AAe?$AAs?$AA?5?$AA?$CI?$AAx?$AA8?$AA6?$AA?$CJ?$AA?2?$AAM?$AAi?$AAc?$AAr?$AAo?$AAs?$AAo?$AAf?$AAt@
CONST	SEGMENT
??_C@_1IK@NBJCLFHG@?$AAc?$AA?3?$AA?2?$AAP?$AAr?$AAo?$AAg?$AAr?$AAa?$AAm?$AA?5?$AAF?$AAi?$AAl?$AAe?$AAs?$AA?5?$AA?$CI?$AAx?$AA8?$AA6?$AA?$CJ?$AA?2?$AAM?$AAi?$AAc?$AAr?$AAo?$AAs?$AAo?$AAf?$AAt@ DB 'c'
	DB	00H, ':', 00H, '\', 00H, 'P', 00H, 'r', 00H, 'o', 00H, 'g', 00H
	DB	'r', 00H, 'a', 00H, 'm', 00H, ' ', 00H, 'F', 00H, 'i', 00H, 'l'
	DB	00H, 'e', 00H, 's', 00H, ' ', 00H, '(', 00H, 'x', 00H, '8', 00H
	DB	'6', 00H, ')', 00H, '\', 00H, 'M', 00H, 'i', 00H, 'c', 00H, 'r'
	DB	00H, 'o', 00H, 's', 00H, 'o', 00H, 'f', 00H, 't', 00H, ' ', 00H
	DB	'V', 00H, 'i', 00H, 's', 00H, 'u', 00H, 'a', 00H, 'l', 00H, ' '
	DB	00H, 'S', 00H, 't', 00H, 'u', 00H, 'd', 00H, 'i', 00H, 'o', 00H
	DB	' ', 00H, '1', 00H, '0', 00H, '.', 00H, '0', 00H, '\', 00H, 'V'
	DB	00H, 'C', 00H, '\', 00H, 'i', 00H, 'n', 00H, 'c', 00H, 'l', 00H
	DB	'u', 00H, 'd', 00H, 'e', 00H, '\', 00H, 'd', 00H, 'e', 00H, 'q'
	DB	00H, 'u', 00H, 'e', 00H, 00H, 00H		; `string'
; Function compile flags: /Odtp /RTCsu
CONST	ENDS
;	COMDAT ?pop_front@?$deque@PEAXV?$allocator@PEAX@std@@@std@@QEAAXXZ
_TEXT	SEGMENT
_Block$79848 = 32
tv172 = 40
tv150 = 48
tv163 = 56
this$ = 80
?pop_front@?$deque@PEAXV?$allocator@PEAX@std@@@std@@QEAAXXZ PROC ; std::deque<void * __ptr64,std::allocator<void * __ptr64> >::pop_front, COMDAT
; Line 1232
$LN7:
	mov	QWORD PTR [rsp+8], rcx
	push	rdi
	sub	rsp, 64					; 00000040H
	mov	rdi, rsp
	mov	ecx, 16
	mov	eax, -858993460				; ccccccccH
	rep stosd
	mov	rcx, QWORD PTR [rsp+80]
; Line 1234
	mov	rcx, QWORD PTR this$[rsp]
	call	?empty@?$deque@PEAXV?$allocator@PEAX@std@@@std@@QEBA_NXZ ; std::deque<void * __ptr64,std::allocator<void * __ptr64> >::empty
	movzx	eax, al
	test	eax, eax
	je	SHORT $LN4@pop_front
; Line 1235
	mov	r8d, 1235				; 000004d3H
	lea	rdx, OFFSET FLAT:??_C@_1IK@NBJCLFHG@?$AAc?$AA?3?$AA?2?$AAP?$AAr?$AAo?$AAg?$AAr?$AAa?$AAm?$AA?5?$AAF?$AAi?$AAl?$AAe?$AAs?$AA?5?$AA?$CI?$AAx?$AA8?$AA6?$AA?$CJ?$AA?2?$AAM?$AAi?$AAc?$AAr?$AAo?$AAs?$AAo?$AAf?$AAt@
	lea	rcx, OFFSET FLAT:??_C@_1CO@FNIDKHMC@?$AAd?$AAe?$AAq?$AAu?$AAe?$AA?5?$AAe?$AAm?$AAp?$AAt?$AAy?$AA?5?$AAb?$AAe?$AAf?$AAo?$AAr?$AAe?$AA?5?$AAp?$AAo?$AAp?$AA?$AA@
	call	?_Debug_message@std@@YAXPEB_W0I@Z	; std::_Debug_message
; Line 1236
	jmp	$LN3@pop_front
$LN4@pop_front:
; Line 1238
	mov	rax, QWORD PTR this$[rsp]
	mov	rdx, QWORD PTR [rax+24]
	mov	rcx, QWORD PTR this$[rsp]
	call	?_Orphan_off@?$deque@PEAXV?$allocator@PEAX@std@@@std@@IEBAX_K@Z ; std::deque<void * __ptr64,std::allocator<void * __ptr64> >::_Orphan_off
; Line 1239
	xor	edx, edx
	mov	rax, QWORD PTR this$[rsp]
	mov	rax, QWORD PTR [rax+24]
	mov	ecx, 2
	div	rcx
	mov	QWORD PTR _Block$79848[rsp], rax
; Line 1241
	mov	rax, QWORD PTR this$[rsp]
	mov	rax, QWORD PTR [rax+8]
	mov	QWORD PTR tv172[rsp], rax
	xor	edx, edx
	mov	rcx, QWORD PTR this$[rsp]
	mov	rax, QWORD PTR [rcx+24]
	mov	ecx, 2
	div	rcx
	mov	rax, rdx
	mov	rcx, QWORD PTR _Block$79848[rsp]
	mov	rdx, QWORD PTR tv172[rsp]
	mov	rcx, QWORD PTR [rdx+rcx*8]
	lea	rax, QWORD PTR [rcx+rax*8]
	mov	rcx, QWORD PTR this$[rsp]
	add	rcx, 40					; 00000028H
	mov	rdx, rax
	call	??$_Dest_val@V?$allocator@PEAX@std@@PEAX@std@@YAXAEAV?$allocator@PEAX@0@PEAPEAX@Z ; std::_Dest_val<std::allocator<void * __ptr64>,void * __ptr64>
; Line 1242
	mov	rax, QWORD PTR this$[rsp]
	mov	rax, QWORD PTR [rax+24]
	inc	rax
	mov	QWORD PTR tv150[rsp], rax
	mov	rax, QWORD PTR this$[rsp]
	mov	rcx, QWORD PTR tv150[rsp]
	mov	QWORD PTR [rax+24], rcx
	mov	rax, QWORD PTR this$[rsp]
	mov	rax, QWORD PTR [rax+16]
	shl	rax, 1
	cmp	rax, QWORD PTR tv150[rsp]
	ja	SHORT $LN2@pop_front
; Line 1243
	mov	rax, QWORD PTR this$[rsp]
	mov	QWORD PTR [rax+24], 0
$LN2@pop_front:
; Line 1244
	mov	rax, QWORD PTR this$[rsp]
	mov	rax, QWORD PTR [rax+32]
	dec	rax
	mov	QWORD PTR tv163[rsp], rax
	mov	rax, QWORD PTR this$[rsp]
	mov	rcx, QWORD PTR tv163[rsp]
	mov	QWORD PTR [rax+32], rcx
	cmp	QWORD PTR tv163[rsp], 0
	jne	SHORT $LN1@pop_front
; Line 1245
	mov	rax, QWORD PTR this$[rsp]
	mov	QWORD PTR [rax+24], 0
$LN1@pop_front:
$LN3@pop_front:
; Line 1260
	add	rsp, 64					; 00000040H
	pop	rdi
	ret	0
?pop_front@?$deque@PEAXV?$allocator@PEAX@std@@@std@@QEAAXXZ ENDP ; std::deque<void * __ptr64,std::allocator<void * __ptr64> >::pop_front
_TEXT	ENDS
PUBLIC	??$_Cons_val@V?$allocator@PEAX@std@@PEAXAEBQEAX@std@@YAXAEAV?$allocator@PEAX@0@PEAPEAXAEBQEAX@Z ; std::_Cons_val<std::allocator<void * __ptr64>,void * __ptr64,void * __ptr64 const & __ptr64>
PUBLIC	?allocate@?$allocator@PEAX@std@@QEAAPEAPEAX_K@Z	; std::allocator<void * __ptr64>::allocate
PUBLIC	?_Growmap@?$deque@PEAXV?$allocator@PEAX@std@@@std@@IEAAX_K@Z ; std::deque<void * __ptr64,std::allocator<void * __ptr64> >::_Growmap
PUBLIC	?_Orphan_all@_Container_base12@std@@QEAAXXZ	; std::_Container_base12::_Orphan_all
;	COMDAT pdata
pdata	SEGMENT
$pdata$?push_back@?$deque@PEAXV?$allocator@PEAX@std@@@std@@QEAAXAEBQEAX@Z DD imagerel $LN6
	DD	imagerel $LN6+374
	DD	imagerel $unwind$?push_back@?$deque@PEAXV?$allocator@PEAX@std@@@std@@QEAAXAEBQEAX@Z
pdata	ENDS
;	COMDAT xdata
xdata	SEGMENT
$unwind$?push_back@?$deque@PEAXV?$allocator@PEAX@std@@@std@@QEAAXAEBQEAX@Z DD 022301H
	DD	0700b720fH
; Function compile flags: /Odtp /RTCsu
xdata	ENDS
;	COMDAT ?push_back@?$deque@PEAXV?$allocator@PEAX@std@@@std@@QEAAXAEBQEAX@Z
_TEXT	SEGMENT
_Newoff$ = 32
_Block$ = 40
tv203 = 48
this$ = 80
_Val$ = 88
?push_back@?$deque@PEAXV?$allocator@PEAX@std@@@std@@QEAAXAEBQEAX@Z PROC ; std::deque<void * __ptr64,std::allocator<void * __ptr64> >::push_back, COMDAT
; Line 1263
$LN6:
	mov	QWORD PTR [rsp+16], rdx
	mov	QWORD PTR [rsp+8], rcx
	push	rdi
	sub	rsp, 64					; 00000040H
	mov	rdi, rsp
	mov	ecx, 16
	mov	eax, -858993460				; ccccccccH
	rep stosd
	mov	rcx, QWORD PTR [rsp+80]
; Line 1264
	mov	rcx, QWORD PTR this$[rsp]
	call	?_Orphan_all@_Container_base12@std@@QEAAXXZ ; std::_Container_base12::_Orphan_all
; Line 1265
	mov	rax, QWORD PTR this$[rsp]
	mov	rax, QWORD PTR [rax+24]
	mov	rcx, QWORD PTR this$[rsp]
	add	rax, QWORD PTR [rcx+32]
	xor	edx, edx
	mov	ecx, 2
	div	rcx
	mov	rax, rdx
	test	rax, rax
	jne	SHORT $LN3@push_back
	mov	rax, QWORD PTR this$[rsp]
	mov	rax, QWORD PTR [rax+32]
	add	rax, 2
	xor	edx, edx
	mov	ecx, 2
	div	rcx
	mov	rcx, QWORD PTR this$[rsp]
	cmp	QWORD PTR [rcx+16], rax
	ja	SHORT $LN3@push_back
	mov	edx, 1
	mov	rcx, QWORD PTR this$[rsp]
	call	?_Growmap@?$deque@PEAXV?$allocator@PEAX@std@@@std@@IEAAX_K@Z ; std::deque<void * __ptr64,std::allocator<void * __ptr64> >::_Growmap
$LN3@push_back:
	mov	rax, QWORD PTR this$[rsp]
	mov	rax, QWORD PTR [rax+24]
	mov	rcx, QWORD PTR this$[rsp]
	add	rax, QWORD PTR [rcx+32]
	mov	QWORD PTR _Newoff$[rsp], rax
	xor	edx, edx
	mov	rax, QWORD PTR _Newoff$[rsp]
	mov	ecx, 2
	div	rcx
	mov	QWORD PTR _Block$[rsp], rax
	mov	rax, QWORD PTR this$[rsp]
	mov	rcx, QWORD PTR _Block$[rsp]
	cmp	QWORD PTR [rax+16], rcx
	ja	SHORT $LN2@push_back
	mov	rax, QWORD PTR this$[rsp]
	mov	rax, QWORD PTR [rax+16]
	mov	rcx, QWORD PTR _Block$[rsp]
	sub	rcx, rax
	mov	rax, rcx
	mov	QWORD PTR _Block$[rsp], rax
$LN2@push_back:
	mov	rax, QWORD PTR this$[rsp]
	mov	rax, QWORD PTR [rax+8]
	mov	rcx, QWORD PTR _Block$[rsp]
	cmp	QWORD PTR [rax+rcx*8], 0
	jne	SHORT $LN1@push_back
	mov	rax, QWORD PTR this$[rsp]
	add	rax, 40					; 00000028H
	mov	edx, 2
	mov	rcx, rax
	call	?allocate@?$allocator@PEAX@std@@QEAAPEAPEAX_K@Z ; std::allocator<void * __ptr64>::allocate
	mov	rcx, QWORD PTR this$[rsp]
	mov	rcx, QWORD PTR [rcx+8]
	mov	rdx, QWORD PTR _Block$[rsp]
	mov	QWORD PTR [rcx+rdx*8], rax
$LN1@push_back:
; Line 1267
	mov	rax, QWORD PTR this$[rsp]
	mov	rax, QWORD PTR [rax+8]
	mov	QWORD PTR tv203[rsp], rax
	xor	edx, edx
	mov	rax, QWORD PTR _Newoff$[rsp]
	mov	ecx, 2
	div	rcx
	mov	rax, rdx
	mov	rcx, QWORD PTR _Block$[rsp]
	mov	rdx, QWORD PTR tv203[rsp]
	mov	rcx, QWORD PTR [rdx+rcx*8]
	lea	rax, QWORD PTR [rcx+rax*8]
	mov	rcx, QWORD PTR this$[rsp]
	add	rcx, 40					; 00000028H
	mov	r8, QWORD PTR _Val$[rsp]
	mov	rdx, rax
	call	??$_Cons_val@V?$allocator@PEAX@std@@PEAXAEBQEAX@std@@YAXAEAV?$allocator@PEAX@0@PEAPEAXAEBQEAX@Z ; std::_Cons_val<std::allocator<void * __ptr64>,void * __ptr64,void * __ptr64 const & __ptr64>
; Line 1268
	mov	rax, QWORD PTR this$[rsp]
	mov	rax, QWORD PTR [rax+32]
	inc	rax
	mov	rcx, QWORD PTR this$[rsp]
	mov	QWORD PTR [rcx+32], rax
; Line 1269
	add	rsp, 64					; 00000040H
	pop	rdi
	ret	0
?push_back@?$deque@PEAXV?$allocator@PEAX@std@@@std@@QEAAXAEBQEAX@Z ENDP ; std::deque<void * __ptr64,std::allocator<void * __ptr64> >::push_back
_TEXT	ENDS
;	COMDAT pdata
; File c:\program files (x86)\microsoft visual studio 10.0\vc\include\xutility
pdata	SEGMENT
$pdata$?_Orphan_all@_Container_base12@std@@QEAAXXZ DD imagerel $LN8
	DD	imagerel $LN8+170
	DD	imagerel $unwind$?_Orphan_all@_Container_base12@std@@QEAAXXZ
pdata	ENDS
;	COMDAT xdata
xdata	SEGMENT
$unwind$?_Orphan_all@_Container_base12@std@@QEAAXXZ DD 021e01H
	DD	07006720aH
xdata	ENDS
;	COMDAT CONST
CONST	SEGMENT
?_Orphan_all@_Container_base12@std@@QEAAXXZ$rtcName$0 DB 05fH ; std::_Container_base12::_Orphan_all
	DB	04cH
	DB	06fH
	DB	063H
	DB	06bH
	DB	00H
	ORG $+10
?_Orphan_all@_Container_base12@std@@QEAAXXZ$rtcVarDesc DD 024H ; std::_Container_base12::_Orphan_all
	DD	04H
	DQ	FLAT:?_Orphan_all@_Container_base12@std@@QEAAXXZ$rtcName$0
	ORG $+48
?_Orphan_all@_Container_base12@std@@QEAAXXZ$rtcFrameData DD 01H ; std::_Container_base12::_Orphan_all
	DD	00H
	DQ	FLAT:?_Orphan_all@_Container_base12@std@@QEAAXXZ$rtcVarDesc
; Function compile flags: /Odtp /RTCsu
CONST	ENDS
;	COMDAT ?_Orphan_all@_Container_base12@std@@QEAAXXZ
_TEXT	SEGMENT
_Lock$68433 = 36
_Pnext$68434 = 56
this$ = 80
?_Orphan_all@_Container_base12@std@@QEAAXXZ PROC	; std::_Container_base12::_Orphan_all, COMDAT
; Line 206
$LN8:
	mov	QWORD PTR [rsp+8], rcx
	push	rdi
	sub	rsp, 64					; 00000040H
	mov	rdi, rsp
	mov	ecx, 16
	mov	eax, -858993460				; ccccccccH
	rep stosd
	mov	rcx, QWORD PTR [rsp+80]
; Line 208
	mov	rax, QWORD PTR this$[rsp]
	cmp	QWORD PTR [rax], 0
	je	SHORT $LN4@Orphan_all
; Line 210
	mov	edx, 3
	lea	rcx, QWORD PTR _Lock$68433[rsp]
	call	??0_Lockit@std@@QEAA@H@Z		; std::_Lockit::_Lockit
; Line 212
	mov	rax, QWORD PTR this$[rsp]
	mov	rax, QWORD PTR [rax]
	add	rax, 8
	mov	QWORD PTR _Pnext$68434[rsp], rax
; Line 213
	jmp	SHORT $LN3@Orphan_all
$LN2@Orphan_all:
	mov	rax, QWORD PTR _Pnext$68434[rsp]
	mov	rax, QWORD PTR [rax]
	mov	rcx, QWORD PTR _Pnext$68434[rsp]
	mov	rax, QWORD PTR [rax+8]
	mov	QWORD PTR [rcx], rax
$LN3@Orphan_all:
	mov	rax, QWORD PTR _Pnext$68434[rsp]
	cmp	QWORD PTR [rax], 0
	je	SHORT $LN1@Orphan_all
; Line 214
	mov	rax, QWORD PTR _Pnext$68434[rsp]
	mov	rax, QWORD PTR [rax]
	mov	QWORD PTR [rax], 0
	jmp	SHORT $LN2@Orphan_all
$LN1@Orphan_all:
; Line 215
	mov	rax, QWORD PTR this$[rsp]
	mov	rax, QWORD PTR [rax]
	mov	QWORD PTR [rax+8], 0
; Line 216
	lea	rcx, QWORD PTR _Lock$68433[rsp]
	call	??1_Lockit@std@@QEAA@XZ			; std::_Lockit::~_Lockit
$LN4@Orphan_all:
; Line 218
	mov	rcx, rsp
	lea	rdx, OFFSET FLAT:?_Orphan_all@_Container_base12@std@@QEAAXXZ$rtcFrameData
	call	_RTC_CheckStackVars
	add	rsp, 64					; 00000040H
	pop	rdi
	ret	0
?_Orphan_all@_Container_base12@std@@QEAAXXZ ENDP	; std::_Container_base12::_Orphan_all
_TEXT	ENDS
;	COMDAT pdata
; File c:\program files (x86)\microsoft visual studio 10.0\vc\include\deque
pdata	SEGMENT
$pdata$?clear@?$deque@PEAXV?$allocator@PEAX@std@@@std@@QEAAXXZ DD imagerel $LN3
	DD	imagerel $LN3+46
	DD	imagerel $unwind$?clear@?$deque@PEAXV?$allocator@PEAX@std@@@std@@QEAAXXZ
pdata	ENDS
;	COMDAT xdata
xdata	SEGMENT
$unwind$?clear@?$deque@PEAXV?$allocator@PEAX@std@@@std@@QEAAXXZ DD 021e01H
	DD	07006320aH
; Function compile flags: /Odtp /RTCsu
xdata	ENDS
;	COMDAT ?clear@?$deque@PEAXV?$allocator@PEAX@std@@@std@@QEAAXXZ
_TEXT	SEGMENT
this$ = 48
?clear@?$deque@PEAXV?$allocator@PEAX@std@@@std@@QEAAXXZ PROC ; std::deque<void * __ptr64,std::allocator<void * __ptr64> >::clear, COMDAT
; Line 1464
$LN3:
	mov	QWORD PTR [rsp+8], rcx
	push	rdi
	sub	rsp, 32					; 00000020H
	mov	rdi, rsp
	mov	ecx, 8
	mov	eax, -858993460				; ccccccccH
	rep stosd
	mov	rcx, QWORD PTR [rsp+48]
; Line 1465
	mov	rcx, QWORD PTR this$[rsp]
	call	?_Tidy@?$deque@PEAXV?$allocator@PEAX@std@@@std@@IEAAXXZ ; std::deque<void * __ptr64,std::allocator<void * __ptr64> >::_Tidy
; Line 1466
	add	rsp, 32					; 00000020H
	pop	rdi
	ret	0
?clear@?$deque@PEAXV?$allocator@PEAX@std@@@std@@QEAAXXZ ENDP ; std::deque<void * __ptr64,std::allocator<void * __ptr64> >::clear
_TEXT	ENDS
PUBLIC	??_C@_1BO@MEPPHOO@?$AA?$CC?$AAo?$AAu?$AAt?$AA?5?$AAo?$AAf?$AA?5?$AAr?$AAa?$AAn?$AAg?$AAe?$AA?$CC?$AA?$AA@ ; `string'
PUBLIC	??_C@_1JK@EEOMPGJF@?$AAs?$AAt?$AAd?$AA?3?$AA?3?$AA_?$AAD?$AAe?$AAq?$AAu?$AAe?$AA_?$AAc?$AAo?$AAn?$AAs?$AAt?$AA_?$AAi?$AAt?$AAe?$AAr?$AAa?$AAt?$AAo?$AAr?$AA?$DM?$AAv?$AAo?$AAi?$AAd?$AA?5@ ; `string'
PUBLIC	??_C@_1FG@IBPIFFN@?$AA?$CC?$AAS?$AAt?$AAa?$AAn?$AAd?$AAa?$AAr?$AAd?$AA?5?$AAC?$AA?$CL?$AA?$CL?$AA?5?$AAL?$AAi?$AAb?$AAr?$AAa?$AAr?$AAi?$AAe?$AAs?$AA?5?$AAO?$AAu?$AAt?$AA?5?$AAo?$AAf?$AA?5?$AAR@ ; `string'
PUBLIC	??_C@_0CE@OFMIGAMM@Standard?5C?$CL?$CL?5Libraries?5Out?5of?5Ra@ ; `string'
PUBLIC	??_C@_1EE@INPCGGNP@?$AAd?$AAe?$AAq?$AAu?$AAe?$AA?5?$AAi?$AAt?$AAe?$AAr?$AAa?$AAt?$AAo?$AAr?$AA?5?$AAn?$AAo?$AAt?$AA?5?$AAd?$AAe?$AAr?$AAe?$AAf?$AAe?$AAr?$AAe?$AAn?$AAc?$AAa?$AAb?$AAl@ ; `string'
PUBLIC	?_Getcont@_Iterator_base12@std@@QEBAPEBU_Container_base12@2@XZ ; std::_Iterator_base12::_Getcont
EXTRN	_invalid_parameter:PROC
EXTRN	_CrtDbgReportW:PROC
;	COMDAT pdata
pdata	SEGMENT
$pdata$??D?$_Deque_const_iterator@PEAXV?$allocator@PEAX@std@@@std@@QEBAAEBQEAXXZ DD imagerel $LN11
	DD	imagerel $LN11+358
	DD	imagerel $unwind$??D?$_Deque_const_iterator@PEAXV?$allocator@PEAX@std@@@std@@QEBAAEBQEAXXZ
pdata	ENDS
;	COMDAT xdata
xdata	SEGMENT
$unwind$??D?$_Deque_const_iterator@PEAXV?$allocator@PEAX@std@@@std@@QEBAAEBQEAXXZ DD 021e01H
	DD	07006920aH
xdata	ENDS
;	COMDAT ??_C@_1BO@MEPPHOO@?$AA?$CC?$AAo?$AAu?$AAt?$AA?5?$AAo?$AAf?$AA?5?$AAr?$AAa?$AAn?$AAg?$AAe?$AA?$CC?$AA?$AA@
CONST	SEGMENT
??_C@_1BO@MEPPHOO@?$AA?$CC?$AAo?$AAu?$AAt?$AA?5?$AAo?$AAf?$AA?5?$AAr?$AAa?$AAn?$AAg?$AAe?$AA?$CC?$AA?$AA@ DB '"'
	DB	00H, 'o', 00H, 'u', 00H, 't', 00H, ' ', 00H, 'o', 00H, 'f', 00H
	DB	' ', 00H, 'r', 00H, 'a', 00H, 'n', 00H, 'g', 00H, 'e', 00H, '"'
	DB	00H, 00H, 00H				; `string'
CONST	ENDS
;	COMDAT ??_C@_1JK@EEOMPGJF@?$AAs?$AAt?$AAd?$AA?3?$AA?3?$AA_?$AAD?$AAe?$AAq?$AAu?$AAe?$AA_?$AAc?$AAo?$AAn?$AAs?$AAt?$AA_?$AAi?$AAt?$AAe?$AAr?$AAa?$AAt?$AAo?$AAr?$AA?$DM?$AAv?$AAo?$AAi?$AAd?$AA?5@
CONST	SEGMENT
??_C@_1JK@EEOMPGJF@?$AAs?$AAt?$AAd?$AA?3?$AA?3?$AA_?$AAD?$AAe?$AAq?$AAu?$AAe?$AA_?$AAc?$AAo?$AAn?$AAs?$AAt?$AA_?$AAi?$AAt?$AAe?$AAr?$AAa?$AAt?$AAo?$AAr?$AA?$DM?$AAv?$AAo?$AAi?$AAd?$AA?5@ DB 's'
	DB	00H, 't', 00H, 'd', 00H, ':', 00H, ':', 00H, '_', 00H, 'D', 00H
	DB	'e', 00H, 'q', 00H, 'u', 00H, 'e', 00H, '_', 00H, 'c', 00H, 'o'
	DB	00H, 'n', 00H, 's', 00H, 't', 00H, '_', 00H, 'i', 00H, 't', 00H
	DB	'e', 00H, 'r', 00H, 'a', 00H, 't', 00H, 'o', 00H, 'r', 00H, '<'
	DB	00H, 'v', 00H, 'o', 00H, 'i', 00H, 'd', 00H, ' ', 00H, '*', 00H
	DB	',', 00H, 'c', 00H, 'l', 00H, 'a', 00H, 's', 00H, 's', 00H, ' '
	DB	00H, 's', 00H, 't', 00H, 'd', 00H, ':', 00H, ':', 00H, 'a', 00H
	DB	'l', 00H, 'l', 00H, 'o', 00H, 'c', 00H, 'a', 00H, 't', 00H, 'o'
	DB	00H, 'r', 00H, '<', 00H, 'v', 00H, 'o', 00H, 'i', 00H, 'd', 00H
	DB	' ', 00H, '*', 00H, '>', 00H, ' ', 00H, '>', 00H, ':', 00H, ':'
	DB	00H, 'o', 00H, 'p', 00H, 'e', 00H, 'r', 00H, 'a', 00H, 't', 00H
	DB	'o', 00H, 'r', 00H, ' ', 00H, '*', 00H, 00H, 00H ; `string'
CONST	ENDS
;	COMDAT ??_C@_1FG@IBPIFFN@?$AA?$CC?$AAS?$AAt?$AAa?$AAn?$AAd?$AAa?$AAr?$AAd?$AA?5?$AAC?$AA?$CL?$AA?$CL?$AA?5?$AAL?$AAi?$AAb?$AAr?$AAa?$AAr?$AAi?$AAe?$AAs?$AA?5?$AAO?$AAu?$AAt?$AA?5?$AAo?$AAf?$AA?5?$AAR@
CONST	SEGMENT
??_C@_1FG@IBPIFFN@?$AA?$CC?$AAS?$AAt?$AAa?$AAn?$AAd?$AAa?$AAr?$AAd?$AA?5?$AAC?$AA?$CL?$AA?$CL?$AA?5?$AAL?$AAi?$AAb?$AAr?$AAa?$AAr?$AAi?$AAe?$AAs?$AA?5?$AAO?$AAu?$AAt?$AA?5?$AAo?$AAf?$AA?5?$AAR@ DB '"'
	DB	00H, 'S', 00H, 't', 00H, 'a', 00H, 'n', 00H, 'd', 00H, 'a', 00H
	DB	'r', 00H, 'd', 00H, ' ', 00H, 'C', 00H, '+', 00H, '+', 00H, ' '
	DB	00H, 'L', 00H, 'i', 00H, 'b', 00H, 'r', 00H, 'a', 00H, 'r', 00H
	DB	'i', 00H, 'e', 00H, 's', 00H, ' ', 00H, 'O', 00H, 'u', 00H, 't'
	DB	00H, ' ', 00H, 'o', 00H, 'f', 00H, ' ', 00H, 'R', 00H, 'a', 00H
	DB	'n', 00H, 'g', 00H, 'e', 00H, '"', 00H, ' ', 00H, '&', 00H, '&'
	DB	00H, ' ', 00H, '0', 00H, 00H, 00H		; `string'
CONST	ENDS
;	COMDAT ??_C@_0CE@OFMIGAMM@Standard?5C?$CL?$CL?5Libraries?5Out?5of?5Ra@
CONST	SEGMENT
??_C@_0CE@OFMIGAMM@Standard?5C?$CL?$CL?5Libraries?5Out?5of?5Ra@ DB 'Stand'
	DB	'ard C++ Libraries Out of Range', 00H	; `string'
CONST	ENDS
;	COMDAT ??_C@_1EE@INPCGGNP@?$AAd?$AAe?$AAq?$AAu?$AAe?$AA?5?$AAi?$AAt?$AAe?$AAr?$AAa?$AAt?$AAo?$AAr?$AA?5?$AAn?$AAo?$AAt?$AA?5?$AAd?$AAe?$AAr?$AAe?$AAf?$AAe?$AAr?$AAe?$AAn?$AAc?$AAa?$AAb?$AAl@
CONST	SEGMENT
??_C@_1EE@INPCGGNP@?$AAd?$AAe?$AAq?$AAu?$AAe?$AA?5?$AAi?$AAt?$AAe?$AAr?$AAa?$AAt?$AAo?$AAr?$AA?5?$AAn?$AAo?$AAt?$AA?5?$AAd?$AAe?$AAr?$AAe?$AAf?$AAe?$AAr?$AAe?$AAn?$AAc?$AAa?$AAb?$AAl@ DB 'd'
	DB	00H, 'e', 00H, 'q', 00H, 'u', 00H, 'e', 00H, ' ', 00H, 'i', 00H
	DB	't', 00H, 'e', 00H, 'r', 00H, 'a', 00H, 't', 00H, 'o', 00H, 'r'
	DB	00H, ' ', 00H, 'n', 00H, 'o', 00H, 't', 00H, ' ', 00H, 'd', 00H
	DB	'e', 00H, 'r', 00H, 'e', 00H, 'f', 00H, 'e', 00H, 'r', 00H, 'e'
	DB	00H, 'n', 00H, 'c', 00H, 'a', 00H, 'b', 00H, 'l', 00H, 'e', 00H
	DB	00H, 00H					; `string'
; Function compile flags: /Odtp /RTCsu
CONST	ENDS
;	COMDAT ??D?$_Deque_const_iterator@PEAXV?$allocator@PEAX@std@@@std@@QEBAAEBQEAXXZ
_TEXT	SEGMENT
_Mycont$ = 48
_Block$ = 56
_Off$ = 64
this$ = 96
??D?$_Deque_const_iterator@PEAXV?$allocator@PEAX@std@@@std@@QEBAAEBQEAXXZ PROC ; std::_Deque_const_iterator<void * __ptr64,std::allocator<void * __ptr64> >::operator*, COMDAT
; Line 330
$LN11:
	mov	QWORD PTR [rsp+8], rcx
	push	rdi
	sub	rsp, 80					; 00000050H
	mov	rdi, rsp
	mov	ecx, 20
	mov	eax, -858993460				; ccccccccH
	rep stosd
	mov	rcx, QWORD PTR [rsp+96]
; Line 331
	mov	rcx, QWORD PTR this$[rsp]
	call	?_Getcont@_Iterator_base12@std@@QEBAPEBU_Container_base12@2@XZ ; std::_Iterator_base12::_Getcont
	mov	QWORD PTR _Mycont$[rsp], rax
; Line 336
	cmp	QWORD PTR _Mycont$[rsp], 0
	je	SHORT $LN5@operator@2
	mov	rax, QWORD PTR this$[rsp]
	mov	rcx, QWORD PTR _Mycont$[rsp]
	mov	rcx, QWORD PTR [rcx+24]
	cmp	QWORD PTR [rax+16], rcx
	jb	SHORT $LN5@operator@2
	mov	rax, QWORD PTR _Mycont$[rsp]
	mov	rax, QWORD PTR [rax+24]
	mov	rcx, QWORD PTR _Mycont$[rsp]
	add	rax, QWORD PTR [rcx+32]
	mov	rcx, QWORD PTR this$[rsp]
	cmp	rax, QWORD PTR [rcx+16]
	ja	$LN6@operator@2
$LN5@operator@2:
; Line 338
	mov	r8d, 338				; 00000152H
	lea	rdx, OFFSET FLAT:??_C@_1IK@NBJCLFHG@?$AAc?$AA?3?$AA?2?$AAP?$AAr?$AAo?$AAg?$AAr?$AAa?$AAm?$AA?5?$AAF?$AAi?$AAl?$AAe?$AAs?$AA?5?$AA?$CI?$AAx?$AA8?$AA6?$AA?$CJ?$AA?2?$AAM?$AAi?$AAc?$AAr?$AAo?$AAs?$AAo?$AAf?$AAt@
	lea	rcx, OFFSET FLAT:??_C@_1EE@INPCGGNP@?$AAd?$AAe?$AAq?$AAu?$AAe?$AA?5?$AAi?$AAt?$AAe?$AAr?$AAa?$AAt?$AAo?$AAr?$AA?5?$AAn?$AAo?$AAt?$AA?5?$AAd?$AAe?$AAr?$AAe?$AAf?$AAe?$AAr?$AAe?$AAn?$AAc?$AAa?$AAb?$AAl@
	call	?_Debug_message@std@@YAXPEB_W0I@Z	; std::_Debug_message
; Line 339
	lea	rax, OFFSET FLAT:??_C@_0CE@OFMIGAMM@Standard?5C?$CL?$CL?5Libraries?5Out?5of?5Ra@
	test	rax, rax
	je	SHORT $LN9@operator@2
	xor	eax, eax
	test	eax, eax
	jne	SHORT $LN10@operator@2
$LN9@operator@2:
	lea	rax, OFFSET FLAT:??_C@_1FG@IBPIFFN@?$AA?$CC?$AAS?$AAt?$AAa?$AAn?$AAd?$AAa?$AAr?$AAd?$AA?5?$AAC?$AA?$CL?$AA?$CL?$AA?5?$AAL?$AAi?$AAb?$AAr?$AAa?$AAr?$AAi?$AAe?$AAs?$AA?5?$AAO?$AAu?$AAt?$AA?5?$AAo?$AAf?$AA?5?$AAR@
	mov	QWORD PTR [rsp+32], rax
	xor	r9d, r9d
	mov	r8d, 339				; 00000153H
	lea	rdx, OFFSET FLAT:??_C@_1IK@NBJCLFHG@?$AAc?$AA?3?$AA?2?$AAP?$AAr?$AAo?$AAg?$AAr?$AAa?$AAm?$AA?5?$AAF?$AAi?$AAl?$AAe?$AAs?$AA?5?$AA?$CI?$AAx?$AA8?$AA6?$AA?$CJ?$AA?2?$AAM?$AAi?$AAc?$AAr?$AAo?$AAs?$AAo?$AAf?$AAt@
	mov	ecx, 2
	call	_CrtDbgReportW
	cmp	eax, 1
	jne	SHORT $LN10@operator@2
	int	3
	xor	eax, eax
$LN10@operator@2:
	mov	QWORD PTR [rsp+32], 0
	mov	r9d, 339				; 00000153H
	lea	r8, OFFSET FLAT:??_C@_1IK@NBJCLFHG@?$AAc?$AA?3?$AA?2?$AAP?$AAr?$AAo?$AAg?$AAr?$AAa?$AAm?$AA?5?$AAF?$AAi?$AAl?$AAe?$AAs?$AA?5?$AA?$CI?$AAx?$AA8?$AA6?$AA?$CJ?$AA?2?$AAM?$AAi?$AAc?$AAr?$AAo?$AAs?$AAo?$AAf?$AAt@
	lea	rdx, OFFSET FLAT:??_C@_1JK@EEOMPGJF@?$AAs?$AAt?$AAd?$AA?3?$AA?3?$AA_?$AAD?$AAe?$AAq?$AAu?$AAe?$AA_?$AAc?$AAo?$AAn?$AAs?$AAt?$AA_?$AAi?$AAt?$AAe?$AAr?$AAa?$AAt?$AAo?$AAr?$AA?$DM?$AAv?$AAo?$AAi?$AAd?$AA?5@
	lea	rcx, OFFSET FLAT:??_C@_1BO@MEPPHOO@?$AA?$CC?$AAo?$AAu?$AAt?$AA?5?$AAo?$AAf?$AA?5?$AAr?$AAa?$AAn?$AAg?$AAe?$AA?$CC?$AA?$AA@
	call	_invalid_parameter
$LN6@operator@2:
$LN4@operator@2:
; Line 348
	xor	eax, eax
	test	eax, eax
	jne	SHORT $LN4@operator@2
; Line 350
	xor	edx, edx
	mov	rax, QWORD PTR this$[rsp]
	mov	rax, QWORD PTR [rax+16]
	mov	ecx, 2
	div	rcx
	mov	QWORD PTR _Block$[rsp], rax
; Line 351
	mov	rax, QWORD PTR this$[rsp]
	mov	rax, QWORD PTR [rax+16]
	and	rax, 1
	mov	QWORD PTR _Off$[rsp], rax
; Line 353
	mov	rax, QWORD PTR _Mycont$[rsp]
	mov	rcx, QWORD PTR _Block$[rsp]
	cmp	QWORD PTR [rax+16], rcx
	ja	SHORT $LN1@operator@2
; Line 354
	mov	rax, QWORD PTR _Mycont$[rsp]
	mov	rax, QWORD PTR [rax+16]
	mov	rcx, QWORD PTR _Block$[rsp]
	sub	rcx, rax
	mov	rax, rcx
	mov	QWORD PTR _Block$[rsp], rax
$LN1@operator@2:
; Line 355
	mov	rax, QWORD PTR _Mycont$[rsp]
	mov	rax, QWORD PTR [rax+8]
	mov	rcx, QWORD PTR _Block$[rsp]
	mov	rax, QWORD PTR [rax+rcx*8]
	mov	rcx, QWORD PTR _Off$[rsp]
	lea	rax, QWORD PTR [rax+rcx*8]
; Line 356
	add	rsp, 80					; 00000050H
	pop	rdi
	ret	0
??D?$_Deque_const_iterator@PEAXV?$allocator@PEAX@std@@@std@@QEBAAEBQEAXXZ ENDP ; std::_Deque_const_iterator<void * __ptr64,std::allocator<void * __ptr64> >::operator*
_TEXT	ENDS
;	COMDAT pdata
; File c:\program files (x86)\microsoft visual studio 10.0\vc\include\xutility
pdata	SEGMENT
$pdata$?_Getcont@_Iterator_base12@std@@QEBAPEBU_Container_base12@2@XZ DD imagerel $LN5
	DD	imagerel $LN5+76
	DD	imagerel $unwind$?_Getcont@_Iterator_base12@std@@QEBAPEBU_Container_base12@2@XZ
pdata	ENDS
;	COMDAT xdata
xdata	SEGMENT
$unwind$?_Getcont@_Iterator_base12@std@@QEBAPEBU_Container_base12@2@XZ DD 021e01H
	DD	07006120aH
; Function compile flags: /Odtp /RTCsu
xdata	ENDS
;	COMDAT ?_Getcont@_Iterator_base12@std@@QEBAPEBU_Container_base12@2@XZ
_TEXT	SEGMENT
tv66 = 0
this$ = 32
?_Getcont@_Iterator_base12@std@@QEBAPEBU_Container_base12@2@XZ PROC ; std::_Iterator_base12::_Getcont, COMDAT
; Line 174
$LN5:
	mov	QWORD PTR [rsp+8], rcx
	push	rdi
	sub	rsp, 16
	mov	rdi, rsp
	mov	ecx, 4
	mov	eax, -858993460				; ccccccccH
	rep stosd
	mov	rcx, QWORD PTR [rsp+32]
; Line 175
	mov	rax, QWORD PTR this$[rsp]
	cmp	QWORD PTR [rax], 0
	jne	SHORT $LN3@Getcont
	mov	QWORD PTR tv66[rsp], 0
	jmp	SHORT $LN4@Getcont
$LN3@Getcont:
	mov	rax, QWORD PTR this$[rsp]
	mov	rax, QWORD PTR [rax]
	mov	rax, QWORD PTR [rax]
	mov	QWORD PTR tv66[rsp], rax
$LN4@Getcont:
	mov	rax, QWORD PTR tv66[rsp]
; Line 176
	add	rsp, 16
	pop	rdi
	ret	0
?_Getcont@_Iterator_base12@std@@QEBAPEBU_Container_base12@2@XZ ENDP ; std::_Iterator_base12::_Getcont
_TEXT	ENDS
PUBLIC	??_C@_1JM@OEIHJGAA@?$AAs?$AAt?$AAd?$AA?3?$AA?3?$AA_?$AAD?$AAe?$AAq?$AAu?$AAe?$AA_?$AAc?$AAo?$AAn?$AAs?$AAt?$AA_?$AAi?$AAt?$AAe?$AAr?$AAa?$AAt?$AAo?$AAr?$AA?$DM?$AAv?$AAo?$AAi?$AAd?$AA?5@ ; `string'
PUBLIC	??_C@_1EC@CEAHEOFL@?$AAd?$AAe?$AAq?$AAu?$AAe?$AA?5?$AAi?$AAt?$AAe?$AAr?$AAa?$AAt?$AAo?$AAr?$AA?5?$AAn?$AAo?$AAt?$AA?5?$AAi?$AAn?$AAc?$AAr?$AAe?$AAm?$AAe?$AAn?$AAt?$AAa?$AAb?$AAl?$AAe@ ; `string'
;	COMDAT pdata
; File c:\program files (x86)\microsoft visual studio 10.0\vc\include\deque
pdata	SEGMENT
$pdata$??E?$_Deque_const_iterator@PEAXV?$allocator@PEAX@std@@@std@@QEAAAEAV01@XZ DD imagerel $LN7
	DD	imagerel $LN7+248
	DD	imagerel $unwind$??E?$_Deque_const_iterator@PEAXV?$allocator@PEAX@std@@@std@@QEAAAEAV01@XZ
pdata	ENDS
;	COMDAT xdata
xdata	SEGMENT
$unwind$??E?$_Deque_const_iterator@PEAXV?$allocator@PEAX@std@@@std@@QEAAAEAV01@XZ DD 021e01H
	DD	07006720aH
xdata	ENDS
;	COMDAT ??_C@_1JM@OEIHJGAA@?$AAs?$AAt?$AAd?$AA?3?$AA?3?$AA_?$AAD?$AAe?$AAq?$AAu?$AAe?$AA_?$AAc?$AAo?$AAn?$AAs?$AAt?$AA_?$AAi?$AAt?$AAe?$AAr?$AAa?$AAt?$AAo?$AAr?$AA?$DM?$AAv?$AAo?$AAi?$AAd?$AA?5@
CONST	SEGMENT
??_C@_1JM@OEIHJGAA@?$AAs?$AAt?$AAd?$AA?3?$AA?3?$AA_?$AAD?$AAe?$AAq?$AAu?$AAe?$AA_?$AAc?$AAo?$AAn?$AAs?$AAt?$AA_?$AAi?$AAt?$AAe?$AAr?$AAa?$AAt?$AAo?$AAr?$AA?$DM?$AAv?$AAo?$AAi?$AAd?$AA?5@ DB 's'
	DB	00H, 't', 00H, 'd', 00H, ':', 00H, ':', 00H, '_', 00H, 'D', 00H
	DB	'e', 00H, 'q', 00H, 'u', 00H, 'e', 00H, '_', 00H, 'c', 00H, 'o'
	DB	00H, 'n', 00H, 's', 00H, 't', 00H, '_', 00H, 'i', 00H, 't', 00H
	DB	'e', 00H, 'r', 00H, 'a', 00H, 't', 00H, 'o', 00H, 'r', 00H, '<'
	DB	00H, 'v', 00H, 'o', 00H, 'i', 00H, 'd', 00H, ' ', 00H, '*', 00H
	DB	',', 00H, 'c', 00H, 'l', 00H, 'a', 00H, 's', 00H, 's', 00H, ' '
	DB	00H, 's', 00H, 't', 00H, 'd', 00H, ':', 00H, ':', 00H, 'a', 00H
	DB	'l', 00H, 'l', 00H, 'o', 00H, 'c', 00H, 'a', 00H, 't', 00H, 'o'
	DB	00H, 'r', 00H, '<', 00H, 'v', 00H, 'o', 00H, 'i', 00H, 'd', 00H
	DB	' ', 00H, '*', 00H, '>', 00H, ' ', 00H, '>', 00H, ':', 00H, ':'
	DB	00H, 'o', 00H, 'p', 00H, 'e', 00H, 'r', 00H, 'a', 00H, 't', 00H
	DB	'o', 00H, 'r', 00H, ' ', 00H, '+', 00H, '+', 00H, 00H, 00H ; `string'
CONST	ENDS
;	COMDAT ??_C@_1EC@CEAHEOFL@?$AAd?$AAe?$AAq?$AAu?$AAe?$AA?5?$AAi?$AAt?$AAe?$AAr?$AAa?$AAt?$AAo?$AAr?$AA?5?$AAn?$AAo?$AAt?$AA?5?$AAi?$AAn?$AAc?$AAr?$AAe?$AAm?$AAe?$AAn?$AAt?$AAa?$AAb?$AAl?$AAe@
CONST	SEGMENT
??_C@_1EC@CEAHEOFL@?$AAd?$AAe?$AAq?$AAu?$AAe?$AA?5?$AAi?$AAt?$AAe?$AAr?$AAa?$AAt?$AAo?$AAr?$AA?5?$AAn?$AAo?$AAt?$AA?5?$AAi?$AAn?$AAc?$AAr?$AAe?$AAm?$AAe?$AAn?$AAt?$AAa?$AAb?$AAl?$AAe@ DB 'd'
	DB	00H, 'e', 00H, 'q', 00H, 'u', 00H, 'e', 00H, ' ', 00H, 'i', 00H
	DB	't', 00H, 'e', 00H, 'r', 00H, 'a', 00H, 't', 00H, 'o', 00H, 'r'
	DB	00H, ' ', 00H, 'n', 00H, 'o', 00H, 't', 00H, ' ', 00H, 'i', 00H
	DB	'n', 00H, 'c', 00H, 'r', 00H, 'e', 00H, 'm', 00H, 'e', 00H, 'n'
	DB	00H, 't', 00H, 'a', 00H, 'b', 00H, 'l', 00H, 'e', 00H, 00H, 00H ; `string'
; Function compile flags: /Odtp /RTCsu
CONST	ENDS
;	COMDAT ??E?$_Deque_const_iterator@PEAXV?$allocator@PEAX@std@@@std@@QEAAAEAV01@XZ
_TEXT	SEGMENT
_Mycont$ = 48
this$ = 80
??E?$_Deque_const_iterator@PEAXV?$allocator@PEAX@std@@@std@@QEAAAEAV01@XZ PROC ; std::_Deque_const_iterator<void * __ptr64,std::allocator<void * __ptr64> >::operator++, COMDAT
; Line 364
$LN7:
	mov	QWORD PTR [rsp+8], rcx
	push	rdi
	sub	rsp, 64					; 00000040H
	mov	rdi, rsp
	mov	ecx, 16
	mov	eax, -858993460				; ccccccccH
	rep stosd
	mov	rcx, QWORD PTR [rsp+80]
; Line 366
	mov	rcx, QWORD PTR this$[rsp]
	call	?_Getcont@_Iterator_base12@std@@QEBAPEBU_Container_base12@2@XZ ; std::_Iterator_base12::_Getcont
	mov	QWORD PTR _Mycont$[rsp], rax
; Line 368
	cmp	QWORD PTR _Mycont$[rsp], 0
	je	SHORT $LN1@operator@3
	mov	rax, QWORD PTR _Mycont$[rsp]
	mov	rax, QWORD PTR [rax+24]
	mov	rcx, QWORD PTR _Mycont$[rsp]
	add	rax, QWORD PTR [rcx+32]
	mov	rcx, QWORD PTR this$[rsp]
	cmp	rax, QWORD PTR [rcx+16]
	ja	$LN2@operator@3
$LN1@operator@3:
; Line 370
	mov	r8d, 370				; 00000172H
	lea	rdx, OFFSET FLAT:??_C@_1IK@NBJCLFHG@?$AAc?$AA?3?$AA?2?$AAP?$AAr?$AAo?$AAg?$AAr?$AAa?$AAm?$AA?5?$AAF?$AAi?$AAl?$AAe?$AAs?$AA?5?$AA?$CI?$AAx?$AA8?$AA6?$AA?$CJ?$AA?2?$AAM?$AAi?$AAc?$AAr?$AAo?$AAs?$AAo?$AAf?$AAt@
	lea	rcx, OFFSET FLAT:??_C@_1EC@CEAHEOFL@?$AAd?$AAe?$AAq?$AAu?$AAe?$AA?5?$AAi?$AAt?$AAe?$AAr?$AAa?$AAt?$AAo?$AAr?$AA?5?$AAn?$AAo?$AAt?$AA?5?$AAi?$AAn?$AAc?$AAr?$AAe?$AAm?$AAe?$AAn?$AAt?$AAa?$AAb?$AAl?$AAe@
	call	?_Debug_message@std@@YAXPEB_W0I@Z	; std::_Debug_message
; Line 371
	lea	rax, OFFSET FLAT:??_C@_0CE@OFMIGAMM@Standard?5C?$CL?$CL?5Libraries?5Out?5of?5Ra@
	test	rax, rax
	je	SHORT $LN5@operator@3
	xor	eax, eax
	test	eax, eax
	jne	SHORT $LN6@operator@3
$LN5@operator@3:
	lea	rax, OFFSET FLAT:??_C@_1FG@IBPIFFN@?$AA?$CC?$AAS?$AAt?$AAa?$AAn?$AAd?$AAa?$AAr?$AAd?$AA?5?$AAC?$AA?$CL?$AA?$CL?$AA?5?$AAL?$AAi?$AAb?$AAr?$AAa?$AAr?$AAi?$AAe?$AAs?$AA?5?$AAO?$AAu?$AAt?$AA?5?$AAo?$AAf?$AA?5?$AAR@
	mov	QWORD PTR [rsp+32], rax
	xor	r9d, r9d
	mov	r8d, 371				; 00000173H
	lea	rdx, OFFSET FLAT:??_C@_1IK@NBJCLFHG@?$AAc?$AA?3?$AA?2?$AAP?$AAr?$AAo?$AAg?$AAr?$AAa?$AAm?$AA?5?$AAF?$AAi?$AAl?$AAe?$AAs?$AA?5?$AA?$CI?$AAx?$AA8?$AA6?$AA?$CJ?$AA?2?$AAM?$AAi?$AAc?$AAr?$AAo?$AAs?$AAo?$AAf?$AAt@
	mov	ecx, 2
	call	_CrtDbgReportW
	cmp	eax, 1
	jne	SHORT $LN6@operator@3
	int	3
	xor	eax, eax
$LN6@operator@3:
	mov	QWORD PTR [rsp+32], 0
	mov	r9d, 371				; 00000173H
	lea	r8, OFFSET FLAT:??_C@_1IK@NBJCLFHG@?$AAc?$AA?3?$AA?2?$AAP?$AAr?$AAo?$AAg?$AAr?$AAa?$AAm?$AA?5?$AAF?$AAi?$AAl?$AAe?$AAs?$AA?5?$AA?$CI?$AAx?$AA8?$AA6?$AA?$CJ?$AA?2?$AAM?$AAi?$AAc?$AAr?$AAo?$AAs?$AAo?$AAf?$AAt@
	lea	rdx, OFFSET FLAT:??_C@_1JM@OEIHJGAA@?$AAs?$AAt?$AAd?$AA?3?$AA?3?$AA_?$AAD?$AAe?$AAq?$AAu?$AAe?$AA_?$AAc?$AAo?$AAn?$AAs?$AAt?$AA_?$AAi?$AAt?$AAe?$AAr?$AAa?$AAt?$AAo?$AAr?$AA?$DM?$AAv?$AAo?$AAi?$AAd?$AA?5@
	lea	rcx, OFFSET FLAT:??_C@_1BO@MEPPHOO@?$AA?$CC?$AAo?$AAu?$AAt?$AA?5?$AAo?$AAf?$AA?5?$AAr?$AAa?$AAn?$AAg?$AAe?$AA?$CC?$AA?$AA@
	call	_invalid_parameter
$LN2@operator@3:
; Line 381
	mov	rax, QWORD PTR this$[rsp]
	mov	rax, QWORD PTR [rax+16]
	inc	rax
	mov	rcx, QWORD PTR this$[rsp]
	mov	QWORD PTR [rcx+16], rax
; Line 382
	mov	rax, QWORD PTR this$[rsp]
; Line 383
	add	rsp, 64					; 00000040H
	pop	rdi
	ret	0
??E?$_Deque_const_iterator@PEAXV?$allocator@PEAX@std@@@std@@QEAAAEAV01@XZ ENDP ; std::_Deque_const_iterator<void * __ptr64,std::allocator<void * __ptr64> >::operator++
_TEXT	ENDS
PUBLIC	?_Compat@?$_Deque_const_iterator@PEAXV?$allocator@PEAX@std@@@std@@QEBAXAEBV12@@Z ; std::_Deque_const_iterator<void * __ptr64,std::allocator<void * __ptr64> >::_Compat
;	COMDAT pdata
pdata	SEGMENT
$pdata$??M?$_Deque_const_iterator@PEAXV?$allocator@PEAX@std@@@std@@QEBA_NAEBV01@@Z DD imagerel $LN5
	DD	imagerel $LN5+99
	DD	imagerel $unwind$??M?$_Deque_const_iterator@PEAXV?$allocator@PEAX@std@@@std@@QEBA_NAEBV01@@Z
pdata	ENDS
;	COMDAT xdata
xdata	SEGMENT
$unwind$??M?$_Deque_const_iterator@PEAXV?$allocator@PEAX@std@@@std@@QEBA_NAEBV01@@Z DD 022301H
	DD	0700b520fH
; Function compile flags: /Odtp /RTCsu
xdata	ENDS
;	COMDAT ??M?$_Deque_const_iterator@PEAXV?$allocator@PEAX@std@@@std@@QEBA_NAEBV01@@Z
_TEXT	SEGMENT
tv69 = 32
this$ = 64
_Right$ = 72
??M?$_Deque_const_iterator@PEAXV?$allocator@PEAX@std@@@std@@QEBA_NAEBV01@@Z PROC ; std::_Deque_const_iterator<void * __ptr64,std::allocator<void * __ptr64> >::operator<, COMDAT
; Line 485
$LN5:
	mov	QWORD PTR [rsp+16], rdx
	mov	QWORD PTR [rsp+8], rcx
	push	rdi
	sub	rsp, 48					; 00000030H
	mov	rdi, rsp
	mov	ecx, 12
	mov	eax, -858993460				; ccccccccH
	rep stosd
	mov	rcx, QWORD PTR [rsp+64]
; Line 486
	mov	rdx, QWORD PTR _Right$[rsp]
	mov	rcx, QWORD PTR this$[rsp]
	call	?_Compat@?$_Deque_const_iterator@PEAXV?$allocator@PEAX@std@@@std@@QEBAXAEBV12@@Z ; std::_Deque_const_iterator<void * __ptr64,std::allocator<void * __ptr64> >::_Compat
; Line 487
	mov	rax, QWORD PTR this$[rsp]
	mov	rcx, QWORD PTR _Right$[rsp]
	mov	rcx, QWORD PTR [rcx+16]
	cmp	QWORD PTR [rax+16], rcx
	jae	SHORT $LN3@operator@4
	mov	DWORD PTR tv69[rsp], 1
	jmp	SHORT $LN4@operator@4
$LN3@operator@4:
	mov	DWORD PTR tv69[rsp], 0
$LN4@operator@4:
	movzx	eax, BYTE PTR tv69[rsp]
; Line 488
	add	rsp, 48					; 00000030H
	pop	rdi
	ret	0
??M?$_Deque_const_iterator@PEAXV?$allocator@PEAX@std@@@std@@QEBA_NAEBV01@@Z ENDP ; std::_Deque_const_iterator<void * __ptr64,std::allocator<void * __ptr64> >::operator<
_TEXT	ENDS
PUBLIC	?deallocate@?$allocator@PEAPEAX@std@@QEAAXPEAPEAPEAX_K@Z ; std::allocator<void * __ptr64 * __ptr64>::deallocate
PUBLIC	??$_Destroy_range@V?$allocator@PEAPEAX@std@@@std@@YAXPEAPEAPEAX0AEAV?$allocator@PEAPEAX@0@@Z ; std::_Destroy_range<std::allocator<void * __ptr64 * __ptr64> >
PUBLIC	??$_Uninitialized_default_fill_n@PEAPEAPEAX_KPEAPEAXV?$allocator@PEAPEAX@std@@@std@@YAXPEAPEAPEAX_KPEBQEAPEAXAEAV?$allocator@PEAPEAX@0@@Z ; std::_Uninitialized_default_fill_n<void * __ptr64 * __ptr64 * __ptr64,unsigned __int64,void * __ptr64 * __ptr64,std::allocator<void * __ptr64 * __ptr64> >
PUBLIC	??$_Uninitialized_copy@PEAPEAPEAXPEAPEAPEAXV?$allocator@PEAPEAX@std@@@std@@YAPEAPEAPEAXPEAPEAPEAX00AEAV?$allocator@PEAPEAX@0@@Z ; std::_Uninitialized_copy<void * __ptr64 * __ptr64 * __ptr64,void * __ptr64 * __ptr64 * __ptr64,std::allocator<void * __ptr64 * __ptr64> >
PUBLIC	?allocate@?$allocator@PEAPEAX@std@@QEAAPEAPEAPEAX_K@Z ; std::allocator<void * __ptr64 * __ptr64>::allocate
PUBLIC	?_Xlen@?$deque@PEAXV?$allocator@PEAX@std@@@std@@IEBAXXZ ; std::deque<void * __ptr64,std::allocator<void * __ptr64> >::_Xlen
PUBLIC	?max_size@?$deque@PEAXV?$allocator@PEAX@std@@@std@@QEBA_KXZ ; std::deque<void * __ptr64,std::allocator<void * __ptr64> >::max_size
;	COMDAT pdata
pdata	SEGMENT
$pdata$?_Growmap@?$deque@PEAXV?$allocator@PEAX@std@@@std@@IEAAX_K@Z DD imagerel $LN9
	DD	imagerel $LN9+818
	DD	imagerel $unwind$?_Growmap@?$deque@PEAXV?$allocator@PEAX@std@@@std@@IEAAX_K@Z
pdata	ENDS
;	COMDAT xdata
xdata	SEGMENT
$unwind$?_Growmap@?$deque@PEAXV?$allocator@PEAX@std@@@std@@IEAAX_K@Z DD 022301H
	DD	0700bb20fH
; Function compile flags: /Odtp /RTCsu
xdata	ENDS
;	COMDAT ?_Growmap@?$deque@PEAXV?$allocator@PEAX@std@@@std@@IEAAX_K@Z
_TEXT	SEGMENT
_Inc$ = 32
_Myboff$ = 40
_Newmap$ = 48
_Myptr$ = 56
tv174 = 64
tv261 = 72
tv297 = 80
this$ = 112
_Count$ = 120
?_Growmap@?$deque@PEAXV?$allocator@PEAX@std@@@std@@IEAAX_K@Z PROC ; std::deque<void * __ptr64,std::allocator<void * __ptr64> >::_Growmap, COMDAT
; Line 1589
$LN9:
	mov	QWORD PTR [rsp+16], rdx
	mov	QWORD PTR [rsp+8], rcx
	push	rdi
	sub	rsp, 96					; 00000060H
	mov	rdi, rsp
	mov	ecx, 24
	mov	eax, -858993460				; ccccccccH
	rep stosd
	mov	rcx, QWORD PTR [rsp+112]
; Line 1590
	mov	rcx, QWORD PTR this$[rsp]
	call	?max_size@?$deque@PEAXV?$allocator@PEAX@std@@@std@@QEBA_KXZ ; std::deque<void * __ptr64,std::allocator<void * __ptr64> >::max_size
	xor	edx, edx
	mov	ecx, 2
	div	rcx
	mov	rcx, QWORD PTR this$[rsp]
	sub	rax, QWORD PTR [rcx+16]
	cmp	rax, QWORD PTR _Count$[rsp]
	jae	SHORT $LN6@Growmap
; Line 1591
	mov	rcx, QWORD PTR this$[rsp]
	call	?_Xlen@?$deque@PEAXV?$allocator@PEAX@std@@@std@@IEBAXXZ ; std::deque<void * __ptr64,std::allocator<void * __ptr64> >::_Xlen
$LN6@Growmap:
; Line 1593
	xor	edx, edx
	mov	rax, QWORD PTR this$[rsp]
	mov	rax, QWORD PTR [rax+16]
	mov	ecx, 2
	div	rcx
	mov	QWORD PTR _Inc$[rsp], rax
; Line 1594
	cmp	QWORD PTR _Inc$[rsp], 8
	jae	SHORT $LN5@Growmap
; Line 1595
	mov	QWORD PTR _Inc$[rsp], 8
$LN5@Growmap:
; Line 1596
	mov	rax, QWORD PTR _Inc$[rsp]
	cmp	QWORD PTR _Count$[rsp], rax
	jae	SHORT $LN4@Growmap
	mov	rcx, QWORD PTR this$[rsp]
	call	?max_size@?$deque@PEAXV?$allocator@PEAX@std@@@std@@QEBA_KXZ ; std::deque<void * __ptr64,std::allocator<void * __ptr64> >::max_size
	xor	edx, edx
	mov	ecx, 2
	div	rcx
	sub	rax, QWORD PTR _Inc$[rsp]
	mov	rcx, QWORD PTR this$[rsp]
	cmp	QWORD PTR [rcx+16], rax
	ja	SHORT $LN4@Growmap
; Line 1597
	mov	rax, QWORD PTR _Inc$[rsp]
	mov	QWORD PTR _Count$[rsp], rax
$LN4@Growmap:
; Line 1598
	xor	edx, edx
	mov	rax, QWORD PTR this$[rsp]
	mov	rax, QWORD PTR [rax+24]
	mov	ecx, 2
	div	rcx
	mov	QWORD PTR _Myboff$[rsp], rax
; Line 1599
	mov	rax, QWORD PTR this$[rsp]
	mov	rax, QWORD PTR [rax+16]
	add	rax, QWORD PTR _Count$[rsp]
	mov	rcx, QWORD PTR this$[rsp]
	add	rcx, 41					; 00000029H
	mov	rdx, rax
	call	?allocate@?$allocator@PEAPEAX@std@@QEAAPEAPEAPEAX_K@Z ; std::allocator<void * __ptr64 * __ptr64>::allocate
	mov	QWORD PTR _Newmap$[rsp], rax
; Line 1600
	mov	rax, QWORD PTR _Newmap$[rsp]
	mov	rcx, QWORD PTR _Myboff$[rsp]
	lea	rax, QWORD PTR [rax+rcx*8]
	mov	QWORD PTR _Myptr$[rsp], rax
; Line 1604
	mov	rax, QWORD PTR this$[rsp]
	add	rax, 41					; 00000029H
	mov	rcx, QWORD PTR this$[rsp]
	mov	rcx, QWORD PTR [rcx+16]
	mov	rdx, QWORD PTR this$[rsp]
	mov	rdx, QWORD PTR [rdx+8]
	lea	rcx, QWORD PTR [rdx+rcx*8]
	mov	rdx, QWORD PTR this$[rsp]
	mov	rdx, QWORD PTR [rdx+8]
	mov	r8, QWORD PTR _Myboff$[rsp]
	lea	rdx, QWORD PTR [rdx+r8*8]
	mov	QWORD PTR tv174[rsp], rdx
	mov	r9, rax
	mov	r8, QWORD PTR _Myptr$[rsp]
	mov	rdx, rcx
	mov	rax, QWORD PTR tv174[rsp]
	mov	rcx, rax
	call	??$_Uninitialized_copy@PEAPEAPEAXPEAPEAPEAXV?$allocator@PEAPEAX@std@@@std@@YAPEAPEAPEAXPEAPEAPEAX00AEAV?$allocator@PEAPEAX@0@@Z ; std::_Uninitialized_copy<void * __ptr64 * __ptr64 * __ptr64,void * __ptr64 * __ptr64 * __ptr64,std::allocator<void * __ptr64 * __ptr64> >
	mov	QWORD PTR _Myptr$[rsp], rax
; Line 1605
	mov	rax, QWORD PTR _Count$[rsp]
	cmp	QWORD PTR _Myboff$[rsp], rax
	ja	$LN3@Growmap
; Line 1609
	mov	rax, QWORD PTR this$[rsp]
	add	rax, 41					; 00000029H
	mov	rcx, QWORD PTR this$[rsp]
	mov	rcx, QWORD PTR [rcx+8]
	mov	rdx, QWORD PTR _Myboff$[rsp]
	lea	rcx, QWORD PTR [rcx+rdx*8]
	mov	r9, rax
	mov	r8, QWORD PTR _Myptr$[rsp]
	mov	rdx, rcx
	mov	rax, QWORD PTR this$[rsp]
	mov	rcx, QWORD PTR [rax+8]
	call	??$_Uninitialized_copy@PEAPEAPEAXPEAPEAPEAXV?$allocator@PEAPEAX@std@@@std@@YAPEAPEAPEAXPEAPEAPEAX00AEAV?$allocator@PEAPEAX@0@@Z ; std::_Uninitialized_copy<void * __ptr64 * __ptr64 * __ptr64,void * __ptr64 * __ptr64 * __ptr64,std::allocator<void * __ptr64 * __ptr64> >
	mov	QWORD PTR _Myptr$[rsp], rax
; Line 1611
	mov	rax, QWORD PTR this$[rsp]
	add	rax, 41					; 00000029H
	mov	rcx, QWORD PTR _Myboff$[rsp]
	mov	rdx, QWORD PTR _Count$[rsp]
	sub	rdx, rcx
	mov	rcx, rdx
	mov	r9, rax
	xor	r8d, r8d
	mov	rdx, rcx
	mov	rcx, QWORD PTR _Myptr$[rsp]
	call	??$_Uninitialized_default_fill_n@PEAPEAPEAX_KPEAPEAXV?$allocator@PEAPEAX@std@@@std@@YAXPEAPEAPEAX_KPEBQEAPEAXAEAV?$allocator@PEAPEAX@0@@Z ; std::_Uninitialized_default_fill_n<void * __ptr64 * __ptr64 * __ptr64,unsigned __int64,void * __ptr64 * __ptr64,std::allocator<void * __ptr64 * __ptr64> >
; Line 1613
	mov	rax, QWORD PTR this$[rsp]
	add	rax, 41					; 00000029H
	mov	r9, rax
	xor	r8d, r8d
	mov	rdx, QWORD PTR _Myboff$[rsp]
	mov	rcx, QWORD PTR _Newmap$[rsp]
	call	??$_Uninitialized_default_fill_n@PEAPEAPEAX_KPEAPEAXV?$allocator@PEAPEAX@std@@@std@@YAXPEAPEAPEAX_KPEBQEAPEAXAEAV?$allocator@PEAPEAX@0@@Z ; std::_Uninitialized_default_fill_n<void * __ptr64 * __ptr64 * __ptr64,unsigned __int64,void * __ptr64 * __ptr64,std::allocator<void * __ptr64 * __ptr64> >
; Line 1615
	jmp	$LN2@Growmap
$LN3@Growmap:
; Line 1619
	mov	rax, QWORD PTR this$[rsp]
	add	rax, 41					; 00000029H
	mov	rcx, QWORD PTR this$[rsp]
	mov	rcx, QWORD PTR [rcx+8]
	mov	rdx, QWORD PTR _Count$[rsp]
	lea	rcx, QWORD PTR [rcx+rdx*8]
	mov	r9, rax
	mov	r8, QWORD PTR _Myptr$[rsp]
	mov	rdx, rcx
	mov	rax, QWORD PTR this$[rsp]
	mov	rcx, QWORD PTR [rax+8]
	call	??$_Uninitialized_copy@PEAPEAPEAXPEAPEAPEAXV?$allocator@PEAPEAX@std@@@std@@YAPEAPEAPEAXPEAPEAPEAX00AEAV?$allocator@PEAPEAX@0@@Z ; std::_Uninitialized_copy<void * __ptr64 * __ptr64 * __ptr64,void * __ptr64 * __ptr64 * __ptr64,std::allocator<void * __ptr64 * __ptr64> >
; Line 1622
	mov	rax, QWORD PTR this$[rsp]
	add	rax, 41					; 00000029H
	mov	rcx, QWORD PTR this$[rsp]
	mov	rcx, QWORD PTR [rcx+8]
	mov	rdx, QWORD PTR _Myboff$[rsp]
	lea	rcx, QWORD PTR [rcx+rdx*8]
	mov	rdx, QWORD PTR this$[rsp]
	mov	rdx, QWORD PTR [rdx+8]
	mov	r8, QWORD PTR _Count$[rsp]
	lea	rdx, QWORD PTR [rdx+r8*8]
	mov	QWORD PTR tv261[rsp], rdx
	mov	r9, rax
	mov	r8, QWORD PTR _Newmap$[rsp]
	mov	rdx, rcx
	mov	rax, QWORD PTR tv261[rsp]
	mov	rcx, rax
	call	??$_Uninitialized_copy@PEAPEAPEAXPEAPEAPEAXV?$allocator@PEAPEAX@std@@@std@@YAPEAPEAPEAXPEAPEAPEAX00AEAV?$allocator@PEAPEAX@0@@Z ; std::_Uninitialized_copy<void * __ptr64 * __ptr64 * __ptr64,void * __ptr64 * __ptr64 * __ptr64,std::allocator<void * __ptr64 * __ptr64> >
	mov	QWORD PTR _Myptr$[rsp], rax
; Line 1624
	mov	rax, QWORD PTR this$[rsp]
	add	rax, 41					; 00000029H
	mov	r9, rax
	xor	r8d, r8d
	mov	rdx, QWORD PTR _Count$[rsp]
	mov	rcx, QWORD PTR _Myptr$[rsp]
	call	??$_Uninitialized_default_fill_n@PEAPEAPEAX_KPEAPEAXV?$allocator@PEAPEAX@std@@@std@@YAXPEAPEAPEAX_KPEBQEAPEAXAEAV?$allocator@PEAPEAX@0@@Z ; std::_Uninitialized_default_fill_n<void * __ptr64 * __ptr64 * __ptr64,unsigned __int64,void * __ptr64 * __ptr64,std::allocator<void * __ptr64 * __ptr64> >
$LN2@Growmap:
; Line 1628
	mov	rax, QWORD PTR this$[rsp]
	add	rax, 41					; 00000029H
	mov	rcx, QWORD PTR this$[rsp]
	mov	rcx, QWORD PTR [rcx+16]
	mov	rdx, QWORD PTR this$[rsp]
	mov	rdx, QWORD PTR [rdx+8]
	lea	rcx, QWORD PTR [rdx+rcx*8]
	mov	rdx, QWORD PTR this$[rsp]
	mov	rdx, QWORD PTR [rdx+8]
	mov	r8, QWORD PTR _Myboff$[rsp]
	lea	rdx, QWORD PTR [rdx+r8*8]
	mov	QWORD PTR tv297[rsp], rdx
	mov	r8, rax
	mov	rdx, rcx
	mov	rax, QWORD PTR tv297[rsp]
	mov	rcx, rax
	call	??$_Destroy_range@V?$allocator@PEAPEAX@std@@@std@@YAXPEAPEAPEAX0AEAV?$allocator@PEAPEAX@0@@Z ; std::_Destroy_range<std::allocator<void * __ptr64 * __ptr64> >
; Line 1629
	mov	rax, QWORD PTR this$[rsp]
	cmp	QWORD PTR [rax+8], 0
	je	SHORT $LN1@Growmap
; Line 1631
	mov	rax, QWORD PTR this$[rsp]
	add	rax, 41					; 00000029H
	mov	rcx, QWORD PTR this$[rsp]
	mov	r8, QWORD PTR [rcx+16]
	mov	rcx, QWORD PTR this$[rsp]
	mov	rdx, QWORD PTR [rcx+8]
	mov	rcx, rax
	call	?deallocate@?$allocator@PEAPEAX@std@@QEAAXPEAPEAPEAX_K@Z ; std::allocator<void * __ptr64 * __ptr64>::deallocate
$LN1@Growmap:
; Line 1633
	mov	rax, QWORD PTR this$[rsp]
	mov	rcx, QWORD PTR _Newmap$[rsp]
	mov	QWORD PTR [rax+8], rcx
; Line 1634
	mov	rax, QWORD PTR this$[rsp]
	mov	rax, QWORD PTR [rax+16]
	add	rax, QWORD PTR _Count$[rsp]
	mov	rcx, QWORD PTR this$[rsp]
	mov	QWORD PTR [rcx+16], rax
$LN8@Growmap:
; Line 1635
	add	rsp, 96					; 00000060H
	pop	rdi
	ret	0
?_Growmap@?$deque@PEAXV?$allocator@PEAX@std@@@std@@IEAAX_K@Z ENDP ; std::deque<void * __ptr64,std::allocator<void * __ptr64> >::_Growmap
_TEXT	ENDS
PUBLIC	??$_Dest_val@V?$allocator@PEAPEAX@std@@PEAPEAX@std@@YAXAEAV?$allocator@PEAPEAX@0@PEAPEAPEAX@Z ; std::_Dest_val<std::allocator<void * __ptr64 * __ptr64>,void * __ptr64 * __ptr64>
PUBLIC	?deallocate@?$allocator@PEAX@std@@QEAAXPEAPEAX_K@Z ; std::allocator<void * __ptr64>::deallocate
PUBLIC	?pop_back@?$deque@PEAXV?$allocator@PEAX@std@@@std@@QEAAXXZ ; std::deque<void * __ptr64,std::allocator<void * __ptr64> >::pop_back
;	COMDAT pdata
pdata	SEGMENT
$pdata$?_Tidy@?$deque@PEAXV?$allocator@PEAX@std@@@std@@IEAAXXZ DD imagerel $LN9
	DD	imagerel $LN9+269
	DD	imagerel $unwind$?_Tidy@?$deque@PEAXV?$allocator@PEAX@std@@@std@@IEAAXXZ
pdata	ENDS
;	COMDAT xdata
xdata	SEGMENT
$unwind$?_Tidy@?$deque@PEAXV?$allocator@PEAX@std@@@std@@IEAAXXZ DD 021e01H
	DD	07006520aH
; Function compile flags: /Odtp /RTCsu
xdata	ENDS
;	COMDAT ?_Tidy@?$deque@PEAXV?$allocator@PEAX@std@@@std@@IEAAXXZ
_TEXT	SEGMENT
_Count$80006 = 32
this$ = 64
?_Tidy@?$deque@PEAXV?$allocator@PEAX@std@@@std@@IEAAXXZ PROC ; std::deque<void * __ptr64,std::allocator<void * __ptr64> >::_Tidy, COMDAT
; Line 1638
$LN9:
	mov	QWORD PTR [rsp+8], rcx
	push	rdi
	sub	rsp, 48					; 00000030H
	mov	rdi, rsp
	mov	ecx, 12
	mov	eax, -858993460				; ccccccccH
	rep stosd
	mov	rcx, QWORD PTR [rsp+64]
$LN6@Tidy:
; Line 1639
	mov	rcx, QWORD PTR this$[rsp]
	call	?empty@?$deque@PEAXV?$allocator@PEAX@std@@@std@@QEBA_NXZ ; std::deque<void * __ptr64,std::allocator<void * __ptr64> >::empty
	movzx	eax, al
	test	eax, eax
	jne	SHORT $LN5@Tidy
; Line 1640
	mov	rcx, QWORD PTR this$[rsp]
	call	?pop_back@?$deque@PEAXV?$allocator@PEAX@std@@@std@@QEAAXXZ ; std::deque<void * __ptr64,std::allocator<void * __ptr64> >::pop_back
	jmp	SHORT $LN6@Tidy
$LN5@Tidy:
; Line 1641
	mov	rax, QWORD PTR this$[rsp]
	mov	rax, QWORD PTR [rax+16]
	mov	QWORD PTR _Count$80006[rsp], rax
$LN4@Tidy:
	cmp	QWORD PTR _Count$80006[rsp], 0
	jbe	SHORT $LN3@Tidy
; Line 1643
	mov	rax, QWORD PTR _Count$80006[rsp]
	dec	rax
	mov	QWORD PTR _Count$80006[rsp], rax
	mov	rax, QWORD PTR this$[rsp]
	mov	rax, QWORD PTR [rax+8]
	mov	rcx, QWORD PTR _Count$80006[rsp]
	cmp	QWORD PTR [rax+rcx*8], 0
	je	SHORT $LN2@Tidy
; Line 1645
	mov	rax, QWORD PTR this$[rsp]
	mov	rax, QWORD PTR [rax+8]
	mov	rcx, QWORD PTR this$[rsp]
	add	rcx, 40					; 00000028H
	mov	r8d, 2
	mov	rdx, QWORD PTR _Count$80006[rsp]
	mov	rdx, QWORD PTR [rax+rdx*8]
	call	?deallocate@?$allocator@PEAX@std@@QEAAXPEAPEAX_K@Z ; std::allocator<void * __ptr64>::deallocate
; Line 1646
	mov	rax, QWORD PTR this$[rsp]
	mov	rax, QWORD PTR [rax+8]
	mov	rcx, QWORD PTR _Count$80006[rsp]
	lea	rax, QWORD PTR [rax+rcx*8]
	mov	rcx, QWORD PTR this$[rsp]
	add	rcx, 41					; 00000029H
	mov	rdx, rax
	call	??$_Dest_val@V?$allocator@PEAPEAX@std@@PEAPEAX@std@@YAXAEAV?$allocator@PEAPEAX@0@PEAPEAPEAX@Z ; std::_Dest_val<std::allocator<void * __ptr64 * __ptr64>,void * __ptr64 * __ptr64>
$LN2@Tidy:
; Line 1648
	jmp	SHORT $LN4@Tidy
$LN3@Tidy:
; Line 1650
	mov	rax, QWORD PTR this$[rsp]
	cmp	QWORD PTR [rax+8], 0
	je	SHORT $LN1@Tidy
; Line 1652
	mov	rax, QWORD PTR this$[rsp]
	add	rax, 41					; 00000029H
	mov	rcx, QWORD PTR this$[rsp]
	mov	r8, QWORD PTR [rcx+16]
	mov	rcx, QWORD PTR this$[rsp]
	mov	rdx, QWORD PTR [rcx+8]
	mov	rcx, rax
	call	?deallocate@?$allocator@PEAPEAX@std@@QEAAXPEAPEAPEAX_K@Z ; std::allocator<void * __ptr64 * __ptr64>::deallocate
$LN1@Tidy:
; Line 1653
	mov	rax, QWORD PTR this$[rsp]
	mov	QWORD PTR [rax+16], 0
; Line 1654
	mov	rax, QWORD PTR this$[rsp]
	mov	QWORD PTR [rax+8], 0
; Line 1655
	add	rsp, 48					; 00000030H
	pop	rdi
	ret	0
?_Tidy@?$deque@PEAXV?$allocator@PEAX@std@@@std@@IEAAXXZ ENDP ; std::deque<void * __ptr64,std::allocator<void * __ptr64> >::_Tidy
_TEXT	ENDS
PUBLIC	?_Clrcont@_Iterator_base12@std@@QEAAXXZ		; std::_Iterator_base12::_Clrcont
PUBLIC	?_Getpnext@_Iterator_base12@std@@QEAAPEAPEAU12@XZ ; std::_Iterator_base12::_Getpnext
PUBLIC	?_Getpfirst@_Container_base12@std@@QEBAPEAPEAU_Iterator_base12@2@XZ ; std::_Container_base12::_Getpfirst
;	COMDAT pdata
pdata	SEGMENT
$pdata$?_Orphan_off@?$deque@PEAXV?$allocator@PEAX@std@@@std@@IEBAX_K@Z DD imagerel $LN13
	DD	imagerel $LN13+309
	DD	imagerel $unwind$?_Orphan_off@?$deque@PEAXV?$allocator@PEAX@std@@@std@@IEBAX_K@Z
pdata	ENDS
;	COMDAT pdata
pdata	SEGMENT
$pdata$?dtor$0@?0??_Orphan_off@?$deque@PEAXV?$allocator@PEAX@std@@@std@@IEBAX_K@Z@4HA DD imagerel ?dtor$0@?0??_Orphan_off@?$deque@PEAXV?$allocator@PEAX@std@@@std@@IEBAX_K@Z@4HA
	DD	imagerel ?dtor$0@?0??_Orphan_off@?$deque@PEAXV?$allocator@PEAX@std@@@std@@IEBAX_K@Z@4HA+35
	DD	imagerel $unwind$?dtor$0@?0??_Orphan_off@?$deque@PEAXV?$allocator@PEAX@std@@@std@@IEBAX_K@Z@4HA
pdata	ENDS
;	COMDAT xdata
xdata	SEGMENT
$ip2state$?_Orphan_off@?$deque@PEAXV?$allocator@PEAX@std@@@std@@IEBAX_K@Z DD imagerel ?_Orphan_off@?$deque@PEAXV?$allocator@PEAX@std@@@std@@IEBAX_K@Z
	DD	0ffffffffH
	DD	imagerel ?_Orphan_off@?$deque@PEAXV?$allocator@PEAX@std@@@std@@IEBAX_K@Z+147
	DD	00H
	DD	imagerel ?_Orphan_off@?$deque@PEAXV?$allocator@PEAX@std@@@std@@IEBAX_K@Z+278
	DD	0ffffffffH
xdata	ENDS
;	COMDAT xdata
xdata	SEGMENT
$unwind$?dtor$0@?0??_Orphan_off@?$deque@PEAXV?$allocator@PEAX@std@@@std@@IEBAX_K@Z@4HA DD 031001H
	DD	0700c4210H
	DD	0500bH
xdata	ENDS
;	COMDAT xdata
xdata	SEGMENT
$unwind$?_Orphan_off@?$deque@PEAXV?$allocator@PEAX@std@@@std@@IEBAX_K@Z DD 022c11H
	DD	0700bb20fH
	DD	imagerel __CxxFrameHandler3
	DD	imagerel $cppxdata$?_Orphan_off@?$deque@PEAXV?$allocator@PEAX@std@@@std@@IEBAX_K@Z
xdata	ENDS
;	COMDAT xdata
xdata	SEGMENT
$stateUnwindMap$?_Orphan_off@?$deque@PEAXV?$allocator@PEAX@std@@@std@@IEBAX_K@Z DD 0ffffffffH
	DD	imagerel ?dtor$0@?0??_Orphan_off@?$deque@PEAXV?$allocator@PEAX@std@@@std@@IEBAX_K@Z@4HA
xdata	ENDS
;	COMDAT CONST
CONST	SEGMENT
?_Orphan_off@?$deque@PEAXV?$allocator@PEAX@std@@@std@@IEBAX_K@Z$rtcName$0 DB 05fH ; std::deque<void * __ptr64,std::allocator<void * __ptr64> >::_Orphan_off
	DB	04cH
	DB	06fH
	DB	063H
	DB	06bH
	DB	00H
	ORG $+10
?_Orphan_off@?$deque@PEAXV?$allocator@PEAX@std@@@std@@IEBAX_K@Z$rtcVarDesc DD 034H ; std::deque<void * __ptr64,std::allocator<void * __ptr64> >::_Orphan_off
	DD	04H
	DQ	FLAT:?_Orphan_off@?$deque@PEAXV?$allocator@PEAX@std@@@std@@IEBAX_K@Z$rtcName$0
	ORG $+48
?_Orphan_off@?$deque@PEAXV?$allocator@PEAX@std@@@std@@IEBAX_K@Z$rtcFrameData DD 01H ; std::deque<void * __ptr64,std::allocator<void * __ptr64> >::_Orphan_off
	DD	00H
	DQ	FLAT:?_Orphan_off@?$deque@PEAXV?$allocator@PEAX@std@@@std@@IEBAX_K@Z$rtcVarDesc
$cppxdata$?_Orphan_off@?$deque@PEAXV?$allocator@PEAX@std@@@std@@IEBAX_K@Z DD 019930522H
	DD	01H
	DD	imagerel $stateUnwindMap$?_Orphan_off@?$deque@PEAXV?$allocator@PEAX@std@@@std@@IEBAX_K@Z
	DD	00H
	DD	00H
	DD	03H
	DD	imagerel $ip2state$?_Orphan_off@?$deque@PEAXV?$allocator@PEAX@std@@@std@@IEBAX_K@Z
	DD	050H
	DD	00H
	DD	01H
; Function compile flags: /Odtp /RTCsu
CONST	ENDS
;	COMDAT ?_Orphan_off@?$deque@PEAXV?$allocator@PEAX@std@@@std@@IEBAX_K@Z
_TEXT	SEGMENT
_Offhigh$ = 32
_Lock$ = 52
_Pnext$ = 72
$T82304 = 80
tv77 = 88
this$ = 112
_Offlo$ = 120
?_Orphan_off@?$deque@PEAXV?$allocator@PEAX@std@@@std@@IEBAX_K@Z PROC ; std::deque<void * __ptr64,std::allocator<void * __ptr64> >::_Orphan_off, COMDAT
; Line 1659
$LN13:
	mov	QWORD PTR [rsp+16], rdx
	mov	QWORD PTR [rsp+8], rcx
	push	rdi
	sub	rsp, 96					; 00000060H
	mov	rdi, rsp
	mov	ecx, 24
	mov	eax, -858993460				; ccccccccH
	rep stosd
	mov	rcx, QWORD PTR [rsp+112]
	mov	QWORD PTR $T82304[rsp], -2
; Line 1661
	mov	rax, QWORD PTR this$[rsp]
	mov	rax, QWORD PTR [rax+24]
	mov	rcx, QWORD PTR this$[rsp]
	add	rax, QWORD PTR [rcx+32]
	mov	rcx, QWORD PTR _Offlo$[rsp]
	inc	rcx
	cmp	rax, rcx
	ja	SHORT $LN10@Orphan_off
	mov	QWORD PTR tv77[rsp], -1
	jmp	SHORT $LN11@Orphan_off
$LN10@Orphan_off:
	mov	rax, QWORD PTR _Offlo$[rsp]
	mov	QWORD PTR tv77[rsp], rax
$LN11@Orphan_off:
	mov	rax, QWORD PTR tv77[rsp]
	mov	QWORD PTR _Offhigh$[rsp], rax
; Line 1662
	mov	rax, QWORD PTR this$[rsp]
	mov	rax, QWORD PTR [rax+24]
	cmp	QWORD PTR _Offlo$[rsp], rax
	jne	SHORT $LN7@Orphan_off
; Line 1663
	mov	QWORD PTR _Offlo$[rsp], 0
$LN7@Orphan_off:
; Line 1665
	mov	edx, 3
	lea	rcx, QWORD PTR _Lock$[rsp]
	call	??0_Lockit@std@@QEAA@H@Z		; std::_Lockit::_Lockit
	npad	1
; Line 1666
	mov	rcx, QWORD PTR this$[rsp]
	call	?_Getpfirst@_Container_base12@std@@QEBAPEAPEAU_Iterator_base12@2@XZ ; std::_Container_base12::_Getpfirst
	mov	QWORD PTR _Pnext$[rsp], rax
; Line 1667
	cmp	QWORD PTR _Pnext$[rsp], 0
	je	SHORT $LN6@Orphan_off
$LN5@Orphan_off:
; Line 1668
	mov	rax, QWORD PTR _Pnext$[rsp]
	cmp	QWORD PTR [rax], 0
	je	SHORT $LN6@Orphan_off
; Line 1670
	mov	rax, QWORD PTR _Pnext$[rsp]
	mov	rax, QWORD PTR [rax]
	mov	rcx, QWORD PTR _Offlo$[rsp]
	cmp	QWORD PTR [rax+16], rcx
	jb	SHORT $LN2@Orphan_off
	mov	rax, QWORD PTR _Pnext$[rsp]
	mov	rax, QWORD PTR [rax]
	mov	rax, QWORD PTR [rax+16]
	cmp	QWORD PTR _Offhigh$[rsp], rax
	jae	SHORT $LN3@Orphan_off
$LN2@Orphan_off:
; Line 1671
	mov	rax, QWORD PTR _Pnext$[rsp]
	mov	rcx, QWORD PTR [rax]
	call	?_Getpnext@_Iterator_base12@std@@QEAAPEAPEAU12@XZ ; std::_Iterator_base12::_Getpnext
	mov	QWORD PTR _Pnext$[rsp], rax
; Line 1672
	jmp	SHORT $LN1@Orphan_off
$LN3@Orphan_off:
; Line 1674
	mov	rax, QWORD PTR _Pnext$[rsp]
	mov	rcx, QWORD PTR [rax]
	call	?_Clrcont@_Iterator_base12@std@@QEAAXXZ	; std::_Iterator_base12::_Clrcont
; Line 1675
	mov	rax, QWORD PTR _Pnext$[rsp]
	mov	rcx, QWORD PTR [rax]
	call	?_Getpnext@_Iterator_base12@std@@QEAAPEAPEAU12@XZ ; std::_Iterator_base12::_Getpnext
	mov	rcx, QWORD PTR _Pnext$[rsp]
	mov	rax, QWORD PTR [rax]
	mov	QWORD PTR [rcx], rax
$LN1@Orphan_off:
; Line 1676
	jmp	SHORT $LN5@Orphan_off
$LN6@Orphan_off:
; Line 1677
	lea	rcx, QWORD PTR _Lock$[rsp]
	call	??1_Lockit@std@@QEAA@XZ			; std::_Lockit::~_Lockit
	mov	rcx, rsp
	lea	rdx, OFFSET FLAT:?_Orphan_off@?$deque@PEAXV?$allocator@PEAX@std@@@std@@IEBAX_K@Z$rtcFrameData
	call	_RTC_CheckStackVars
	add	rsp, 96					; 00000060H
	pop	rdi
	ret	0
?_Orphan_off@?$deque@PEAXV?$allocator@PEAX@std@@@std@@IEBAX_K@Z ENDP ; std::deque<void * __ptr64,std::allocator<void * __ptr64> >::_Orphan_off
; Function compile flags: /Odtp /RTCsu
_TEXT	ENDS
;	COMDAT text$x
text$x	SEGMENT
_Offhigh$ = 32
_Lock$ = 52
_Pnext$ = 72
$T82304 = 80
tv77 = 88
this$ = 112
_Offlo$ = 120
?dtor$0@?0??_Orphan_off@?$deque@PEAXV?$allocator@PEAX@std@@@std@@IEBAX_K@Z@4HA PROC ; `std::deque<void * __ptr64,std::allocator<void * __ptr64> >::_Orphan_off'::`1'::dtor$0
	mov	QWORD PTR [rsp+8], rcx
	mov	QWORD PTR [rsp+16], rdx
	push	rbp
	push	rdi
	sub	rsp, 40					; 00000028H
	mov	rbp, rdx
	lea	rcx, QWORD PTR _Lock$[rbp]
	call	??1_Lockit@std@@QEAA@XZ			; std::_Lockit::~_Lockit
	add	rsp, 40					; 00000028H
	pop	rdi
	pop	rbp
	ret	0
?dtor$0@?0??_Orphan_off@?$deque@PEAXV?$allocator@PEAX@std@@@std@@IEBAX_K@Z@4HA ENDP ; `std::deque<void * __ptr64,std::allocator<void * __ptr64> >::_Orphan_off'::`1'::dtor$0
text$x	ENDS
;	COMDAT pdata
; File c:\program files (x86)\microsoft visual studio 10.0\vc\include\xutility
pdata	SEGMENT
$pdata$?_Getpfirst@_Container_base12@std@@QEBAPEAPEAU_Iterator_base12@2@XZ DD imagerel $LN5
	DD	imagerel $LN5+77
	DD	imagerel $unwind$?_Getpfirst@_Container_base12@std@@QEBAPEAPEAU_Iterator_base12@2@XZ
pdata	ENDS
;	COMDAT xdata
xdata	SEGMENT
$unwind$?_Getpfirst@_Container_base12@std@@QEBAPEAPEAU_Iterator_base12@2@XZ DD 021e01H
	DD	07006120aH
; Function compile flags: /Odtp /RTCsu
xdata	ENDS
;	COMDAT ?_Getpfirst@_Container_base12@std@@QEBAPEAPEAU_Iterator_base12@2@XZ
_TEXT	SEGMENT
tv66 = 0
this$ = 32
?_Getpfirst@_Container_base12@std@@QEBAPEAPEAU_Iterator_base12@2@XZ PROC ; std::_Container_base12::_Getpfirst, COMDAT
; Line 96
$LN5:
	mov	QWORD PTR [rsp+8], rcx
	push	rdi
	sub	rsp, 16
	mov	rdi, rsp
	mov	ecx, 4
	mov	eax, -858993460				; ccccccccH
	rep stosd
	mov	rcx, QWORD PTR [rsp+32]
; Line 97
	mov	rax, QWORD PTR this$[rsp]
	cmp	QWORD PTR [rax], 0
	jne	SHORT $LN3@Getpfirst
	mov	QWORD PTR tv66[rsp], 0
	jmp	SHORT $LN4@Getpfirst
$LN3@Getpfirst:
	mov	rax, QWORD PTR this$[rsp]
	mov	rax, QWORD PTR [rax]
	add	rax, 8
	mov	QWORD PTR tv66[rsp], rax
$LN4@Getpfirst:
	mov	rax, QWORD PTR tv66[rsp]
; Line 98
	add	rsp, 16
	pop	rdi
	ret	0
?_Getpfirst@_Container_base12@std@@QEBAPEAPEAU_Iterator_base12@2@XZ ENDP ; std::_Container_base12::_Getpfirst
_TEXT	ENDS
;	COMDAT pdata
pdata	SEGMENT
$pdata$?_Clrcont@_Iterator_base12@std@@QEAAXXZ DD imagerel $LN3
	DD	imagerel $LN3+20
	DD	imagerel $unwind$?_Clrcont@_Iterator_base12@std@@QEAAXXZ
pdata	ENDS
;	COMDAT xdata
xdata	SEGMENT
$unwind$?_Clrcont@_Iterator_base12@std@@QEAAXXZ DD 010601H
	DD	07006H
; Function compile flags: /Odtp /RTCsu
xdata	ENDS
;	COMDAT ?_Clrcont@_Iterator_base12@std@@QEAAXXZ
_TEXT	SEGMENT
this$ = 16
?_Clrcont@_Iterator_base12@std@@QEAAXXZ PROC		; std::_Iterator_base12::_Clrcont, COMDAT
; Line 169
$LN3:
	mov	QWORD PTR [rsp+8], rcx
	push	rdi
; Line 170
	mov	rax, QWORD PTR this$[rsp]
	mov	QWORD PTR [rax], 0
; Line 171
	pop	rdi
	ret	0
?_Clrcont@_Iterator_base12@std@@QEAAXXZ ENDP		; std::_Iterator_base12::_Clrcont
_TEXT	ENDS
;	COMDAT pdata
pdata	SEGMENT
$pdata$?_Getpnext@_Iterator_base12@std@@QEAAPEAPEAU12@XZ DD imagerel $LN3
	DD	imagerel $LN3+17
	DD	imagerel $unwind$?_Getpnext@_Iterator_base12@std@@QEAAPEAPEAU12@XZ
pdata	ENDS
;	COMDAT xdata
xdata	SEGMENT
$unwind$?_Getpnext@_Iterator_base12@std@@QEAAPEAPEAU12@XZ DD 010601H
	DD	07006H
; Function compile flags: /Odtp /RTCsu
xdata	ENDS
;	COMDAT ?_Getpnext@_Iterator_base12@std@@QEAAPEAPEAU12@XZ
_TEXT	SEGMENT
this$ = 16
?_Getpnext@_Iterator_base12@std@@QEAAPEAPEAU12@XZ PROC	; std::_Iterator_base12::_Getpnext, COMDAT
; Line 179
$LN3:
	mov	QWORD PTR [rsp+8], rcx
	push	rdi
; Line 180
	mov	rax, QWORD PTR this$[rsp]
	add	rax, 8
; Line 181
	pop	rdi
	ret	0
?_Getpnext@_Iterator_base12@std@@QEAAPEAPEAU12@XZ ENDP	; std::_Iterator_base12::_Getpnext
_TEXT	ENDS
PUBLIC	??1_Container_base12@std@@QEAA@XZ		; std::_Container_base12::~_Container_base12
PUBLIC	??$_Cons_val@V?$allocator@U_Container_proxy@std@@@std@@U_Container_proxy@2@U32@@std@@YAXAEAV?$allocator@U_Container_proxy@std@@@0@PEAU_Container_proxy@0@$$QEAU20@@Z ; std::_Cons_val<std::allocator<std::_Container_proxy>,std::_Container_proxy,std::_Container_proxy>
PUBLIC	??0_Container_proxy@std@@QEAA@XZ		; std::_Container_proxy::_Container_proxy
PUBLIC	?allocate@?$allocator@U_Container_proxy@std@@@std@@QEAAPEAU_Container_proxy@2@_K@Z ; std::allocator<std::_Container_proxy>::allocate
PUBLIC	??$?0PEAX@?$allocator@U_Container_proxy@std@@@std@@QEAA@AEBV?$allocator@PEAX@1@@Z ; std::allocator<std::_Container_proxy>::allocator<std::_Container_proxy><void * __ptr64>
PUBLIC	??$?0PEAX@?$allocator@PEAPEAX@std@@QEAA@AEBV?$allocator@PEAX@1@@Z ; std::allocator<void * __ptr64 * __ptr64>::allocator<void * __ptr64 * __ptr64><void * __ptr64>
PUBLIC	??0?$allocator@PEAX@std@@QEAA@AEBV01@@Z		; std::allocator<void * __ptr64>::allocator<void * __ptr64>
PUBLIC	??0_Container_base12@std@@QEAA@XZ		; std::_Container_base12::_Container_base12
;	COMDAT pdata
; File c:\program files (x86)\microsoft visual studio 10.0\vc\include\deque
pdata	SEGMENT
$pdata$??0?$_Deque_val@PEAXV?$allocator@PEAX@std@@@std@@QEAA@V?$allocator@PEAX@1@@Z DD imagerel $LN4
	DD	imagerel $LN4+275
	DD	imagerel $unwind$??0?$_Deque_val@PEAXV?$allocator@PEAX@std@@@std@@QEAA@V?$allocator@PEAX@1@@Z
pdata	ENDS
;	COMDAT pdata
pdata	SEGMENT
$pdata$?dtor$0@?0???0?$_Deque_val@PEAXV?$allocator@PEAX@std@@@std@@QEAA@V?$allocator@PEAX@1@@Z@4HA DD imagerel ?dtor$0@?0???0?$_Deque_val@PEAXV?$allocator@PEAX@std@@@std@@QEAA@V?$allocator@PEAX@1@@Z@4HA
	DD	imagerel ?dtor$0@?0???0?$_Deque_val@PEAXV?$allocator@PEAX@std@@@std@@QEAA@V?$allocator@PEAX@1@@Z@4HA+35
	DD	imagerel $unwind$?dtor$0@?0???0?$_Deque_val@PEAXV?$allocator@PEAX@std@@@std@@QEAA@V?$allocator@PEAX@1@@Z@4HA
pdata	ENDS
;	COMDAT xdata
xdata	SEGMENT
$ip2state$??0?$_Deque_val@PEAXV?$allocator@PEAX@std@@@std@@QEAA@V?$allocator@PEAX@1@@Z DD imagerel ??0?$_Deque_val@PEAXV?$allocator@PEAX@std@@@std@@QEAA@V?$allocator@PEAX@1@@Z
	DD	0ffffffffH
	DD	imagerel ??0?$_Deque_val@PEAXV?$allocator@PEAX@std@@@std@@QEAA@V?$allocator@PEAX@1@@Z+55
	DD	00H
	DD	imagerel ??0?$_Deque_val@PEAXV?$allocator@PEAX@std@@@std@@QEAA@V?$allocator@PEAX@1@@Z+243
	DD	0ffffffffH
xdata	ENDS
;	COMDAT xdata
xdata	SEGMENT
$unwind$?dtor$0@?0???0?$_Deque_val@PEAXV?$allocator@PEAX@std@@@std@@QEAA@V?$allocator@PEAX@1@@Z@4HA DD 031001H
	DD	0700c4210H
	DD	0500bH
xdata	ENDS
;	COMDAT xdata
xdata	SEGMENT
$unwind$??0?$_Deque_val@PEAXV?$allocator@PEAX@std@@@std@@QEAA@V?$allocator@PEAX@1@@Z DD 022c11H
	DD	0700b920fH
	DD	imagerel __CxxFrameHandler3
	DD	imagerel $cppxdata$??0?$_Deque_val@PEAXV?$allocator@PEAX@std@@@std@@QEAA@V?$allocator@PEAX@1@@Z
xdata	ENDS
;	COMDAT xdata
xdata	SEGMENT
$stateUnwindMap$??0?$_Deque_val@PEAXV?$allocator@PEAX@std@@@std@@QEAA@V?$allocator@PEAX@1@@Z DD 0ffffffffH
	DD	imagerel ?dtor$0@?0???0?$_Deque_val@PEAXV?$allocator@PEAX@std@@@std@@QEAA@V?$allocator@PEAX@1@@Z@4HA
xdata	ENDS
;	COMDAT CONST
CONST	SEGMENT
??0?$_Deque_val@PEAXV?$allocator@PEAX@std@@@std@@QEAA@V?$allocator@PEAX@1@@Z$rtcName$0 DB 05fH ; std::_Deque_val<void * __ptr64,std::allocator<void * __ptr64> >::_Deque_val<void * __ptr64,std::allocator<void * __ptr64> >
	DB	041H
	DB	06cH
	DB	070H
	DB	072H
	DB	06fH
	DB	078H
	DB	079H
	DB	00H
	ORG $+7
??0?$_Deque_val@PEAXV?$allocator@PEAX@std@@@std@@QEAA@V?$allocator@PEAX@1@@Z$rtcVarDesc DD 024H ; std::_Deque_val<void * __ptr64,std::allocator<void * __ptr64> >::_Deque_val<void * __ptr64,std::allocator<void * __ptr64> >
	DD	01H
	DQ	FLAT:??0?$_Deque_val@PEAXV?$allocator@PEAX@std@@@std@@QEAA@V?$allocator@PEAX@1@@Z$rtcName$0
	ORG $+48
??0?$_Deque_val@PEAXV?$allocator@PEAX@std@@@std@@QEAA@V?$allocator@PEAX@1@@Z$rtcFrameData DD 01H ; std::_Deque_val<void * __ptr64,std::allocator<void * __ptr64> >::_Deque_val<void * __ptr64,std::allocator<void * __ptr64> >
	DD	00H
	DQ	FLAT:??0?$_Deque_val@PEAXV?$allocator@PEAX@std@@@std@@QEAA@V?$allocator@PEAX@1@@Z$rtcVarDesc
$cppxdata$??0?$_Deque_val@PEAXV?$allocator@PEAX@std@@@std@@QEAA@V?$allocator@PEAX@1@@Z DD 019930522H
	DD	01H
	DD	imagerel $stateUnwindMap$??0?$_Deque_val@PEAXV?$allocator@PEAX@std@@@std@@QEAA@V?$allocator@PEAX@1@@Z
	DD	00H
	DD	00H
	DD	03H
	DD	imagerel $ip2state$??0?$_Deque_val@PEAXV?$allocator@PEAX@std@@@std@@QEAA@V?$allocator@PEAX@1@@Z
	DD	048H
	DD	00H
	DD	01H
; Function compile flags: /Odtp /RTCsu
CONST	ENDS
;	COMDAT ??0?$_Deque_val@PEAXV?$allocator@PEAX@std@@@std@@QEAA@V?$allocator@PEAX@1@@Z
_TEXT	SEGMENT
_Alproxy$ = 36
$T82348 = 56
$T82354 = 72
this$ = 96
_Al$ = 104
??0?$_Deque_val@PEAXV?$allocator@PEAX@std@@@std@@QEAA@V?$allocator@PEAX@1@@Z PROC ; std::_Deque_val<void * __ptr64,std::allocator<void * __ptr64> >::_Deque_val<void * __ptr64,std::allocator<void * __ptr64> >, COMDAT
; Line 728
$LN4:
	mov	QWORD PTR [rsp+16], rdx
	mov	QWORD PTR [rsp+8], rcx
	push	rdi
	sub	rsp, 80					; 00000050H
	mov	rdi, rsp
	mov	ecx, 20
	mov	eax, -858993460				; ccccccccH
	rep stosd
	mov	rcx, QWORD PTR [rsp+96]
	mov	QWORD PTR $T82354[rsp], -2
	mov	rcx, QWORD PTR this$[rsp]
	call	??0_Container_base12@std@@QEAA@XZ	; std::_Container_base12::_Container_base12
	npad	1
	mov	rax, QWORD PTR this$[rsp]
	add	rax, 40					; 00000028H
	mov	rdx, QWORD PTR _Al$[rsp]
	mov	rcx, rax
	call	??0?$allocator@PEAX@std@@QEAA@AEBV01@@Z	; std::allocator<void * __ptr64>::allocator<void * __ptr64>
	mov	rax, QWORD PTR this$[rsp]
	add	rax, 41					; 00000029H
	mov	rdx, QWORD PTR _Al$[rsp]
	mov	rcx, rax
	call	??$?0PEAX@?$allocator@PEAPEAX@std@@QEAA@AEBV?$allocator@PEAX@1@@Z ; std::allocator<void * __ptr64 * __ptr64>::allocator<void * __ptr64 * __ptr64><void * __ptr64>
; Line 730
	mov	rax, QWORD PTR this$[rsp]
	add	rax, 40					; 00000028H
	mov	rdx, rax
	lea	rcx, QWORD PTR _Alproxy$[rsp]
	call	??$?0PEAX@?$allocator@U_Container_proxy@std@@@std@@QEAA@AEBV?$allocator@PEAX@1@@Z ; std::allocator<std::_Container_proxy>::allocator<std::_Container_proxy><void * __ptr64>
; Line 731
	mov	edx, 1
	lea	rcx, QWORD PTR _Alproxy$[rsp]
	call	?allocate@?$allocator@U_Container_proxy@std@@@std@@QEAAPEAU_Container_proxy@2@_K@Z ; std::allocator<std::_Container_proxy>::allocate
	mov	rcx, QWORD PTR this$[rsp]
	mov	QWORD PTR [rcx], rax
; Line 732
	lea	rcx, QWORD PTR $T82348[rsp]
	call	??0_Container_proxy@std@@QEAA@XZ	; std::_Container_proxy::_Container_proxy
	mov	r8, rax
	mov	rax, QWORD PTR this$[rsp]
	mov	rdx, QWORD PTR [rax]
	lea	rcx, QWORD PTR _Alproxy$[rsp]
	call	??$_Cons_val@V?$allocator@U_Container_proxy@std@@@std@@U_Container_proxy@2@U32@@std@@YAXAEAV?$allocator@U_Container_proxy@std@@@0@PEAU_Container_proxy@0@$$QEAU20@@Z ; std::_Cons_val<std::allocator<std::_Container_proxy>,std::_Container_proxy,std::_Container_proxy>
; Line 733
	mov	rax, QWORD PTR this$[rsp]
	mov	rax, QWORD PTR [rax]
	mov	rcx, QWORD PTR this$[rsp]
	mov	QWORD PTR [rax], rcx
; Line 735
	mov	rax, QWORD PTR this$[rsp]
	mov	QWORD PTR [rax+8], 0
; Line 736
	mov	rax, QWORD PTR this$[rsp]
	mov	QWORD PTR [rax+16], 0
; Line 737
	mov	rax, QWORD PTR this$[rsp]
	mov	QWORD PTR [rax+24], 0
; Line 738
	mov	rax, QWORD PTR this$[rsp]
	mov	QWORD PTR [rax+32], 0
; Line 739
	mov	rax, QWORD PTR this$[rsp]
	mov	rdi, rax
	mov	rcx, rsp
	lea	rdx, OFFSET FLAT:??0?$_Deque_val@PEAXV?$allocator@PEAX@std@@@std@@QEAA@V?$allocator@PEAX@1@@Z$rtcFrameData
	call	_RTC_CheckStackVars
	mov	rax, rdi
	add	rsp, 80					; 00000050H
	pop	rdi
	ret	0
??0?$_Deque_val@PEAXV?$allocator@PEAX@std@@@std@@QEAA@V?$allocator@PEAX@1@@Z ENDP ; std::_Deque_val<void * __ptr64,std::allocator<void * __ptr64> >::_Deque_val<void * __ptr64,std::allocator<void * __ptr64> >
; Function compile flags: /Odtp /RTCsu
_TEXT	ENDS
;	COMDAT text$x
text$x	SEGMENT
_Alproxy$ = 36
$T82348 = 56
$T82354 = 72
this$ = 96
_Al$ = 104
?dtor$0@?0???0?$_Deque_val@PEAXV?$allocator@PEAX@std@@@std@@QEAA@V?$allocator@PEAX@1@@Z@4HA PROC ; `std::_Deque_val<void * __ptr64,std::allocator<void * __ptr64> >::_Deque_val<void * __ptr64,std::allocator<void * __ptr64> >'::`1'::dtor$0
	mov	QWORD PTR [rsp+8], rcx
	mov	QWORD PTR [rsp+16], rdx
	push	rbp
	push	rdi
	sub	rsp, 40					; 00000028H
	mov	rbp, rdx
	mov	rcx, QWORD PTR this$[rbp]
	call	??1_Container_base12@std@@QEAA@XZ	; std::_Container_base12::~_Container_base12
	add	rsp, 40					; 00000028H
	pop	rdi
	pop	rbp
	ret	0
?dtor$0@?0???0?$_Deque_val@PEAXV?$allocator@PEAX@std@@@std@@QEAA@V?$allocator@PEAX@1@@Z@4HA ENDP ; `std::_Deque_val<void * __ptr64,std::allocator<void * __ptr64> >::_Deque_val<void * __ptr64,std::allocator<void * __ptr64> >'::`1'::dtor$0
text$x	ENDS
;	COMDAT pdata
; File c:\program files (x86)\microsoft visual studio 10.0\vc\include\xutility
pdata	SEGMENT
$pdata$??0_Container_proxy@std@@QEAA@XZ DD imagerel $LN3
	DD	imagerel $LN3+38
	DD	imagerel $unwind$??0_Container_proxy@std@@QEAA@XZ
pdata	ENDS
;	COMDAT xdata
xdata	SEGMENT
$unwind$??0_Container_proxy@std@@QEAA@XZ DD 010601H
	DD	07006H
; Function compile flags: /Odtp /RTCsu
xdata	ENDS
;	COMDAT ??0_Container_proxy@std@@QEAA@XZ
_TEXT	SEGMENT
this$ = 16
??0_Container_proxy@std@@QEAA@XZ PROC			; std::_Container_proxy::_Container_proxy, COMDAT
; Line 65
$LN3:
	mov	QWORD PTR [rsp+8], rcx
	push	rdi
	mov	rax, QWORD PTR this$[rsp]
	mov	QWORD PTR [rax], 0
	mov	rax, QWORD PTR this$[rsp]
	mov	QWORD PTR [rax+8], 0
; Line 66
	mov	rax, QWORD PTR this$[rsp]
	pop	rdi
	ret	0
??0_Container_proxy@std@@QEAA@XZ ENDP			; std::_Container_proxy::_Container_proxy
_TEXT	ENDS
;	COMDAT pdata
pdata	SEGMENT
$pdata$??0_Container_base12@std@@QEAA@XZ DD imagerel $LN3
	DD	imagerel $LN3+25
	DD	imagerel $unwind$??0_Container_base12@std@@QEAA@XZ
pdata	ENDS
;	COMDAT xdata
xdata	SEGMENT
$unwind$??0_Container_base12@std@@QEAA@XZ DD 010601H
	DD	07006H
; Function compile flags: /Odtp /RTCsu
xdata	ENDS
;	COMDAT ??0_Container_base12@std@@QEAA@XZ
_TEXT	SEGMENT
this$ = 16
??0_Container_base12@std@@QEAA@XZ PROC			; std::_Container_base12::_Container_base12, COMDAT
; Line 77
$LN3:
	mov	QWORD PTR [rsp+8], rcx
	push	rdi
	mov	rax, QWORD PTR this$[rsp]
	mov	QWORD PTR [rax], 0
; Line 78
	mov	rax, QWORD PTR this$[rsp]
	pop	rdi
	ret	0
??0_Container_base12@std@@QEAA@XZ ENDP			; std::_Container_base12::_Container_base12
_TEXT	ENDS
;	COMDAT pdata
pdata	SEGMENT
$pdata$??1_Container_base12@std@@QEAA@XZ DD imagerel $LN3
	DD	imagerel $LN3+46
	DD	imagerel $unwind$??1_Container_base12@std@@QEAA@XZ
pdata	ENDS
;	COMDAT xdata
xdata	SEGMENT
$unwind$??1_Container_base12@std@@QEAA@XZ DD 021e01H
	DD	07006320aH
; Function compile flags: /Odtp /RTCsu
xdata	ENDS
;	COMDAT ??1_Container_base12@std@@QEAA@XZ
_TEXT	SEGMENT
this$ = 48
??1_Container_base12@std@@QEAA@XZ PROC			; std::_Container_base12::~_Container_base12, COMDAT
; Line 91
$LN3:
	mov	QWORD PTR [rsp+8], rcx
	push	rdi
	sub	rsp, 32					; 00000020H
	mov	rdi, rsp
	mov	ecx, 8
	mov	eax, -858993460				; ccccccccH
	rep stosd
	mov	rcx, QWORD PTR [rsp+48]
; Line 92
	mov	rcx, QWORD PTR this$[rsp]
	call	?_Orphan_all@_Container_base12@std@@QEAAXXZ ; std::_Container_base12::_Orphan_all
; Line 93
	add	rsp, 32					; 00000020H
	pop	rdi
	ret	0
??1_Container_base12@std@@QEAA@XZ ENDP			; std::_Container_base12::~_Container_base12
_TEXT	ENDS
PUBLIC	?deallocate@?$allocator@U_Container_proxy@std@@@std@@QEAAXPEAU_Container_proxy@2@_K@Z ; std::allocator<std::_Container_proxy>::deallocate
PUBLIC	??$_Dest_val@V?$allocator@U_Container_proxy@std@@@std@@U_Container_proxy@2@@std@@YAXAEAV?$allocator@U_Container_proxy@std@@@0@PEAU_Container_proxy@0@@Z ; std::_Dest_val<std::allocator<std::_Container_proxy>,std::_Container_proxy>
;	COMDAT pdata
; File c:\program files (x86)\microsoft visual studio 10.0\vc\include\deque
pdata	SEGMENT
$pdata$??1?$_Deque_val@PEAXV?$allocator@PEAX@std@@@std@@QEAA@XZ DD imagerel $LN4
	DD	imagerel $LN4+156
	DD	imagerel $unwind$??1?$_Deque_val@PEAXV?$allocator@PEAX@std@@@std@@QEAA@XZ
pdata	ENDS
;	COMDAT pdata
pdata	SEGMENT
$pdata$?dtor$0@?0???1?$_Deque_val@PEAXV?$allocator@PEAX@std@@@std@@QEAA@XZ@4HA DD imagerel ?dtor$0@?0???1?$_Deque_val@PEAXV?$allocator@PEAX@std@@@std@@QEAA@XZ@4HA
	DD	imagerel ?dtor$0@?0???1?$_Deque_val@PEAXV?$allocator@PEAX@std@@@std@@QEAA@XZ@4HA+35
	DD	imagerel $unwind$?dtor$0@?0???1?$_Deque_val@PEAXV?$allocator@PEAX@std@@@std@@QEAA@XZ@4HA
pdata	ENDS
;	COMDAT xdata
xdata	SEGMENT
$ip2state$??1?$_Deque_val@PEAXV?$allocator@PEAX@std@@@std@@QEAA@XZ DD imagerel ??1?$_Deque_val@PEAXV?$allocator@PEAX@std@@@std@@QEAA@XZ
	DD	0ffffffffH
	DD	imagerel ??1?$_Deque_val@PEAXV?$allocator@PEAX@std@@@std@@QEAA@XZ+39
	DD	00H
	DD	imagerel ??1?$_Deque_val@PEAXV?$allocator@PEAX@std@@@std@@QEAA@XZ+125
	DD	0ffffffffH
xdata	ENDS
;	COMDAT xdata
xdata	SEGMENT
$unwind$?dtor$0@?0???1?$_Deque_val@PEAXV?$allocator@PEAX@std@@@std@@QEAA@XZ@4HA DD 031001H
	DD	0700c4210H
	DD	0500bH
xdata	ENDS
;	COMDAT xdata
xdata	SEGMENT
$unwind$??1?$_Deque_val@PEAXV?$allocator@PEAX@std@@@std@@QEAA@XZ DD 022711H
	DD	07006720aH
	DD	imagerel __CxxFrameHandler3
	DD	imagerel $cppxdata$??1?$_Deque_val@PEAXV?$allocator@PEAX@std@@@std@@QEAA@XZ
xdata	ENDS
;	COMDAT xdata
xdata	SEGMENT
$stateUnwindMap$??1?$_Deque_val@PEAXV?$allocator@PEAX@std@@@std@@QEAA@XZ DD 0ffffffffH
	DD	imagerel ?dtor$0@?0???1?$_Deque_val@PEAXV?$allocator@PEAX@std@@@std@@QEAA@XZ@4HA
xdata	ENDS
;	COMDAT CONST
CONST	SEGMENT
??1?$_Deque_val@PEAXV?$allocator@PEAX@std@@@std@@QEAA@XZ$rtcName$0 DB 05fH ; std::_Deque_val<void * __ptr64,std::allocator<void * __ptr64> >::~_Deque_val<void * __ptr64,std::allocator<void * __ptr64> >
	DB	041H
	DB	06cH
	DB	070H
	DB	072H
	DB	06fH
	DB	078H
	DB	079H
	DB	00H
	ORG $+7
??1?$_Deque_val@PEAXV?$allocator@PEAX@std@@@std@@QEAA@XZ$rtcVarDesc DD 024H ; std::_Deque_val<void * __ptr64,std::allocator<void * __ptr64> >::~_Deque_val<void * __ptr64,std::allocator<void * __ptr64> >
	DD	01H
	DQ	FLAT:??1?$_Deque_val@PEAXV?$allocator@PEAX@std@@@std@@QEAA@XZ$rtcName$0
	ORG $+48
??1?$_Deque_val@PEAXV?$allocator@PEAX@std@@@std@@QEAA@XZ$rtcFrameData DD 01H ; std::_Deque_val<void * __ptr64,std::allocator<void * __ptr64> >::~_Deque_val<void * __ptr64,std::allocator<void * __ptr64> >
	DD	00H
	DQ	FLAT:??1?$_Deque_val@PEAXV?$allocator@PEAX@std@@@std@@QEAA@XZ$rtcVarDesc
$cppxdata$??1?$_Deque_val@PEAXV?$allocator@PEAX@std@@@std@@QEAA@XZ DD 019930522H
	DD	01H
	DD	imagerel $stateUnwindMap$??1?$_Deque_val@PEAXV?$allocator@PEAX@std@@@std@@QEAA@XZ
	DD	00H
	DD	00H
	DD	03H
	DD	imagerel $ip2state$??1?$_Deque_val@PEAXV?$allocator@PEAX@std@@@std@@QEAA@XZ
	DD	038H
	DD	00H
	DD	01H
; Function compile flags: /Odtp /RTCsu
CONST	ENDS
;	COMDAT ??1?$_Deque_val@PEAXV?$allocator@PEAX@std@@@std@@QEAA@XZ
_TEXT	SEGMENT
_Alproxy$ = 36
$T82401 = 56
this$ = 80
??1?$_Deque_val@PEAXV?$allocator@PEAX@std@@@std@@QEAA@XZ PROC ; std::_Deque_val<void * __ptr64,std::allocator<void * __ptr64> >::~_Deque_val<void * __ptr64,std::allocator<void * __ptr64> >, COMDAT
; Line 742
$LN4:
	mov	QWORD PTR [rsp+8], rcx
	push	rdi
	sub	rsp, 64					; 00000040H
	mov	rdi, rsp
	mov	ecx, 16
	mov	eax, -858993460				; ccccccccH
	rep stosd
	mov	rcx, QWORD PTR [rsp+80]
	mov	QWORD PTR $T82401[rsp], -2
; Line 744
	mov	rax, QWORD PTR this$[rsp]
	add	rax, 40					; 00000028H
	mov	rdx, rax
	lea	rcx, QWORD PTR _Alproxy$[rsp]
	call	??$?0PEAX@?$allocator@U_Container_proxy@std@@@std@@QEAA@AEBV?$allocator@PEAX@1@@Z ; std::allocator<std::_Container_proxy>::allocator<std::_Container_proxy><void * __ptr64>
; Line 745
	mov	rcx, QWORD PTR this$[rsp]
	call	?_Orphan_all@_Container_base12@std@@QEAAXXZ ; std::_Container_base12::_Orphan_all
; Line 746
	mov	rax, QWORD PTR this$[rsp]
	mov	rdx, QWORD PTR [rax]
	lea	rcx, QWORD PTR _Alproxy$[rsp]
	call	??$_Dest_val@V?$allocator@U_Container_proxy@std@@@std@@U_Container_proxy@2@@std@@YAXAEAV?$allocator@U_Container_proxy@std@@@0@PEAU_Container_proxy@0@@Z ; std::_Dest_val<std::allocator<std::_Container_proxy>,std::_Container_proxy>
; Line 747
	mov	r8d, 1
	mov	rax, QWORD PTR this$[rsp]
	mov	rdx, QWORD PTR [rax]
	lea	rcx, QWORD PTR _Alproxy$[rsp]
	call	?deallocate@?$allocator@U_Container_proxy@std@@@std@@QEAAXPEAU_Container_proxy@2@_K@Z ; std::allocator<std::_Container_proxy>::deallocate
; Line 748
	mov	rax, QWORD PTR this$[rsp]
	mov	QWORD PTR [rax], 0
; Line 749
	mov	rcx, QWORD PTR this$[rsp]
	call	??1_Container_base12@std@@QEAA@XZ	; std::_Container_base12::~_Container_base12
	mov	rcx, rsp
	lea	rdx, OFFSET FLAT:??1?$_Deque_val@PEAXV?$allocator@PEAX@std@@@std@@QEAA@XZ$rtcFrameData
	call	_RTC_CheckStackVars
	add	rsp, 64					; 00000040H
	pop	rdi
	ret	0
??1?$_Deque_val@PEAXV?$allocator@PEAX@std@@@std@@QEAA@XZ ENDP ; std::_Deque_val<void * __ptr64,std::allocator<void * __ptr64> >::~_Deque_val<void * __ptr64,std::allocator<void * __ptr64> >
; Function compile flags: /Odtp /RTCsu
_TEXT	ENDS
;	COMDAT text$x
text$x	SEGMENT
_Alproxy$ = 36
$T82401 = 56
this$ = 80
?dtor$0@?0???1?$_Deque_val@PEAXV?$allocator@PEAX@std@@@std@@QEAA@XZ@4HA PROC ; `std::_Deque_val<void * __ptr64,std::allocator<void * __ptr64> >::~_Deque_val<void * __ptr64,std::allocator<void * __ptr64> >'::`1'::dtor$0
	mov	QWORD PTR [rsp+8], rcx
	mov	QWORD PTR [rsp+16], rdx
	push	rbp
	push	rdi
	sub	rsp, 40					; 00000028H
	mov	rbp, rdx
	mov	rcx, QWORD PTR this$[rbp]
	call	??1_Container_base12@std@@QEAA@XZ	; std::_Container_base12::~_Container_base12
	add	rsp, 40					; 00000028H
	pop	rdi
	pop	rbp
	ret	0
?dtor$0@?0???1?$_Deque_val@PEAXV?$allocator@PEAX@std@@@std@@QEAA@XZ@4HA ENDP ; `std::_Deque_val<void * __ptr64,std::allocator<void * __ptr64> >::~_Deque_val<void * __ptr64,std::allocator<void * __ptr64> >'::`1'::dtor$0
text$x	ENDS
;	COMDAT pdata
; File c:\program files (x86)\microsoft visual studio 10.0\vc\include\xmemory
pdata	SEGMENT
$pdata$??0?$allocator@PEAX@std@@QEAA@XZ DD imagerel $LN3
	DD	imagerel $LN3+13
	DD	imagerel $unwind$??0?$allocator@PEAX@std@@QEAA@XZ
pdata	ENDS
;	COMDAT xdata
xdata	SEGMENT
$unwind$??0?$allocator@PEAX@std@@QEAA@XZ DD 010601H
	DD	07006H
; Function compile flags: /Odtp /RTCsu
xdata	ENDS
;	COMDAT ??0?$allocator@PEAX@std@@QEAA@XZ
_TEXT	SEGMENT
this$ = 16
??0?$allocator@PEAX@std@@QEAA@XZ PROC			; std::allocator<void * __ptr64>::allocator<void * __ptr64>, COMDAT
; Line 161
$LN3:
	mov	QWORD PTR [rsp+8], rcx
	push	rdi
; Line 163
	mov	rax, QWORD PTR this$[rsp]
	pop	rdi
	ret	0
??0?$allocator@PEAX@std@@QEAA@XZ ENDP			; std::allocator<void * __ptr64>::allocator<void * __ptr64>
_TEXT	ENDS
PUBLIC	??$_Allocate@PEAX@std@@YAPEAPEAX_KPEAPEAX@Z	; std::_Allocate<void * __ptr64>
;	COMDAT pdata
pdata	SEGMENT
$pdata$?allocate@?$allocator@PEAX@std@@QEAAPEAPEAX_K@Z DD imagerel $LN3
	DD	imagerel $LN3+53
	DD	imagerel $unwind$?allocate@?$allocator@PEAX@std@@QEAAPEAPEAX_K@Z
pdata	ENDS
;	COMDAT xdata
xdata	SEGMENT
$unwind$?allocate@?$allocator@PEAX@std@@QEAAPEAPEAX_K@Z DD 022301H
	DD	0700b320fH
; Function compile flags: /Odtp /RTCsu
xdata	ENDS
;	COMDAT ?allocate@?$allocator@PEAX@std@@QEAAPEAPEAX_K@Z
_TEXT	SEGMENT
this$ = 48
_Count$ = 56
?allocate@?$allocator@PEAX@std@@QEAAPEAPEAX_K@Z PROC	; std::allocator<void * __ptr64>::allocate, COMDAT
; Line 186
$LN3:
	mov	QWORD PTR [rsp+16], rdx
	mov	QWORD PTR [rsp+8], rcx
	push	rdi
	sub	rsp, 32					; 00000020H
	mov	rdi, rsp
	mov	ecx, 8
	mov	eax, -858993460				; ccccccccH
	rep stosd
	mov	rcx, QWORD PTR [rsp+48]
; Line 187
	xor	edx, edx
	mov	rcx, QWORD PTR _Count$[rsp]
	call	??$_Allocate@PEAX@std@@YAPEAPEAX_KPEAPEAX@Z ; std::_Allocate<void * __ptr64>
; Line 188
	add	rsp, 32					; 00000020H
	pop	rdi
	ret	0
?allocate@?$allocator@PEAX@std@@QEAAPEAPEAX_K@Z ENDP	; std::allocator<void * __ptr64>::allocate
_TEXT	ENDS
PUBLIC	??_C@_1CG@JNLFBNGN@?$AA?$CC?$AAi?$AAn?$AAv?$AAa?$AAl?$AAi?$AAd?$AA?5?$AAa?$AAr?$AAg?$AAu?$AAm?$AAe?$AAn?$AAt?$AA?$CC?$AA?$AA@ ; `string'
PUBLIC	??_C@_1JE@PGBLACOD@?$AAs?$AAt?$AAd?$AA?3?$AA?3?$AA_?$AAD?$AAe?$AAq?$AAu?$AAe?$AA_?$AAc?$AAo?$AAn?$AAs?$AAt?$AA_?$AAi?$AAt?$AAe?$AAr?$AAa?$AAt?$AAo?$AAr?$AA?$DM?$AAv?$AAo?$AAi?$AAd?$AA?5@ ; `string'
PUBLIC	??_C@_1FO@GJIHNDLM@?$AA?$CC?$AAS?$AAt?$AAa?$AAn?$AAd?$AAa?$AAr?$AAd?$AA?5?$AAC?$AA?$CL?$AA?$CL?$AA?5?$AAL?$AAi?$AAb?$AAr?$AAa?$AAr?$AAi?$AAe?$AAs?$AA?5?$AAI?$AAn?$AAv?$AAa?$AAl?$AAi?$AAd?$AA?5@ ; `string'
PUBLIC	??_C@_0CI@FNPHFCCM@Standard?5C?$CL?$CL?5Libraries?5Invalid?5A@ ; `string'
PUBLIC	??_C@_1DK@CNDLFKCJ@?$AAd?$AAe?$AAq?$AAu?$AAe?$AA?5?$AAi?$AAt?$AAe?$AAr?$AAa?$AAt?$AAo?$AAr?$AAs?$AA?5?$AAi?$AAn?$AAc?$AAo?$AAm?$AAp?$AAa?$AAt?$AAi?$AAb?$AAl?$AAe?$AA?$AA@ ; `string'
;	COMDAT pdata
; File c:\program files (x86)\microsoft visual studio 10.0\vc\include\deque
pdata	SEGMENT
$pdata$?_Compat@?$_Deque_const_iterator@PEAXV?$allocator@PEAX@std@@@std@@QEBAXAEBV12@@Z DD imagerel $LN7
	DD	imagerel $LN7+215
	DD	imagerel $unwind$?_Compat@?$_Deque_const_iterator@PEAXV?$allocator@PEAX@std@@@std@@QEBAXAEBV12@@Z
pdata	ENDS
;	COMDAT xdata
xdata	SEGMENT
$unwind$?_Compat@?$_Deque_const_iterator@PEAXV?$allocator@PEAX@std@@@std@@QEBAXAEBV12@@Z DD 022301H
	DD	0700b720fH
xdata	ENDS
;	COMDAT ??_C@_1CG@JNLFBNGN@?$AA?$CC?$AAi?$AAn?$AAv?$AAa?$AAl?$AAi?$AAd?$AA?5?$AAa?$AAr?$AAg?$AAu?$AAm?$AAe?$AAn?$AAt?$AA?$CC?$AA?$AA@
CONST	SEGMENT
??_C@_1CG@JNLFBNGN@?$AA?$CC?$AAi?$AAn?$AAv?$AAa?$AAl?$AAi?$AAd?$AA?5?$AAa?$AAr?$AAg?$AAu?$AAm?$AAe?$AAn?$AAt?$AA?$CC?$AA?$AA@ DB '"'
	DB	00H, 'i', 00H, 'n', 00H, 'v', 00H, 'a', 00H, 'l', 00H, 'i', 00H
	DB	'd', 00H, ' ', 00H, 'a', 00H, 'r', 00H, 'g', 00H, 'u', 00H, 'm'
	DB	00H, 'e', 00H, 'n', 00H, 't', 00H, '"', 00H, 00H, 00H ; `string'
CONST	ENDS
;	COMDAT ??_C@_1JE@PGBLACOD@?$AAs?$AAt?$AAd?$AA?3?$AA?3?$AA_?$AAD?$AAe?$AAq?$AAu?$AAe?$AA_?$AAc?$AAo?$AAn?$AAs?$AAt?$AA_?$AAi?$AAt?$AAe?$AAr?$AAa?$AAt?$AAo?$AAr?$AA?$DM?$AAv?$AAo?$AAi?$AAd?$AA?5@
CONST	SEGMENT
??_C@_1JE@PGBLACOD@?$AAs?$AAt?$AAd?$AA?3?$AA?3?$AA_?$AAD?$AAe?$AAq?$AAu?$AAe?$AA_?$AAc?$AAo?$AAn?$AAs?$AAt?$AA_?$AAi?$AAt?$AAe?$AAr?$AAa?$AAt?$AAo?$AAr?$AA?$DM?$AAv?$AAo?$AAi?$AAd?$AA?5@ DB 's'
	DB	00H, 't', 00H, 'd', 00H, ':', 00H, ':', 00H, '_', 00H, 'D', 00H
	DB	'e', 00H, 'q', 00H, 'u', 00H, 'e', 00H, '_', 00H, 'c', 00H, 'o'
	DB	00H, 'n', 00H, 's', 00H, 't', 00H, '_', 00H, 'i', 00H, 't', 00H
	DB	'e', 00H, 'r', 00H, 'a', 00H, 't', 00H, 'o', 00H, 'r', 00H, '<'
	DB	00H, 'v', 00H, 'o', 00H, 'i', 00H, 'd', 00H, ' ', 00H, '*', 00H
	DB	',', 00H, 'c', 00H, 'l', 00H, 'a', 00H, 's', 00H, 's', 00H, ' '
	DB	00H, 's', 00H, 't', 00H, 'd', 00H, ':', 00H, ':', 00H, 'a', 00H
	DB	'l', 00H, 'l', 00H, 'o', 00H, 'c', 00H, 'a', 00H, 't', 00H, 'o'
	DB	00H, 'r', 00H, '<', 00H, 'v', 00H, 'o', 00H, 'i', 00H, 'd', 00H
	DB	' ', 00H, '*', 00H, '>', 00H, ' ', 00H, '>', 00H, ':', 00H, ':'
	DB	00H, '_', 00H, 'C', 00H, 'o', 00H, 'm', 00H, 'p', 00H, 'a', 00H
	DB	't', 00H, 00H, 00H				; `string'
CONST	ENDS
;	COMDAT ??_C@_1FO@GJIHNDLM@?$AA?$CC?$AAS?$AAt?$AAa?$AAn?$AAd?$AAa?$AAr?$AAd?$AA?5?$AAC?$AA?$CL?$AA?$CL?$AA?5?$AAL?$AAi?$AAb?$AAr?$AAa?$AAr?$AAi?$AAe?$AAs?$AA?5?$AAI?$AAn?$AAv?$AAa?$AAl?$AAi?$AAd?$AA?5@
CONST	SEGMENT
??_C@_1FO@GJIHNDLM@?$AA?$CC?$AAS?$AAt?$AAa?$AAn?$AAd?$AAa?$AAr?$AAd?$AA?5?$AAC?$AA?$CL?$AA?$CL?$AA?5?$AAL?$AAi?$AAb?$AAr?$AAa?$AAr?$AAi?$AAe?$AAs?$AA?5?$AAI?$AAn?$AAv?$AAa?$AAl?$AAi?$AAd?$AA?5@ DB '"'
	DB	00H, 'S', 00H, 't', 00H, 'a', 00H, 'n', 00H, 'd', 00H, 'a', 00H
	DB	'r', 00H, 'd', 00H, ' ', 00H, 'C', 00H, '+', 00H, '+', 00H, ' '
	DB	00H, 'L', 00H, 'i', 00H, 'b', 00H, 'r', 00H, 'a', 00H, 'r', 00H
	DB	'i', 00H, 'e', 00H, 's', 00H, ' ', 00H, 'I', 00H, 'n', 00H, 'v'
	DB	00H, 'a', 00H, 'l', 00H, 'i', 00H, 'd', 00H, ' ', 00H, 'A', 00H
	DB	'r', 00H, 'g', 00H, 'u', 00H, 'm', 00H, 'e', 00H, 'n', 00H, 't'
	DB	00H, '"', 00H, ' ', 00H, '&', 00H, '&', 00H, ' ', 00H, '0', 00H
	DB	00H, 00H					; `string'
CONST	ENDS
;	COMDAT ??_C@_0CI@FNPHFCCM@Standard?5C?$CL?$CL?5Libraries?5Invalid?5A@
CONST	SEGMENT
??_C@_0CI@FNPHFCCM@Standard?5C?$CL?$CL?5Libraries?5Invalid?5A@ DB 'Standa'
	DB	'rd C++ Libraries Invalid Argument', 00H	; `string'
CONST	ENDS
;	COMDAT ??_C@_1DK@CNDLFKCJ@?$AAd?$AAe?$AAq?$AAu?$AAe?$AA?5?$AAi?$AAt?$AAe?$AAr?$AAa?$AAt?$AAo?$AAr?$AAs?$AA?5?$AAi?$AAn?$AAc?$AAo?$AAm?$AAp?$AAa?$AAt?$AAi?$AAb?$AAl?$AAe?$AA?$AA@
CONST	SEGMENT
??_C@_1DK@CNDLFKCJ@?$AAd?$AAe?$AAq?$AAu?$AAe?$AA?5?$AAi?$AAt?$AAe?$AAr?$AAa?$AAt?$AAo?$AAr?$AAs?$AA?5?$AAi?$AAn?$AAc?$AAo?$AAm?$AAp?$AAa?$AAt?$AAi?$AAb?$AAl?$AAe?$AA?$AA@ DB 'd'
	DB	00H, 'e', 00H, 'q', 00H, 'u', 00H, 'e', 00H, ' ', 00H, 'i', 00H
	DB	't', 00H, 'e', 00H, 'r', 00H, 'a', 00H, 't', 00H, 'o', 00H, 'r'
	DB	00H, 's', 00H, ' ', 00H, 'i', 00H, 'n', 00H, 'c', 00H, 'o', 00H
	DB	'm', 00H, 'p', 00H, 'a', 00H, 't', 00H, 'i', 00H, 'b', 00H, 'l'
	DB	00H, 'e', 00H, 00H, 00H			; `string'
; Function compile flags: /Odtp /RTCsu
CONST	ENDS
;	COMDAT ?_Compat@?$_Deque_const_iterator@PEAXV?$allocator@PEAX@std@@@std@@QEBAXAEBV12@@Z
_TEXT	SEGMENT
_Mycont$ = 48
this$ = 80
_Right$ = 88
?_Compat@?$_Deque_const_iterator@PEAXV?$allocator@PEAX@std@@@std@@QEBAXAEBV12@@Z PROC ; std::_Deque_const_iterator<void * __ptr64,std::allocator<void * __ptr64> >::_Compat, COMDAT
; Line 507
$LN7:
	mov	QWORD PTR [rsp+16], rdx
	mov	QWORD PTR [rsp+8], rcx
	push	rdi
	sub	rsp, 64					; 00000040H
	mov	rdi, rsp
	mov	ecx, 16
	mov	eax, -858993460				; ccccccccH
	rep stosd
	mov	rcx, QWORD PTR [rsp+80]
; Line 508
	mov	rcx, QWORD PTR this$[rsp]
	call	?_Getcont@_Iterator_base12@std@@QEBAPEBU_Container_base12@2@XZ ; std::_Iterator_base12::_Getcont
	mov	QWORD PTR _Mycont$[rsp], rax
; Line 510
	cmp	QWORD PTR _Mycont$[rsp], 0
	je	SHORT $LN1@Compat
	mov	rcx, QWORD PTR _Right$[rsp]
	call	?_Getcont@_Iterator_base12@std@@QEBAPEBU_Container_base12@2@XZ ; std::_Iterator_base12::_Getcont
	cmp	QWORD PTR _Mycont$[rsp], rax
	je	$LN2@Compat
$LN1@Compat:
; Line 512
	mov	r8d, 512				; 00000200H
	lea	rdx, OFFSET FLAT:??_C@_1IK@NBJCLFHG@?$AAc?$AA?3?$AA?2?$AAP?$AAr?$AAo?$AAg?$AAr?$AAa?$AAm?$AA?5?$AAF?$AAi?$AAl?$AAe?$AAs?$AA?5?$AA?$CI?$AAx?$AA8?$AA6?$AA?$CJ?$AA?2?$AAM?$AAi?$AAc?$AAr?$AAo?$AAs?$AAo?$AAf?$AAt@
	lea	rcx, OFFSET FLAT:??_C@_1DK@CNDLFKCJ@?$AAd?$AAe?$AAq?$AAu?$AAe?$AA?5?$AAi?$AAt?$AAe?$AAr?$AAa?$AAt?$AAo?$AAr?$AAs?$AA?5?$AAi?$AAn?$AAc?$AAo?$AAm?$AAp?$AAa?$AAt?$AAi?$AAb?$AAl?$AAe?$AA?$AA@
	call	?_Debug_message@std@@YAXPEB_W0I@Z	; std::_Debug_message
; Line 513
	lea	rax, OFFSET FLAT:??_C@_0CI@FNPHFCCM@Standard?5C?$CL?$CL?5Libraries?5Invalid?5A@
	test	rax, rax
	je	SHORT $LN5@Compat
	xor	eax, eax
	test	eax, eax
	jne	SHORT $LN6@Compat
$LN5@Compat:
	lea	rax, OFFSET FLAT:??_C@_1FO@GJIHNDLM@?$AA?$CC?$AAS?$AAt?$AAa?$AAn?$AAd?$AAa?$AAr?$AAd?$AA?5?$AAC?$AA?$CL?$AA?$CL?$AA?5?$AAL?$AAi?$AAb?$AAr?$AAa?$AAr?$AAi?$AAe?$AAs?$AA?5?$AAI?$AAn?$AAv?$AAa?$AAl?$AAi?$AAd?$AA?5@
	mov	QWORD PTR [rsp+32], rax
	xor	r9d, r9d
	mov	r8d, 513				; 00000201H
	lea	rdx, OFFSET FLAT:??_C@_1IK@NBJCLFHG@?$AAc?$AA?3?$AA?2?$AAP?$AAr?$AAo?$AAg?$AAr?$AAa?$AAm?$AA?5?$AAF?$AAi?$AAl?$AAe?$AAs?$AA?5?$AA?$CI?$AAx?$AA8?$AA6?$AA?$CJ?$AA?2?$AAM?$AAi?$AAc?$AAr?$AAo?$AAs?$AAo?$AAf?$AAt@
	mov	ecx, 2
	call	_CrtDbgReportW
	cmp	eax, 1
	jne	SHORT $LN6@Compat
	int	3
	xor	eax, eax
$LN6@Compat:
	mov	QWORD PTR [rsp+32], 0
	mov	r9d, 513				; 00000201H
	lea	r8, OFFSET FLAT:??_C@_1IK@NBJCLFHG@?$AAc?$AA?3?$AA?2?$AAP?$AAr?$AAo?$AAg?$AAr?$AAa?$AAm?$AA?5?$AAF?$AAi?$AAl?$AAe?$AAs?$AA?5?$AA?$CI?$AAx?$AA8?$AA6?$AA?$CJ?$AA?2?$AAM?$AAi?$AAc?$AAr?$AAo?$AAs?$AAo?$AAf?$AAt@
	lea	rdx, OFFSET FLAT:??_C@_1JE@PGBLACOD@?$AAs?$AAt?$AAd?$AA?3?$AA?3?$AA_?$AAD?$AAe?$AAq?$AAu?$AAe?$AA_?$AAc?$AAo?$AAn?$AAs?$AAt?$AA_?$AAi?$AAt?$AAe?$AAr?$AAa?$AAt?$AAo?$AAr?$AA?$DM?$AAv?$AAo?$AAi?$AAd?$AA?5@
	lea	rcx, OFFSET FLAT:??_C@_1CG@JNLFBNGN@?$AA?$CC?$AAi?$AAn?$AAv?$AAa?$AAl?$AAi?$AAd?$AA?5?$AAa?$AAr?$AAg?$AAu?$AAm?$AAe?$AAn?$AAt?$AA?$CC?$AA?$AA@
	call	_invalid_parameter
$LN2@Compat:
; Line 515
	add	rsp, 64					; 00000040H
	pop	rdi
	ret	0
?_Compat@?$_Deque_const_iterator@PEAXV?$allocator@PEAX@std@@@std@@QEBAXAEBV12@@Z ENDP ; std::_Deque_const_iterator<void * __ptr64,std::allocator<void * __ptr64> >::_Compat
_TEXT	ENDS
PUBLIC	??0?$_Deque_const_iterator@PEAXV?$allocator@PEAX@std@@@std@@QEAA@_KPEBU_Container_base12@1@@Z ; std::_Deque_const_iterator<void * __ptr64,std::allocator<void * __ptr64> >::_Deque_const_iterator<void * __ptr64,std::allocator<void * __ptr64> >
;	COMDAT pdata
pdata	SEGMENT
$pdata$??0?$_Deque_iterator@PEAXV?$allocator@PEAX@std@@@std@@QEAA@_KPEBU_Container_base12@1@@Z DD imagerel $LN4
	DD	imagerel $LN4+71
	DD	imagerel $unwind$??0?$_Deque_iterator@PEAXV?$allocator@PEAX@std@@@std@@QEAA@_KPEBU_Container_base12@1@@Z
pdata	ENDS
;	COMDAT xdata
xdata	SEGMENT
$unwind$??0?$_Deque_iterator@PEAXV?$allocator@PEAX@std@@@std@@QEAA@_KPEBU_Container_base12@1@@Z DD 022801H
	DD	070103214H
; Function compile flags: /Odtp /RTCsu
xdata	ENDS
;	COMDAT ??0?$_Deque_iterator@PEAXV?$allocator@PEAX@std@@@std@@QEAA@_KPEBU_Container_base12@1@@Z
_TEXT	SEGMENT
this$ = 48
_Off$ = 56
_Pdeque$ = 64
??0?$_Deque_iterator@PEAXV?$allocator@PEAX@std@@@std@@QEAA@_KPEBU_Container_base12@1@@Z PROC ; std::_Deque_iterator<void * __ptr64,std::allocator<void * __ptr64> >::_Deque_iterator<void * __ptr64,std::allocator<void * __ptr64> >, COMDAT
; Line 601
$LN4:
	mov	QWORD PTR [rsp+24], r8
	mov	QWORD PTR [rsp+16], rdx
	mov	QWORD PTR [rsp+8], rcx
	push	rdi
	sub	rsp, 32					; 00000020H
	mov	rdi, rsp
	mov	ecx, 8
	mov	eax, -858993460				; ccccccccH
	rep stosd
	mov	rcx, QWORD PTR [rsp+48]
	mov	r8, QWORD PTR _Pdeque$[rsp]
	mov	rdx, QWORD PTR _Off$[rsp]
	mov	rcx, QWORD PTR this$[rsp]
	call	??0?$_Deque_const_iterator@PEAXV?$allocator@PEAX@std@@@std@@QEAA@_KPEBU_Container_base12@1@@Z ; std::_Deque_const_iterator<void * __ptr64,std::allocator<void * __ptr64> >::_Deque_const_iterator<void * __ptr64,std::allocator<void * __ptr64> >
; Line 602
	mov	rax, QWORD PTR this$[rsp]
	add	rsp, 32					; 00000020H
	pop	rdi
	ret	0
??0?$_Deque_iterator@PEAXV?$allocator@PEAX@std@@@std@@QEAA@_KPEBU_Container_base12@1@@Z ENDP ; std::_Deque_iterator<void * __ptr64,std::allocator<void * __ptr64> >::_Deque_iterator<void * __ptr64,std::allocator<void * __ptr64> >
_TEXT	ENDS
;	COMDAT pdata
pdata	SEGMENT
$pdata$??D?$_Deque_iterator@PEAXV?$allocator@PEAX@std@@@std@@QEBAAEAPEAXXZ DD imagerel $LN3
	DD	imagerel $LN3+46
	DD	imagerel $unwind$??D?$_Deque_iterator@PEAXV?$allocator@PEAX@std@@@std@@QEBAAEAPEAXXZ
pdata	ENDS
;	COMDAT xdata
xdata	SEGMENT
$unwind$??D?$_Deque_iterator@PEAXV?$allocator@PEAX@std@@@std@@QEBAAEAPEAXXZ DD 021e01H
	DD	07006320aH
; Function compile flags: /Odtp /RTCsu
xdata	ENDS
;	COMDAT ??D?$_Deque_iterator@PEAXV?$allocator@PEAX@std@@@std@@QEBAAEAPEAXXZ
_TEXT	SEGMENT
this$ = 48
??D?$_Deque_iterator@PEAXV?$allocator@PEAX@std@@@std@@QEBAAEAPEAXXZ PROC ; std::_Deque_iterator<void * __ptr64,std::allocator<void * __ptr64> >::operator*, COMDAT
; Line 618
$LN3:
	mov	QWORD PTR [rsp+8], rcx
	push	rdi
	sub	rsp, 32					; 00000020H
	mov	rdi, rsp
	mov	ecx, 8
	mov	eax, -858993460				; ccccccccH
	rep stosd
	mov	rcx, QWORD PTR [rsp+48]
; Line 619
	mov	rcx, QWORD PTR this$[rsp]
	call	??D?$_Deque_const_iterator@PEAXV?$allocator@PEAX@std@@@std@@QEBAAEBQEAXXZ ; std::_Deque_const_iterator<void * __ptr64,std::allocator<void * __ptr64> >::operator*
; Line 620
	add	rsp, 32					; 00000020H
	pop	rdi
	ret	0
??D?$_Deque_iterator@PEAXV?$allocator@PEAX@std@@@std@@QEBAAEAPEAXXZ ENDP ; std::_Deque_iterator<void * __ptr64,std::allocator<void * __ptr64> >::operator*
_TEXT	ENDS
PUBLIC	?max_size@?$allocator@PEAX@std@@QEBA_KXZ	; std::allocator<void * __ptr64>::max_size
;	COMDAT pdata
pdata	SEGMENT
$pdata$?max_size@?$deque@PEAXV?$allocator@PEAX@std@@@std@@QEBA_KXZ DD imagerel $LN3
	DD	imagerel $LN3+53
	DD	imagerel $unwind$?max_size@?$deque@PEAXV?$allocator@PEAX@std@@@std@@QEBA_KXZ
pdata	ENDS
;	COMDAT xdata
xdata	SEGMENT
$unwind$?max_size@?$deque@PEAXV?$allocator@PEAX@std@@@std@@QEBA_KXZ DD 021e01H
	DD	07006320aH
; Function compile flags: /Odtp /RTCsu
xdata	ENDS
;	COMDAT ?max_size@?$deque@PEAXV?$allocator@PEAX@std@@@std@@QEBA_KXZ
_TEXT	SEGMENT
this$ = 48
?max_size@?$deque@PEAXV?$allocator@PEAX@std@@@std@@QEBA_KXZ PROC ; std::deque<void * __ptr64,std::allocator<void * __ptr64> >::max_size, COMDAT
; Line 1154
$LN3:
	mov	QWORD PTR [rsp+8], rcx
	push	rdi
	sub	rsp, 32					; 00000020H
	mov	rdi, rsp
	mov	ecx, 8
	mov	eax, -858993460				; ccccccccH
	rep stosd
	mov	rcx, QWORD PTR [rsp+48]
; Line 1155
	mov	rax, QWORD PTR this$[rsp]
	add	rax, 40					; 00000028H
	mov	rcx, rax
	call	?max_size@?$allocator@PEAX@std@@QEBA_KXZ ; std::allocator<void * __ptr64>::max_size
; Line 1156
	add	rsp, 32					; 00000020H
	pop	rdi
	ret	0
?max_size@?$deque@PEAXV?$allocator@PEAX@std@@@std@@QEBA_KXZ ENDP ; std::deque<void * __ptr64,std::allocator<void * __ptr64> >::max_size
_TEXT	ENDS
;	COMDAT pdata
pdata	SEGMENT
$pdata$?pop_back@?$deque@PEAXV?$allocator@PEAX@std@@@std@@QEAAXXZ DD imagerel $LN7
	DD	imagerel $LN7+327
	DD	imagerel $unwind$?pop_back@?$deque@PEAXV?$allocator@PEAX@std@@@std@@QEAAXXZ
pdata	ENDS
;	COMDAT xdata
xdata	SEGMENT
$unwind$?pop_back@?$deque@PEAXV?$allocator@PEAX@std@@@std@@QEAAXXZ DD 021e01H
	DD	07006720aH
; Function compile flags: /Odtp /RTCsu
xdata	ENDS
;	COMDAT ?pop_back@?$deque@PEAXV?$allocator@PEAX@std@@@std@@QEAAXXZ
_TEXT	SEGMENT
_Newoff$80179 = 32
_Block$80180 = 40
tv173 = 48
tv165 = 56
this$ = 80
?pop_back@?$deque@PEAXV?$allocator@PEAX@std@@@std@@QEAAXXZ PROC ; std::deque<void * __ptr64,std::allocator<void * __ptr64> >::pop_back, COMDAT
; Line 1272
$LN7:
	mov	QWORD PTR [rsp+8], rcx
	push	rdi
	sub	rsp, 64					; 00000040H
	mov	rdi, rsp
	mov	ecx, 16
	mov	eax, -858993460				; ccccccccH
	rep stosd
	mov	rcx, QWORD PTR [rsp+80]
; Line 1274
	mov	rcx, QWORD PTR this$[rsp]
	call	?empty@?$deque@PEAXV?$allocator@PEAX@std@@@std@@QEBA_NXZ ; std::deque<void * __ptr64,std::allocator<void * __ptr64> >::empty
	movzx	eax, al
	test	eax, eax
	je	SHORT $LN4@pop_back
; Line 1275
	mov	r8d, 1275				; 000004fbH
	lea	rdx, OFFSET FLAT:??_C@_1IK@NBJCLFHG@?$AAc?$AA?3?$AA?2?$AAP?$AAr?$AAo?$AAg?$AAr?$AAa?$AAm?$AA?5?$AAF?$AAi?$AAl?$AAe?$AAs?$AA?5?$AA?$CI?$AAx?$AA8?$AA6?$AA?$CJ?$AA?2?$AAM?$AAi?$AAc?$AAr?$AAo?$AAs?$AAo?$AAf?$AAt@
	lea	rcx, OFFSET FLAT:??_C@_1CO@FNIDKHMC@?$AAd?$AAe?$AAq?$AAu?$AAe?$AA?5?$AAe?$AAm?$AAp?$AAt?$AAy?$AA?5?$AAb?$AAe?$AAf?$AAo?$AAr?$AAe?$AA?5?$AAp?$AAo?$AAp?$AA?$AA@
	call	?_Debug_message@std@@YAXPEB_W0I@Z	; std::_Debug_message
; Line 1276
	jmp	$LN3@pop_back
$LN4@pop_back:
; Line 1278
	mov	rax, QWORD PTR this$[rsp]
	mov	rax, QWORD PTR [rax+24]
	mov	rcx, QWORD PTR this$[rsp]
	mov	rcx, QWORD PTR [rcx+32]
	lea	rax, QWORD PTR [rax+rcx-1]
	mov	rdx, rax
	mov	rcx, QWORD PTR this$[rsp]
	call	?_Orphan_off@?$deque@PEAXV?$allocator@PEAX@std@@@std@@IEBAX_K@Z ; std::deque<void * __ptr64,std::allocator<void * __ptr64> >::_Orphan_off
; Line 1279
	mov	rax, QWORD PTR this$[rsp]
	mov	rax, QWORD PTR [rax+32]
	mov	rcx, QWORD PTR this$[rsp]
	mov	rcx, QWORD PTR [rcx+24]
	lea	rax, QWORD PTR [rax+rcx-1]
	mov	QWORD PTR _Newoff$80179[rsp], rax
; Line 1280
	xor	edx, edx
	mov	rax, QWORD PTR _Newoff$80179[rsp]
	mov	ecx, 2
	div	rcx
	mov	QWORD PTR _Block$80180[rsp], rax
; Line 1281
	mov	rax, QWORD PTR this$[rsp]
	mov	rcx, QWORD PTR _Block$80180[rsp]
	cmp	QWORD PTR [rax+16], rcx
	ja	SHORT $LN2@pop_back
; Line 1282
	mov	rax, QWORD PTR this$[rsp]
	mov	rax, QWORD PTR [rax+16]
	mov	rcx, QWORD PTR _Block$80180[rsp]
	sub	rcx, rax
	mov	rax, rcx
	mov	QWORD PTR _Block$80180[rsp], rax
$LN2@pop_back:
; Line 1284
	mov	rax, QWORD PTR this$[rsp]
	mov	rax, QWORD PTR [rax+8]
	mov	QWORD PTR tv173[rsp], rax
	xor	edx, edx
	mov	rax, QWORD PTR _Newoff$80179[rsp]
	mov	ecx, 2
	div	rcx
	mov	rax, rdx
	mov	rcx, QWORD PTR _Block$80180[rsp]
	mov	rdx, QWORD PTR tv173[rsp]
	mov	rcx, QWORD PTR [rdx+rcx*8]
	lea	rax, QWORD PTR [rcx+rax*8]
	mov	rcx, QWORD PTR this$[rsp]
	add	rcx, 40					; 00000028H
	mov	rdx, rax
	call	??$_Dest_val@V?$allocator@PEAX@std@@PEAX@std@@YAXAEAV?$allocator@PEAX@0@PEAPEAX@Z ; std::_Dest_val<std::allocator<void * __ptr64>,void * __ptr64>
; Line 1285
	mov	rax, QWORD PTR this$[rsp]
	mov	rax, QWORD PTR [rax+32]
	dec	rax
	mov	QWORD PTR tv165[rsp], rax
	mov	rax, QWORD PTR this$[rsp]
	mov	rcx, QWORD PTR tv165[rsp]
	mov	QWORD PTR [rax+32], rcx
	cmp	QWORD PTR tv165[rsp], 0
	jne	SHORT $LN1@pop_back
; Line 1286
	mov	rax, QWORD PTR this$[rsp]
	mov	QWORD PTR [rax+24], 0
$LN1@pop_back:
$LN3@pop_back:
; Line 1302
	add	rsp, 64					; 00000040H
	pop	rdi
	ret	0
?pop_back@?$deque@PEAXV?$allocator@PEAX@std@@@std@@QEAAXXZ ENDP ; std::deque<void * __ptr64,std::allocator<void * __ptr64> >::pop_back
_TEXT	ENDS
PUBLIC	??_C@_0BC@KBDMBKEH@deque?$DMT?$DO?5too?5long?$AA@ ; `string'
EXTRN	?_Xlength_error@std@@YAXPEBD@Z:PROC		; std::_Xlength_error
;	COMDAT pdata
pdata	SEGMENT
$pdata$?_Xlen@?$deque@PEAXV?$allocator@PEAX@std@@@std@@IEBAXXZ DD imagerel $LN3
	DD	imagerel $LN3+48
	DD	imagerel $unwind$?_Xlen@?$deque@PEAXV?$allocator@PEAX@std@@@std@@IEBAXXZ
pdata	ENDS
;	COMDAT xdata
xdata	SEGMENT
$unwind$?_Xlen@?$deque@PEAXV?$allocator@PEAX@std@@@std@@IEBAXXZ DD 021e01H
	DD	07006320aH
xdata	ENDS
;	COMDAT ??_C@_0BC@KBDMBKEH@deque?$DMT?$DO?5too?5long?$AA@
CONST	SEGMENT
??_C@_0BC@KBDMBKEH@deque?$DMT?$DO?5too?5long?$AA@ DB 'deque<T> too long', 00H ; `string'
; Function compile flags: /Odtp /RTCsu
CONST	ENDS
;	COMDAT ?_Xlen@?$deque@PEAXV?$allocator@PEAX@std@@@std@@IEBAXXZ
_TEXT	SEGMENT
this$ = 48
?_Xlen@?$deque@PEAXV?$allocator@PEAX@std@@@std@@IEBAXXZ PROC ; std::deque<void * __ptr64,std::allocator<void * __ptr64> >::_Xlen, COMDAT
; Line 1579
$LN3:
	mov	QWORD PTR [rsp+8], rcx
	push	rdi
	sub	rsp, 32					; 00000020H
	mov	rdi, rsp
	mov	ecx, 8
	mov	eax, -858993460				; ccccccccH
	rep stosd
	mov	rcx, QWORD PTR [rsp+48]
; Line 1580
	lea	rcx, OFFSET FLAT:??_C@_0BC@KBDMBKEH@deque?$DMT?$DO?5too?5long?$AA@
	call	?_Xlength_error@std@@YAXPEBD@Z		; std::_Xlength_error
$LN2@Xlen:
; Line 1581
	add	rsp, 32					; 00000020H
	pop	rdi
	ret	0
?_Xlen@?$deque@PEAXV?$allocator@PEAX@std@@@std@@IEBAXXZ ENDP ; std::deque<void * __ptr64,std::allocator<void * __ptr64> >::_Xlen
_TEXT	ENDS
;	COMDAT pdata
; File c:\program files (x86)\microsoft visual studio 10.0\vc\include\xmemory
pdata	SEGMENT
$pdata$??0?$allocator@PEAX@std@@QEAA@AEBV01@@Z DD imagerel $LN3
	DD	imagerel $LN3+18
	DD	imagerel $unwind$??0?$allocator@PEAX@std@@QEAA@AEBV01@@Z
pdata	ENDS
;	COMDAT xdata
xdata	SEGMENT
$unwind$??0?$allocator@PEAX@std@@QEAA@AEBV01@@Z DD 010b01H
	DD	0700bH
; Function compile flags: /Odtp /RTCsu
xdata	ENDS
;	COMDAT ??0?$allocator@PEAX@std@@QEAA@AEBV01@@Z
_TEXT	SEGMENT
this$ = 16
__formal$ = 24
??0?$allocator@PEAX@std@@QEAA@AEBV01@@Z PROC		; std::allocator<void * __ptr64>::allocator<void * __ptr64>, COMDAT
; Line 165
$LN3:
	mov	QWORD PTR [rsp+16], rdx
	mov	QWORD PTR [rsp+8], rcx
	push	rdi
; Line 167
	mov	rax, QWORD PTR this$[rsp]
	pop	rdi
	ret	0
??0?$allocator@PEAX@std@@QEAA@AEBV01@@Z ENDP		; std::allocator<void * __ptr64>::allocator<void * __ptr64>
_TEXT	ENDS
;	COMDAT pdata
pdata	SEGMENT
$pdata$?deallocate@?$allocator@PEAX@std@@QEAAXPEAPEAX_K@Z DD imagerel $LN3
	DD	imagerel $LN3+56
	DD	imagerel $unwind$?deallocate@?$allocator@PEAX@std@@QEAAXPEAPEAX_K@Z
pdata	ENDS
;	COMDAT xdata
xdata	SEGMENT
$unwind$?deallocate@?$allocator@PEAX@std@@QEAAXPEAPEAX_K@Z DD 022801H
	DD	070103214H
; Function compile flags: /Odtp /RTCsu
xdata	ENDS
;	COMDAT ?deallocate@?$allocator@PEAX@std@@QEAAXPEAPEAX_K@Z
_TEXT	SEGMENT
this$ = 48
_Ptr$ = 56
__formal$ = 64
?deallocate@?$allocator@PEAX@std@@QEAAXPEAPEAX_K@Z PROC	; std::allocator<void * __ptr64>::deallocate, COMDAT
; Line 181
$LN3:
	mov	QWORD PTR [rsp+24], r8
	mov	QWORD PTR [rsp+16], rdx
	mov	QWORD PTR [rsp+8], rcx
	push	rdi
	sub	rsp, 32					; 00000020H
	mov	rdi, rsp
	mov	ecx, 8
	mov	eax, -858993460				; ccccccccH
	rep stosd
	mov	rcx, QWORD PTR [rsp+48]
; Line 182
	mov	rcx, QWORD PTR _Ptr$[rsp]
	call	??3@YAXPEAX@Z				; operator delete
; Line 183
	add	rsp, 32					; 00000020H
	pop	rdi
	ret	0
?deallocate@?$allocator@PEAX@std@@QEAAXPEAPEAX_K@Z ENDP	; std::allocator<void * __ptr64>::deallocate
_TEXT	ENDS
;	COMDAT pdata
pdata	SEGMENT
$pdata$?deallocate@?$allocator@PEAPEAX@std@@QEAAXPEAPEAPEAX_K@Z DD imagerel $LN3
	DD	imagerel $LN3+56
	DD	imagerel $unwind$?deallocate@?$allocator@PEAPEAX@std@@QEAAXPEAPEAPEAX_K@Z
pdata	ENDS
;	COMDAT xdata
xdata	SEGMENT
$unwind$?deallocate@?$allocator@PEAPEAX@std@@QEAAXPEAPEAPEAX_K@Z DD 022801H
	DD	070103214H
; Function compile flags: /Odtp /RTCsu
xdata	ENDS
;	COMDAT ?deallocate@?$allocator@PEAPEAX@std@@QEAAXPEAPEAPEAX_K@Z
_TEXT	SEGMENT
this$ = 48
_Ptr$ = 56
__formal$ = 64
?deallocate@?$allocator@PEAPEAX@std@@QEAAXPEAPEAPEAX_K@Z PROC ; std::allocator<void * __ptr64 * __ptr64>::deallocate, COMDAT
; Line 181
$LN3:
	mov	QWORD PTR [rsp+24], r8
	mov	QWORD PTR [rsp+16], rdx
	mov	QWORD PTR [rsp+8], rcx
	push	rdi
	sub	rsp, 32					; 00000020H
	mov	rdi, rsp
	mov	ecx, 8
	mov	eax, -858993460				; ccccccccH
	rep stosd
	mov	rcx, QWORD PTR [rsp+48]
; Line 182
	mov	rcx, QWORD PTR _Ptr$[rsp]
	call	??3@YAXPEAX@Z				; operator delete
; Line 183
	add	rsp, 32					; 00000020H
	pop	rdi
	ret	0
?deallocate@?$allocator@PEAPEAX@std@@QEAAXPEAPEAPEAX_K@Z ENDP ; std::allocator<void * __ptr64 * __ptr64>::deallocate
_TEXT	ENDS
PUBLIC	??$_Allocate@PEAPEAX@std@@YAPEAPEAPEAX_KPEAPEAPEAX@Z ; std::_Allocate<void * __ptr64 * __ptr64>
;	COMDAT pdata
pdata	SEGMENT
$pdata$?allocate@?$allocator@PEAPEAX@std@@QEAAPEAPEAPEAX_K@Z DD imagerel $LN3
	DD	imagerel $LN3+53
	DD	imagerel $unwind$?allocate@?$allocator@PEAPEAX@std@@QEAAPEAPEAPEAX_K@Z
pdata	ENDS
;	COMDAT xdata
xdata	SEGMENT
$unwind$?allocate@?$allocator@PEAPEAX@std@@QEAAPEAPEAPEAX_K@Z DD 022301H
	DD	0700b320fH
; Function compile flags: /Odtp /RTCsu
xdata	ENDS
;	COMDAT ?allocate@?$allocator@PEAPEAX@std@@QEAAPEAPEAPEAX_K@Z
_TEXT	SEGMENT
this$ = 48
_Count$ = 56
?allocate@?$allocator@PEAPEAX@std@@QEAAPEAPEAPEAX_K@Z PROC ; std::allocator<void * __ptr64 * __ptr64>::allocate, COMDAT
; Line 186
$LN3:
	mov	QWORD PTR [rsp+16], rdx
	mov	QWORD PTR [rsp+8], rcx
	push	rdi
	sub	rsp, 32					; 00000020H
	mov	rdi, rsp
	mov	ecx, 8
	mov	eax, -858993460				; ccccccccH
	rep stosd
	mov	rcx, QWORD PTR [rsp+48]
; Line 187
	xor	edx, edx
	mov	rcx, QWORD PTR _Count$[rsp]
	call	??$_Allocate@PEAPEAX@std@@YAPEAPEAPEAX_KPEAPEAPEAX@Z ; std::_Allocate<void * __ptr64 * __ptr64>
; Line 188
	add	rsp, 32					; 00000020H
	pop	rdi
	ret	0
?allocate@?$allocator@PEAPEAX@std@@QEAAPEAPEAPEAX_K@Z ENDP ; std::allocator<void * __ptr64 * __ptr64>::allocate
_TEXT	ENDS
PUBLIC	?_Setcont@?$_Deque_const_iterator@PEAXV?$allocator@PEAX@std@@@std@@QEAAXPEBV?$deque@PEAXV?$allocator@PEAX@std@@@2@@Z ; std::_Deque_const_iterator<void * __ptr64,std::allocator<void * __ptr64> >::_Setcont
PUBLIC	??0_Iterator_base12@std@@QEAA@XZ		; std::_Iterator_base12::_Iterator_base12
;	COMDAT pdata
; File c:\program files (x86)\microsoft visual studio 10.0\vc\include\deque
pdata	SEGMENT
$pdata$??0?$_Deque_const_iterator@PEAXV?$allocator@PEAX@std@@@std@@QEAA@_KPEBU_Container_base12@1@@Z DD imagerel $LN4
	DD	imagerel $LN4+100
	DD	imagerel $unwind$??0?$_Deque_const_iterator@PEAXV?$allocator@PEAX@std@@@std@@QEAA@_KPEBU_Container_base12@1@@Z
pdata	ENDS
;	COMDAT pdata
pdata	SEGMENT
$pdata$?dtor$0@?0???0?$_Deque_const_iterator@PEAXV?$allocator@PEAX@std@@@std@@QEAA@_KPEBU_Container_base12@1@@Z@4HA DD imagerel ?dtor$0@?0???0?$_Deque_const_iterator@PEAXV?$allocator@PEAX@std@@@std@@QEAA@_KPEBU_Container_base12@1@@Z@4HA
	DD	imagerel ?dtor$0@?0???0?$_Deque_const_iterator@PEAXV?$allocator@PEAX@std@@@std@@QEAA@_KPEBU_Container_base12@1@@Z@4HA+35
	DD	imagerel $unwind$?dtor$0@?0???0?$_Deque_const_iterator@PEAXV?$allocator@PEAX@std@@@std@@QEAA@_KPEBU_Container_base12@1@@Z@4HA
pdata	ENDS
;	COMDAT xdata
xdata	SEGMENT
$ip2state$??0?$_Deque_const_iterator@PEAXV?$allocator@PEAX@std@@@std@@QEAA@_KPEBU_Container_base12@1@@Z DD imagerel ??0?$_Deque_const_iterator@PEAXV?$allocator@PEAX@std@@@std@@QEAA@_KPEBU_Container_base12@1@@Z
	DD	0ffffffffH
	DD	imagerel ??0?$_Deque_const_iterator@PEAXV?$allocator@PEAX@std@@@std@@QEAA@_KPEBU_Container_base12@1@@Z+60
	DD	00H
	DD	imagerel ??0?$_Deque_const_iterator@PEAXV?$allocator@PEAX@std@@@std@@QEAA@_KPEBU_Container_base12@1@@Z+89
	DD	0ffffffffH
xdata	ENDS
;	COMDAT xdata
xdata	SEGMENT
$unwind$?dtor$0@?0???0?$_Deque_const_iterator@PEAXV?$allocator@PEAX@std@@@std@@QEAA@_KPEBU_Container_base12@1@@Z@4HA DD 031001H
	DD	0700c4210H
	DD	0500bH
xdata	ENDS
;	COMDAT xdata
xdata	SEGMENT
$unwind$??0?$_Deque_const_iterator@PEAXV?$allocator@PEAX@std@@@std@@QEAA@_KPEBU_Container_base12@1@@Z DD 023111H
	DD	070105214H
	DD	imagerel __CxxFrameHandler3
	DD	imagerel $cppxdata$??0?$_Deque_const_iterator@PEAXV?$allocator@PEAX@std@@@std@@QEAA@_KPEBU_Container_base12@1@@Z
xdata	ENDS
;	COMDAT CONST
CONST	SEGMENT
$cppxdata$??0?$_Deque_const_iterator@PEAXV?$allocator@PEAX@std@@@std@@QEAA@_KPEBU_Container_base12@1@@Z DD 019930522H
	DD	01H
	DD	imagerel $stateUnwindMap$??0?$_Deque_const_iterator@PEAXV?$allocator@PEAX@std@@@std@@QEAA@_KPEBU_Container_base12@1@@Z
	DD	00H
	DD	00H
	DD	03H
	DD	imagerel $ip2state$??0?$_Deque_const_iterator@PEAXV?$allocator@PEAX@std@@@std@@QEAA@_KPEBU_Container_base12@1@@Z
	DD	020H
	DD	00H
	DD	01H
CONST	ENDS
;	COMDAT xdata
xdata	SEGMENT
$stateUnwindMap$??0?$_Deque_const_iterator@PEAXV?$allocator@PEAX@std@@@std@@QEAA@_KPEBU_Container_base12@1@@Z DD 0ffffffffH
	DD	imagerel ?dtor$0@?0???0?$_Deque_const_iterator@PEAXV?$allocator@PEAX@std@@@std@@QEAA@_KPEBU_Container_base12@1@@Z@4HA
; Function compile flags: /Odtp /RTCsu
xdata	ENDS
;	COMDAT ??0?$_Deque_const_iterator@PEAXV?$allocator@PEAX@std@@@std@@QEAA@_KPEBU_Container_base12@1@@Z
_TEXT	SEGMENT
$T82517 = 32
this$ = 64
_Off$ = 72
_Pdeque$ = 80
??0?$_Deque_const_iterator@PEAXV?$allocator@PEAX@std@@@std@@QEAA@_KPEBU_Container_base12@1@@Z PROC ; std::_Deque_const_iterator<void * __ptr64,std::allocator<void * __ptr64> >::_Deque_const_iterator<void * __ptr64,std::allocator<void * __ptr64> >, COMDAT
; Line 310
$LN4:
	mov	QWORD PTR [rsp+24], r8
	mov	QWORD PTR [rsp+16], rdx
	mov	QWORD PTR [rsp+8], rcx
	push	rdi
	sub	rsp, 48					; 00000030H
	mov	rdi, rsp
	mov	ecx, 12
	mov	eax, -858993460				; ccccccccH
	rep stosd
	mov	rcx, QWORD PTR [rsp+64]
	mov	QWORD PTR $T82517[rsp], -2
	mov	rcx, QWORD PTR this$[rsp]
	call	??0_Iterator_base12@std@@QEAA@XZ	; std::_Iterator_base12::_Iterator_base12
	npad	1
; Line 312
	mov	rdx, QWORD PTR _Pdeque$[rsp]
	mov	rcx, QWORD PTR this$[rsp]
	call	?_Setcont@?$_Deque_const_iterator@PEAXV?$allocator@PEAX@std@@@std@@QEAAXPEBV?$deque@PEAXV?$allocator@PEAX@std@@@2@@Z ; std::_Deque_const_iterator<void * __ptr64,std::allocator<void * __ptr64> >::_Setcont
; Line 313
	mov	rax, QWORD PTR this$[rsp]
	mov	rcx, QWORD PTR _Off$[rsp]
	mov	QWORD PTR [rax+16], rcx
; Line 314
	mov	rax, QWORD PTR this$[rsp]
	add	rsp, 48					; 00000030H
	pop	rdi
	ret	0
??0?$_Deque_const_iterator@PEAXV?$allocator@PEAX@std@@@std@@QEAA@_KPEBU_Container_base12@1@@Z ENDP ; std::_Deque_const_iterator<void * __ptr64,std::allocator<void * __ptr64> >::_Deque_const_iterator<void * __ptr64,std::allocator<void * __ptr64> >
; Function compile flags: /Odtp /RTCsu
_TEXT	ENDS
;	COMDAT text$x
text$x	SEGMENT
$T82517 = 32
this$ = 64
_Off$ = 72
_Pdeque$ = 80
?dtor$0@?0???0?$_Deque_const_iterator@PEAXV?$allocator@PEAX@std@@@std@@QEAA@_KPEBU_Container_base12@1@@Z@4HA PROC ; `std::_Deque_const_iterator<void * __ptr64,std::allocator<void * __ptr64> >::_Deque_const_iterator<void * __ptr64,std::allocator<void * __ptr64> >'::`1'::dtor$0
	mov	QWORD PTR [rsp+8], rcx
	mov	QWORD PTR [rsp+16], rdx
	push	rbp
	push	rdi
	sub	rsp, 40					; 00000028H
	mov	rbp, rdx
	mov	rcx, QWORD PTR this$[rbp]
	call	??1_Iterator_base12@std@@QEAA@XZ	; std::_Iterator_base12::~_Iterator_base12
	add	rsp, 40					; 00000028H
	pop	rdi
	pop	rbp
	ret	0
?dtor$0@?0???0?$_Deque_const_iterator@PEAXV?$allocator@PEAX@std@@@std@@QEAA@_KPEBU_Container_base12@1@@Z@4HA ENDP ; `std::_Deque_const_iterator<void * __ptr64,std::allocator<void * __ptr64> >::_Deque_const_iterator<void * __ptr64,std::allocator<void * __ptr64> >'::`1'::dtor$0
text$x	ENDS
;	COMDAT pdata
; File c:\program files (x86)\microsoft visual studio 10.0\vc\include\xutility
pdata	SEGMENT
$pdata$??0_Iterator_base12@std@@QEAA@XZ DD imagerel $LN3
	DD	imagerel $LN3+38
	DD	imagerel $unwind$??0_Iterator_base12@std@@QEAA@XZ
pdata	ENDS
;	COMDAT xdata
xdata	SEGMENT
$unwind$??0_Iterator_base12@std@@QEAA@XZ DD 010601H
	DD	07006H
; Function compile flags: /Odtp /RTCsu
xdata	ENDS
;	COMDAT ??0_Iterator_base12@std@@QEAA@XZ
_TEXT	SEGMENT
this$ = 16
??0_Iterator_base12@std@@QEAA@XZ PROC			; std::_Iterator_base12::_Iterator_base12, COMDAT
; Line 111
$LN3:
	mov	QWORD PTR [rsp+8], rcx
	push	rdi
	mov	rax, QWORD PTR this$[rsp]
	mov	QWORD PTR [rax], 0
	mov	rax, QWORD PTR this$[rsp]
	mov	QWORD PTR [rax+8], 0
; Line 112
	mov	rax, QWORD PTR this$[rsp]
	pop	rdi
	ret	0
??0_Iterator_base12@std@@QEAA@XZ ENDP			; std::_Iterator_base12::_Iterator_base12
_TEXT	ENDS
;	COMDAT pdata
; File c:\program files (x86)\microsoft visual studio 10.0\vc\include\xmemory
pdata	SEGMENT
$pdata$?deallocate@?$allocator@U_Container_proxy@std@@@std@@QEAAXPEAU_Container_proxy@2@_K@Z DD imagerel $LN3
	DD	imagerel $LN3+56
	DD	imagerel $unwind$?deallocate@?$allocator@U_Container_proxy@std@@@std@@QEAAXPEAU_Container_proxy@2@_K@Z
pdata	ENDS
;	COMDAT xdata
xdata	SEGMENT
$unwind$?deallocate@?$allocator@U_Container_proxy@std@@@std@@QEAAXPEAU_Container_proxy@2@_K@Z DD 022801H
	DD	070103214H
; Function compile flags: /Odtp /RTCsu
xdata	ENDS
;	COMDAT ?deallocate@?$allocator@U_Container_proxy@std@@@std@@QEAAXPEAU_Container_proxy@2@_K@Z
_TEXT	SEGMENT
this$ = 48
_Ptr$ = 56
__formal$ = 64
?deallocate@?$allocator@U_Container_proxy@std@@@std@@QEAAXPEAU_Container_proxy@2@_K@Z PROC ; std::allocator<std::_Container_proxy>::deallocate, COMDAT
; Line 181
$LN3:
	mov	QWORD PTR [rsp+24], r8
	mov	QWORD PTR [rsp+16], rdx
	mov	QWORD PTR [rsp+8], rcx
	push	rdi
	sub	rsp, 32					; 00000020H
	mov	rdi, rsp
	mov	ecx, 8
	mov	eax, -858993460				; ccccccccH
	rep stosd
	mov	rcx, QWORD PTR [rsp+48]
; Line 182
	mov	rcx, QWORD PTR _Ptr$[rsp]
	call	??3@YAXPEAX@Z				; operator delete
; Line 183
	add	rsp, 32					; 00000020H
	pop	rdi
	ret	0
?deallocate@?$allocator@U_Container_proxy@std@@@std@@QEAAXPEAU_Container_proxy@2@_K@Z ENDP ; std::allocator<std::_Container_proxy>::deallocate
_TEXT	ENDS
PUBLIC	??$_Allocate@U_Container_proxy@std@@@std@@YAPEAU_Container_proxy@0@_KPEAU10@@Z ; std::_Allocate<std::_Container_proxy>
;	COMDAT pdata
pdata	SEGMENT
$pdata$?allocate@?$allocator@U_Container_proxy@std@@@std@@QEAAPEAU_Container_proxy@2@_K@Z DD imagerel $LN3
	DD	imagerel $LN3+53
	DD	imagerel $unwind$?allocate@?$allocator@U_Container_proxy@std@@@std@@QEAAPEAU_Container_proxy@2@_K@Z
pdata	ENDS
;	COMDAT xdata
xdata	SEGMENT
$unwind$?allocate@?$allocator@U_Container_proxy@std@@@std@@QEAAPEAU_Container_proxy@2@_K@Z DD 022301H
	DD	0700b320fH
; Function compile flags: /Odtp /RTCsu
xdata	ENDS
;	COMDAT ?allocate@?$allocator@U_Container_proxy@std@@@std@@QEAAPEAU_Container_proxy@2@_K@Z
_TEXT	SEGMENT
this$ = 48
_Count$ = 56
?allocate@?$allocator@U_Container_proxy@std@@@std@@QEAAPEAU_Container_proxy@2@_K@Z PROC ; std::allocator<std::_Container_proxy>::allocate, COMDAT
; Line 186
$LN3:
	mov	QWORD PTR [rsp+16], rdx
	mov	QWORD PTR [rsp+8], rcx
	push	rdi
	sub	rsp, 32					; 00000020H
	mov	rdi, rsp
	mov	ecx, 8
	mov	eax, -858993460				; ccccccccH
	rep stosd
	mov	rcx, QWORD PTR [rsp+48]
; Line 187
	xor	edx, edx
	mov	rcx, QWORD PTR _Count$[rsp]
	call	??$_Allocate@U_Container_proxy@std@@@std@@YAPEAU_Container_proxy@0@_KPEAU10@@Z ; std::_Allocate<std::_Container_proxy>
; Line 188
	add	rsp, 32					; 00000020H
	pop	rdi
	ret	0
?allocate@?$allocator@U_Container_proxy@std@@@std@@QEAAPEAU_Container_proxy@2@_K@Z ENDP ; std::allocator<std::_Container_proxy>::allocate
_TEXT	ENDS
;	COMDAT pdata
pdata	SEGMENT
$pdata$?max_size@?$allocator@PEAX@std@@QEBA_KXZ DD imagerel $LN5
	DD	imagerel $LN5+82
	DD	imagerel $unwind$?max_size@?$allocator@PEAX@std@@QEBA_KXZ
pdata	ENDS
;	COMDAT xdata
xdata	SEGMENT
$unwind$?max_size@?$allocator@PEAX@std@@QEBA_KXZ DD 021e01H
	DD	07006120aH
; Function compile flags: /Odtp /RTCsu
xdata	ENDS
;	COMDAT ?max_size@?$allocator@PEAX@std@@QEBA_KXZ
_TEXT	SEGMENT
_Count$ = 0
tv65 = 8
this$ = 32
?max_size@?$allocator@PEAX@std@@QEBA_KXZ PROC		; std::allocator<void * __ptr64>::max_size, COMDAT
; Line 217
$LN5:
	mov	QWORD PTR [rsp+8], rcx
	push	rdi
	sub	rsp, 16
	mov	rdi, rsp
	mov	ecx, 4
	mov	eax, -858993460				; ccccccccH
	rep stosd
	mov	rcx, QWORD PTR [rsp+32]
; Line 218
	mov	rax, 2305843009213693951		; 1fffffffffffffffH
	mov	QWORD PTR _Count$[rsp], rax
; Line 219
	cmp	QWORD PTR _Count$[rsp], 0
	jbe	SHORT $LN3@max_size
	mov	rax, QWORD PTR _Count$[rsp]
	mov	QWORD PTR tv65[rsp], rax
	jmp	SHORT $LN4@max_size
$LN3@max_size:
	mov	QWORD PTR tv65[rsp], 1
$LN4@max_size:
	mov	rax, QWORD PTR tv65[rsp]
; Line 220
	add	rsp, 16
	pop	rdi
	ret	0
?max_size@?$allocator@PEAX@std@@QEBA_KXZ ENDP		; std::allocator<void * __ptr64>::max_size
_TEXT	ENDS
;	COMDAT pdata
; File c:\program files (x86)\microsoft visual studio 10.0\vc\include\deque
pdata	SEGMENT
$pdata$?_Setcont@?$_Deque_const_iterator@PEAXV?$allocator@PEAX@std@@@std@@QEAAXPEBV?$deque@PEAXV?$allocator@PEAX@std@@@2@@Z DD imagerel $LN3
	DD	imagerel $LN3+56
	DD	imagerel $unwind$?_Setcont@?$_Deque_const_iterator@PEAXV?$allocator@PEAX@std@@@std@@QEAAXPEBV?$deque@PEAXV?$allocator@PEAX@std@@@2@@Z
pdata	ENDS
;	COMDAT xdata
xdata	SEGMENT
$unwind$?_Setcont@?$_Deque_const_iterator@PEAXV?$allocator@PEAX@std@@@std@@QEAAXPEBV?$deque@PEAXV?$allocator@PEAX@std@@@2@@Z DD 022301H
	DD	0700b320fH
; Function compile flags: /Odtp /RTCsu
xdata	ENDS
;	COMDAT ?_Setcont@?$_Deque_const_iterator@PEAXV?$allocator@PEAX@std@@@std@@QEAAXPEBV?$deque@PEAXV?$allocator@PEAX@std@@@2@@Z
_TEXT	SEGMENT
