; Listing generated by Microsoft (R) Optimizing Compiler Version 16.00.30319.01 

include listing.inc

INCLUDELIB LIBCMTD
INCLUDELIB OLDNAMES

PUBLIC	?clSimpleConvolution@@3PEAVSimpleConvolution@@EA ; clSimpleConvolution
PUBLIC	?has_denorm@_Num_base@std@@2W4float_denorm_style@2@B ; std::_Num_base::has_denorm
PUBLIC	?has_denorm_loss@_Num_base@std@@2_NB		; std::_Num_base::has_denorm_loss
PUBLIC	?has_infinity@_Num_base@std@@2_NB		; std::_Num_base::has_infinity
PUBLIC	?has_quiet_NaN@_Num_base@std@@2_NB		; std::_Num_base::has_quiet_NaN
PUBLIC	?has_signaling_NaN@_Num_base@std@@2_NB		; std::_Num_base::has_signaling_NaN
PUBLIC	?is_bounded@_Num_base@std@@2_NB			; std::_Num_base::is_bounded
PUBLIC	?is_exact@_Num_base@std@@2_NB			; std::_Num_base::is_exact
PUBLIC	?is_iec559@_Num_base@std@@2_NB			; std::_Num_base::is_iec559
PUBLIC	?is_integer@_Num_base@std@@2_NB			; std::_Num_base::is_integer
PUBLIC	?is_modulo@_Num_base@std@@2_NB			; std::_Num_base::is_modulo
PUBLIC	?is_signed@_Num_base@std@@2_NB			; std::_Num_base::is_signed
PUBLIC	?is_specialized@_Num_base@std@@2_NB		; std::_Num_base::is_specialized
PUBLIC	?tinyness_before@_Num_base@std@@2_NB		; std::_Num_base::tinyness_before
PUBLIC	?traps@_Num_base@std@@2_NB			; std::_Num_base::traps
PUBLIC	?round_style@_Num_base@std@@2W4float_round_style@2@B ; std::_Num_base::round_style
PUBLIC	?digits@_Num_base@std@@2HB			; std::_Num_base::digits
PUBLIC	?digits10@_Num_base@std@@2HB			; std::_Num_base::digits10
PUBLIC	?max_digits10@_Num_base@std@@2HB		; std::_Num_base::max_digits10
PUBLIC	?max_exponent@_Num_base@std@@2HB		; std::_Num_base::max_exponent
PUBLIC	?max_exponent10@_Num_base@std@@2HB		; std::_Num_base::max_exponent10
PUBLIC	?min_exponent@_Num_base@std@@2HB		; std::_Num_base::min_exponent
PUBLIC	?min_exponent10@_Num_base@std@@2HB		; std::_Num_base::min_exponent10
PUBLIC	?radix@_Num_base@std@@2HB			; std::_Num_base::radix
PUBLIC	?is_bounded@_Num_int_base@std@@2_NB		; std::_Num_int_base::is_bounded
PUBLIC	?is_exact@_Num_int_base@std@@2_NB		; std::_Num_int_base::is_exact
PUBLIC	?is_integer@_Num_int_base@std@@2_NB		; std::_Num_int_base::is_integer
PUBLIC	?is_modulo@_Num_int_base@std@@2_NB		; std::_Num_int_base::is_modulo
PUBLIC	?is_specialized@_Num_int_base@std@@2_NB		; std::_Num_int_base::is_specialized
PUBLIC	?radix@_Num_int_base@std@@2HB			; std::_Num_int_base::radix
PUBLIC	?has_denorm@_Num_float_base@std@@2W4float_denorm_style@2@B ; std::_Num_float_base::has_denorm
PUBLIC	?has_denorm_loss@_Num_float_base@std@@2_NB	; std::_Num_float_base::has_denorm_loss
PUBLIC	?has_infinity@_Num_float_base@std@@2_NB		; std::_Num_float_base::has_infinity
PUBLIC	?has_quiet_NaN@_Num_float_base@std@@2_NB	; std::_Num_float_base::has_quiet_NaN
PUBLIC	?has_signaling_NaN@_Num_float_base@std@@2_NB	; std::_Num_float_base::has_signaling_NaN
PUBLIC	?is_bounded@_Num_float_base@std@@2_NB		; std::_Num_float_base::is_bounded
PUBLIC	?is_exact@_Num_float_base@std@@2_NB		; std::_Num_float_base::is_exact
PUBLIC	?is_iec559@_Num_float_base@std@@2_NB		; std::_Num_float_base::is_iec559
PUBLIC	?is_integer@_Num_float_base@std@@2_NB		; std::_Num_float_base::is_integer
PUBLIC	?is_modulo@_Num_float_base@std@@2_NB		; std::_Num_float_base::is_modulo
PUBLIC	?is_signed@_Num_float_base@std@@2_NB		; std::_Num_float_base::is_signed
PUBLIC	?is_specialized@_Num_float_base@std@@2_NB	; std::_Num_float_base::is_specialized
PUBLIC	?tinyness_before@_Num_float_base@std@@2_NB	; std::_Num_float_base::tinyness_before
PUBLIC	?traps@_Num_float_base@std@@2_NB		; std::_Num_float_base::traps
PUBLIC	?round_style@_Num_float_base@std@@2W4float_round_style@2@B ; std::_Num_float_base::round_style
PUBLIC	?radix@_Num_float_base@std@@2HB			; std::_Num_float_base::radix
PUBLIC	?is_signed@?$numeric_limits@D@std@@2_NB		; std::numeric_limits<char>::is_signed
PUBLIC	?digits@?$numeric_limits@D@std@@2HB		; std::numeric_limits<char>::digits
PUBLIC	?digits10@?$numeric_limits@D@std@@2HB		; std::numeric_limits<char>::digits10
PUBLIC	?max_digits10@?$numeric_limits@D@std@@2HB	; std::numeric_limits<char>::max_digits10
PUBLIC	?is_signed@?$numeric_limits@_W@std@@2_NB	; std::numeric_limits<wchar_t>::is_signed
PUBLIC	?digits@?$numeric_limits@_W@std@@2HB		; std::numeric_limits<wchar_t>::digits
PUBLIC	?digits10@?$numeric_limits@_W@std@@2HB		; std::numeric_limits<wchar_t>::digits10
PUBLIC	?max_digits10@?$numeric_limits@_W@std@@2HB	; std::numeric_limits<wchar_t>::max_digits10
PUBLIC	?is_modulo@?$numeric_limits@_N@std@@2_NB	; std::numeric_limits<bool>::is_modulo
PUBLIC	?is_signed@?$numeric_limits@_N@std@@2_NB	; std::numeric_limits<bool>::is_signed
PUBLIC	?digits@?$numeric_limits@_N@std@@2HB		; std::numeric_limits<bool>::digits
PUBLIC	?digits10@?$numeric_limits@_N@std@@2HB		; std::numeric_limits<bool>::digits10
PUBLIC	?max_digits10@?$numeric_limits@_N@std@@2HB	; std::numeric_limits<bool>::max_digits10
PUBLIC	?is_signed@?$numeric_limits@C@std@@2_NB		; std::numeric_limits<signed char>::is_signed
PUBLIC	?digits@?$numeric_limits@C@std@@2HB		; std::numeric_limits<signed char>::digits
PUBLIC	?digits10@?$numeric_limits@C@std@@2HB		; std::numeric_limits<signed char>::digits10
PUBLIC	?max_digits10@?$numeric_limits@C@std@@2HB	; std::numeric_limits<signed char>::max_digits10
PUBLIC	?is_signed@?$numeric_limits@E@std@@2_NB		; std::numeric_limits<unsigned char>::is_signed
PUBLIC	?digits@?$numeric_limits@E@std@@2HB		; std::numeric_limits<unsigned char>::digits
PUBLIC	?digits10@?$numeric_limits@E@std@@2HB		; std::numeric_limits<unsigned char>::digits10
PUBLIC	?max_digits10@?$numeric_limits@E@std@@2HB	; std::numeric_limits<unsigned char>::max_digits10
PUBLIC	?is_signed@?$numeric_limits@F@std@@2_NB		; std::numeric_limits<short>::is_signed
PUBLIC	?digits@?$numeric_limits@F@std@@2HB		; std::numeric_limits<short>::digits
PUBLIC	?digits10@?$numeric_limits@F@std@@2HB		; std::numeric_limits<short>::digits10
PUBLIC	?max_digits10@?$numeric_limits@F@std@@2HB	; std::numeric_limits<short>::max_digits10
PUBLIC	?is_signed@?$numeric_limits@G@std@@2_NB		; std::numeric_limits<unsigned short>::is_signed
PUBLIC	?digits@?$numeric_limits@G@std@@2HB		; std::numeric_limits<unsigned short>::digits
PUBLIC	?digits10@?$numeric_limits@G@std@@2HB		; std::numeric_limits<unsigned short>::digits10
PUBLIC	?max_digits10@?$numeric_limits@G@std@@2HB	; std::numeric_limits<unsigned short>::max_digits10
PUBLIC	?is_signed@?$numeric_limits@H@std@@2_NB		; std::numeric_limits<int>::is_signed
PUBLIC	?digits@?$numeric_limits@H@std@@2HB		; std::numeric_limits<int>::digits
PUBLIC	?digits10@?$numeric_limits@H@std@@2HB		; std::numeric_limits<int>::digits10
PUBLIC	?max_digits10@?$numeric_limits@H@std@@2HB	; std::numeric_limits<int>::max_digits10
PUBLIC	?is_signed@?$numeric_limits@I@std@@2_NB		; std::numeric_limits<unsigned int>::is_signed
PUBLIC	?digits@?$numeric_limits@I@std@@2HB		; std::numeric_limits<unsigned int>::digits
PUBLIC	?digits10@?$numeric_limits@I@std@@2HB		; std::numeric_limits<unsigned int>::digits10
PUBLIC	?max_digits10@?$numeric_limits@I@std@@2HB	; std::numeric_limits<unsigned int>::max_digits10
PUBLIC	?is_signed@?$numeric_limits@J@std@@2_NB		; std::numeric_limits<long>::is_signed
PUBLIC	?digits@?$numeric_limits@J@std@@2HB		; std::numeric_limits<long>::digits
PUBLIC	?digits10@?$numeric_limits@J@std@@2HB		; std::numeric_limits<long>::digits10
PUBLIC	?max_digits10@?$numeric_limits@J@std@@2HB	; std::numeric_limits<long>::max_digits10
PUBLIC	?is_signed@?$numeric_limits@K@std@@2_NB		; std::numeric_limits<unsigned long>::is_signed
PUBLIC	?digits@?$numeric_limits@K@std@@2HB		; std::numeric_limits<unsigned long>::digits
PUBLIC	?digits10@?$numeric_limits@K@std@@2HB		; std::numeric_limits<unsigned long>::digits10
PUBLIC	?max_digits10@?$numeric_limits@K@std@@2HB	; std::numeric_limits<unsigned long>::max_digits10
PUBLIC	?is_signed@?$numeric_limits@_J@std@@2_NB	; std::numeric_limits<__int64>::is_signed
PUBLIC	?digits@?$numeric_limits@_J@std@@2HB		; std::numeric_limits<__int64>::digits
PUBLIC	?digits10@?$numeric_limits@_J@std@@2HB		; std::numeric_limits<__int64>::digits10
PUBLIC	?max_digits10@?$numeric_limits@_J@std@@2HB	; std::numeric_limits<__int64>::max_digits10
PUBLIC	?is_signed@?$numeric_limits@_K@std@@2_NB	; std::numeric_limits<unsigned __int64>::is_signed
PUBLIC	?digits@?$numeric_limits@_K@std@@2HB		; std::numeric_limits<unsigned __int64>::digits
PUBLIC	?digits10@?$numeric_limits@_K@std@@2HB		; std::numeric_limits<unsigned __int64>::digits10
PUBLIC	?max_digits10@?$numeric_limits@_K@std@@2HB	; std::numeric_limits<unsigned __int64>::max_digits10
PUBLIC	?digits@?$numeric_limits@M@std@@2HB		; std::numeric_limits<float>::digits
PUBLIC	?digits10@?$numeric_limits@M@std@@2HB		; std::numeric_limits<float>::digits10
PUBLIC	?max_digits10@?$numeric_limits@M@std@@2HB	; std::numeric_limits<float>::max_digits10
PUBLIC	?max_exponent@?$numeric_limits@M@std@@2HB	; std::numeric_limits<float>::max_exponent
PUBLIC	?max_exponent10@?$numeric_limits@M@std@@2HB	; std::numeric_limits<float>::max_exponent10
PUBLIC	?min_exponent@?$numeric_limits@M@std@@2HB	; std::numeric_limits<float>::min_exponent
PUBLIC	?min_exponent10@?$numeric_limits@M@std@@2HB	; std::numeric_limits<float>::min_exponent10
PUBLIC	?digits@?$numeric_limits@N@std@@2HB		; std::numeric_limits<double>::digits
PUBLIC	?digits10@?$numeric_limits@N@std@@2HB		; std::numeric_limits<double>::digits10
PUBLIC	?max_digits10@?$numeric_limits@N@std@@2HB	; std::numeric_limits<double>::max_digits10
PUBLIC	?max_exponent@?$numeric_limits@N@std@@2HB	; std::numeric_limits<double>::max_exponent
PUBLIC	?max_exponent10@?$numeric_limits@N@std@@2HB	; std::numeric_limits<double>::max_exponent10
PUBLIC	?min_exponent@?$numeric_limits@N@std@@2HB	; std::numeric_limits<double>::min_exponent
PUBLIC	?min_exponent10@?$numeric_limits@N@std@@2HB	; std::numeric_limits<double>::min_exponent10
PUBLIC	?digits@?$numeric_limits@O@std@@2HB		; std::numeric_limits<long double>::digits
PUBLIC	?digits10@?$numeric_limits@O@std@@2HB		; std::numeric_limits<long double>::digits10
PUBLIC	?max_digits10@?$numeric_limits@O@std@@2HB	; std::numeric_limits<long double>::max_digits10
PUBLIC	?max_exponent@?$numeric_limits@O@std@@2HB	; std::numeric_limits<long double>::max_exponent
PUBLIC	?max_exponent10@?$numeric_limits@O@std@@2HB	; std::numeric_limits<long double>::max_exponent10
PUBLIC	?min_exponent@?$numeric_limits@O@std@@2HB	; std::numeric_limits<long double>::min_exponent
PUBLIC	?min_exponent10@?$numeric_limits@O@std@@2HB	; std::numeric_limits<long double>::min_exponent10
PUBLIC	?value@?$integral_constant@_N$0A@@tr1@std@@2_NB	; std::tr1::integral_constant<bool,0>::value
PUBLIC	?value@?$integral_constant@_N$00@tr1@std@@2_NB	; std::tr1::integral_constant<bool,1>::value
PUBLIC	?value@?$integral_constant@_K$0A@@tr1@std@@2_KB	; std::tr1::integral_constant<unsigned __int64,0>::value
PUBLIC	?_Rank@?$_Arithmetic_traits@_N@std@@2HB		; std::_Arithmetic_traits<bool>::_Rank
PUBLIC	?_Rank@?$_Arithmetic_traits@D@std@@2HB		; std::_Arithmetic_traits<char>::_Rank
PUBLIC	?_Rank@?$_Arithmetic_traits@C@std@@2HB		; std::_Arithmetic_traits<signed char>::_Rank
PUBLIC	?_Rank@?$_Arithmetic_traits@E@std@@2HB		; std::_Arithmetic_traits<unsigned char>::_Rank
PUBLIC	?_Rank@?$_Arithmetic_traits@F@std@@2HB		; std::_Arithmetic_traits<short>::_Rank
PUBLIC	?_Rank@?$_Arithmetic_traits@G@std@@2HB		; std::_Arithmetic_traits<unsigned short>::_Rank
PUBLIC	?_Rank@?$_Arithmetic_traits@H@std@@2HB		; std::_Arithmetic_traits<int>::_Rank
PUBLIC	?_Rank@?$_Arithmetic_traits@I@std@@2HB		; std::_Arithmetic_traits<unsigned int>::_Rank
PUBLIC	?_Rank@?$_Arithmetic_traits@J@std@@2HB		; std::_Arithmetic_traits<long>::_Rank
PUBLIC	?_Rank@?$_Arithmetic_traits@K@std@@2HB		; std::_Arithmetic_traits<unsigned long>::_Rank
PUBLIC	?_Rank@?$_Arithmetic_traits@_J@std@@2HB		; std::_Arithmetic_traits<__int64>::_Rank
PUBLIC	?_Rank@?$_Arithmetic_traits@_K@std@@2HB		; std::_Arithmetic_traits<unsigned __int64>::_Rank
PUBLIC	?_Rank@?$_Arithmetic_traits@M@std@@2HB		; std::_Arithmetic_traits<float>::_Rank
PUBLIC	?_Rank@?$_Arithmetic_traits@N@std@@2HB		; std::_Arithmetic_traits<double>::_Rank
PUBLIC	?_Rank@?$_Arithmetic_traits@O@std@@2HB		; std::_Arithmetic_traits<long double>::_Rank
PUBLIC	?collate@?$_Locbase@H@std@@2HB			; std::_Locbase<int>::collate
PUBLIC	?ctype@?$_Locbase@H@std@@2HB			; std::_Locbase<int>::ctype
PUBLIC	?monetary@?$_Locbase@H@std@@2HB			; std::_Locbase<int>::monetary
PUBLIC	?numeric@?$_Locbase@H@std@@2HB			; std::_Locbase<int>::numeric
PUBLIC	?time@?$_Locbase@H@std@@2HB			; std::_Locbase<int>::time
PUBLIC	?messages@?$_Locbase@H@std@@2HB			; std::_Locbase<int>::messages
PUBLIC	?all@?$_Locbase@H@std@@2HB			; std::_Locbase<int>::all
PUBLIC	?none@?$_Locbase@H@std@@2HB			; std::_Locbase<int>::none
PUBLIC	?table_size@?$ctype@D@std@@2_KB			; std::ctype<char>::table_size
PUBLIC	?skipws@?$_Iosb@H@std@@2W4_Fmtflags@12@B	; std::_Iosb<int>::skipws
PUBLIC	?unitbuf@?$_Iosb@H@std@@2W4_Fmtflags@12@B	; std::_Iosb<int>::unitbuf
PUBLIC	?uppercase@?$_Iosb@H@std@@2W4_Fmtflags@12@B	; std::_Iosb<int>::uppercase
PUBLIC	?showbase@?$_Iosb@H@std@@2W4_Fmtflags@12@B	; std::_Iosb<int>::showbase
PUBLIC	?showpoint@?$_Iosb@H@std@@2W4_Fmtflags@12@B	; std::_Iosb<int>::showpoint
PUBLIC	?showpos@?$_Iosb@H@std@@2W4_Fmtflags@12@B	; std::_Iosb<int>::showpos
PUBLIC	?left@?$_Iosb@H@std@@2W4_Fmtflags@12@B		; std::_Iosb<int>::left
PUBLIC	?right@?$_Iosb@H@std@@2W4_Fmtflags@12@B		; std::_Iosb<int>::right
PUBLIC	?internal@?$_Iosb@H@std@@2W4_Fmtflags@12@B	; std::_Iosb<int>::internal
PUBLIC	?dec@?$_Iosb@H@std@@2W4_Fmtflags@12@B		; std::_Iosb<int>::dec
PUBLIC	?oct@?$_Iosb@H@std@@2W4_Fmtflags@12@B		; std::_Iosb<int>::oct
PUBLIC	?hex@?$_Iosb@H@std@@2W4_Fmtflags@12@B		; std::_Iosb<int>::hex
PUBLIC	?scientific@?$_Iosb@H@std@@2W4_Fmtflags@12@B	; std::_Iosb<int>::scientific
PUBLIC	?fixed@?$_Iosb@H@std@@2W4_Fmtflags@12@B		; std::_Iosb<int>::fixed
PUBLIC	?hexfloat@?$_Iosb@H@std@@2W4_Fmtflags@12@B	; std::_Iosb<int>::hexfloat
PUBLIC	?boolalpha@?$_Iosb@H@std@@2W4_Fmtflags@12@B	; std::_Iosb<int>::boolalpha
PUBLIC	?_Stdio@?$_Iosb@H@std@@2W4_Fmtflags@12@B	; std::_Iosb<int>::_Stdio
PUBLIC	?adjustfield@?$_Iosb@H@std@@2W4_Fmtflags@12@B	; std::_Iosb<int>::adjustfield
PUBLIC	?basefield@?$_Iosb@H@std@@2W4_Fmtflags@12@B	; std::_Iosb<int>::basefield
PUBLIC	?floatfield@?$_Iosb@H@std@@2W4_Fmtflags@12@B	; std::_Iosb<int>::floatfield
PUBLIC	?goodbit@?$_Iosb@H@std@@2W4_Iostate@12@B	; std::_Iosb<int>::goodbit
PUBLIC	?eofbit@?$_Iosb@H@std@@2W4_Iostate@12@B		; std::_Iosb<int>::eofbit
PUBLIC	?failbit@?$_Iosb@H@std@@2W4_Iostate@12@B	; std::_Iosb<int>::failbit
PUBLIC	?badbit@?$_Iosb@H@std@@2W4_Iostate@12@B		; std::_Iosb<int>::badbit
PUBLIC	?_Hardfail@?$_Iosb@H@std@@2W4_Iostate@12@B	; std::_Iosb<int>::_Hardfail
PUBLIC	?in@?$_Iosb@H@std@@2W4_Openmode@12@B		; std::_Iosb<int>::in
PUBLIC	?out@?$_Iosb@H@std@@2W4_Openmode@12@B		; std::_Iosb<int>::out
PUBLIC	?ate@?$_Iosb@H@std@@2W4_Openmode@12@B		; std::_Iosb<int>::ate
PUBLIC	?app@?$_Iosb@H@std@@2W4_Openmode@12@B		; std::_Iosb<int>::app
PUBLIC	?trunc@?$_Iosb@H@std@@2W4_Openmode@12@B		; std::_Iosb<int>::trunc
PUBLIC	?_Nocreate@?$_Iosb@H@std@@2W4_Openmode@12@B	; std::_Iosb<int>::_Nocreate
PUBLIC	?_Noreplace@?$_Iosb@H@std@@2W4_Openmode@12@B	; std::_Iosb<int>::_Noreplace
PUBLIC	?binary@?$_Iosb@H@std@@2W4_Openmode@12@B	; std::_Iosb<int>::binary
PUBLIC	?beg@?$_Iosb@H@std@@2W4_Seekdir@12@B		; std::_Iosb<int>::beg
PUBLIC	?cur@?$_Iosb@H@std@@2W4_Seekdir@12@B		; std::_Iosb<int>::cur
PUBLIC	?end@?$_Iosb@H@std@@2W4_Seekdir@12@B		; std::_Iosb<int>::end
_BSS	SEGMENT
?clSimpleConvolution@@3PEAVSimpleConvolution@@EA DQ 01H DUP (?) ; clSimpleConvolution
_BSS	ENDS
CONST	SEGMENT
$SG95695 DB	'Print Array', 00H
$SG95748 DB	0aH, 00H
$SG95811 DB	00H
	ORG $+1
$SG95696 DB	'done printing', 00H
	ORG $+2
$SG95711 DB	'clGetPlatformIDs failed.', 00H
	ORG $+3
$SG95856 DB	0aH, 0aH, 00H
	ORG $+1
$SG95718 DB	'clGetPlatformIDs failed.', 00H
	ORG $+3
$SG95906 DB	'%s.%d', 00H
	ORG $+2
$SG95948 DB	'cpu', 00H
$SG95726 DB	'clGetPlatformInfo failed.', 00H
	ORG $+2
$SG96179 DB	'x', 00H
	ORG $+2
$SG95728 DB	'Advanced Micro Devices, Inc.', 00H
	ORG $+3
$SG95749 DB	'Platform found : ', 00H
	ORG $+2
$SG96191 DB	'y', 00H
	ORG $+2
$SG95752 DB	'NULL platform found so Exiting Application.', 00H
$SG96203 DB	'm', 00H
	ORG $+2
$SG95758 DB	'clCreateContextFromType failed.', 00H
$SG95762 DB	'SimpleConvolution_Kernels.cl', 00H
	ORG $+3
$SG95801 DB	'Failed to load kernel file : ', 00H
	ORG $+2
$SG95807 DB	'clCreateProgramWithSource failed.', 00H
	ORG $+2
$SG96192 DB	'height', 00H
	ORG $+1
$SG96215 DB	'i', 00H
	ORG $+2
$SG95821 DB	'Failed to load flags file: ', 00H
	ORG $+4
$SG95829 DB	'Build Options are : ', 00H
	ORG $+3
$SG95831 DB	'clBuildProgram failed.', 00H
	ORG $+1
$SG95835 DB	'clGetProgramInfo(CL_PROGRAM_NUM_DEVICES) failed.', 00H
	ORG $+3
$SG96180 DB	'width', 00H
	ORG $+6
$SG95857 DB	'Number of devices found : ', 00H
	ORG $+5
$SG95861 DB	'Failed to allocate host memory.(devices)', 00H
	ORG $+3
$SG96235 DB	'CLDone', 00H
	ORG $+5
$SG95866 DB	'clGetProgramInfo(CL_PROGRAM_DEVICES) failed.', 00H
	ORG $+3
$SG95872 DB	'Failed to allocate host memory.(binarySizes)', 00H
	ORG $+3
$SG95877 DB	'clGetProgramInfo(CL_PROGRAM_BINARY_SIZES) failed.', 00H
	ORG $+6
$SG95884 DB	'Failed to allocate host memory.(binaries)', 00H
	ORG $+6
$SG95893 DB	'Failed to allocate host memory.(binaries[i])', 00H
	ORG $+3
$SG95899 DB	'clGetProgramInfo(CL_PROGRAM_BINARIES) failed.', 00H
	ORG $+2
$SG95911 DB	'clGetDeviceInfo(CL_DEVICE_NAME) failed.', 00H
$SG95913 DB	'%s binary kernel: %s', 0aH, 00H
	ORG $+2
$SG95920 DB	'Failed to load kernel file : ', 00H
	ORG $+2
$SG95923 DB	'Skipping %s since there is no binary data to write!', 0aH
	DB	00H
	ORG $+3
$SG95933 DB	'clReleaseProgram failed.', 00H
	ORG $+3
$SG96275 DB	'Output', 00H
	ORG $+5
$SG95937 DB	'clReleaseContext failed.', 00H
	ORG $+3
$SG96284 DB	'Width', 00H
	ORG $+6
$SG95955 DB	'GPU not found. Falling back to CPU device', 00H
	ORG $+6
$SG95960 DB	'clGetPlatformIDs failed.', 00H
	ORG $+3
$SG96285 DB	'Height', 00H
	ORG $+5
$SG95967 DB	'clGetPlatformIDs failed.', 00H
	ORG $+7
$SG95977 DB	'clGetPlatformInfo failed.', 00H
	ORG $+6
$SG95979 DB	'Advanced Micro Devices, Inc.', 00H
	ORG $+3
$SG95982 DB	'NULL platform found so Exiting Application.', 00H
	ORG $+4
$SG95984 DB	'sampleCommon::displayDevices() failed', 00H
	ORG $+2
$SG95989 DB	'clCreateContextFromType failed.', 00H
$SG95992 DB	'clGetContextInfo failed.', 00H
	ORG $+7
$SG95997 DB	'sampleCommon::validateDeviceId() failed', 00H
$SG96000 DB	'Failed to allocate memory (devices).', 00H
	ORG $+3
$SG96003 DB	'clGetGetContextInfo failed.', 00H
	ORG $+4
$SG96007 DB	'clCreateCommandQueue failed.', 00H
	ORG $+3
$SG96011 DB	'clCreateBuffer failed. (inputBuffer)', 00H
	ORG $+3
$SG96015 DB	'clCreateBuffer failed. (outputBuffer)', 00H
	ORG $+2
$SG96019 DB	'clCreateBuffer failed. (maskBuffer)', 00H
	ORG $+4
$SG96024 DB	'clCreateProgramWithSource failed.', 00H
	ORG $+6
$SG96030 DB	'Build Options are : ', 00H
	ORG $+3
$SG96033 DB	'clBuildProgram failed.', 00H
	ORG $+1
$SG96036 DB	'clCreateKernel failed.', 00H
	ORG $+1
$SG96040 DB	'clGetKernelWorkGroupInfo failed.', 00H
	ORG $+7
$SG96048 DB	'Out of Resources!', 00H
	ORG $+6
$SG96053 DB	'Group Size specified : ', 00H
$SG96058 DB	'Max Group Size supported on the kernel : ', 00H
	ORG $+6
$SG96063 DB	'Changing the group size to ', 00H
	ORG $+4
$SG96068 DB	'clSetKernelArg failed. (outputBuffer)', 00H
	ORG $+2
$SG96073 DB	'clSetKernelArg failed. (outputBuffer)', 00H
	ORG $+2
$SG96080 DB	'clSetKernelArg failed. (outputBuffer)', 00H
	ORG $+2
$SG96085 DB	'clSetKernelArg failed. (outputBuffer)', 00H
	ORG $+2
$SG96092 DB	'clReleaseMemObject failed.', 00H
	ORG $+5
$SG96096 DB	'clCreateBuffer failed. (inputBuffer)', 00H
	ORG $+3
$SG96101 DB	'clSetKernelArg failed. (outputBuffer)', 00H
	ORG $+2
$SG96108 DB	'clReleaseMemObject failed.', 00H
	ORG $+5
$SG96112 DB	'clCreateBuffer failed. (outputBuffer)', 00H
	ORG $+2
$SG96121 DB	'clEnqueueNDRangeKernel failed.', 00H
	ORG $+1
$SG96124 DB	'clWaitForEvents failed.', 00H
$SG96128 DB	'clEnqueueReadBuffer failed.', 00H
	ORG $+4
$SG96131 DB	'clWaitForEvents failed.', 00H
$SG96178 DB	'Memory allocation error.', 0aH, 00H
	ORG $+6
$SG96181 DB	'Width of the input matrix', 00H
	ORG $+6
$SG96190 DB	'Memory allocation error.', 0aH, 00H
	ORG $+6
$SG96193 DB	'Height of the input matrix', 00H
	ORG $+5
$SG96202 DB	'Memory allocation error.', 0aH, 00H
	ORG $+6
$SG96204 DB	'masksize', 00H
	ORG $+7
$SG96205 DB	'Width of the mask matrix', 00H
	ORG $+7
$SG96214 DB	'Memory allocation error.', 0aH, 00H
	ORG $+6
$SG96216 DB	'iterations', 00H
	ORG $+5
$SG96217 DB	'Number of iterations for kernel execution', 00H
	ORG $+6
$SG96231 DB	'setupSimpleConvoltuion', 00H
	ORG $+1
$SG96233 DB	'setupCL', 00H
$SG96254 DB	' iterations', 00H
	ORG $+4
$SG96255 DB	'Executing kernel for ', 00H
	ORG $+2
$SG96260 DB	'-------------------------------------------', 00H
	ORG $+4
$SG96286 DB	'mask Size', 00H
	ORG $+6
$SG96287 DB	'Time(sec)', 00H
	ORG $+6
$SG96288 DB	'KernelTime(sec)', 00H
$SG96320 DB	'clReleaseKernel failed.', 00H
$SG96323 DB	'clReleaseProgram failed.', 00H
	ORG $+7
$SG96326 DB	'clReleaseMemObject failed.', 00H
	ORG $+5
$SG96329 DB	'clReleaseMemObject failed.', 00H
	ORG $+5
$SG96332 DB	'clReleaseMemObject failed.', 00H
	ORG $+5
$SG96335 DB	'clReleaseCommandQueue failed.', 00H
	ORG $+2
$SG96338 DB	'clReleaseContext failed.', 00H
	ORG $+7
$SG96348 DB	'OpenCL Simple Convolution', 00H
	ORG $+6
$SG96382 DB	'OpenCL Simple Convolution', 00H
	ORG $+6
$SG96386 DB	'Running Setup', 00H
CONST	ENDS
;	COMDAT ?end@?$_Iosb@H@std@@2W4_Seekdir@12@B
CONST	SEGMENT
?end@?$_Iosb@H@std@@2W4_Seekdir@12@B DD 02H		; std::_Iosb<int>::end
CONST	ENDS
;	COMDAT ?cur@?$_Iosb@H@std@@2W4_Seekdir@12@B
CONST	SEGMENT
?cur@?$_Iosb@H@std@@2W4_Seekdir@12@B DD 01H		; std::_Iosb<int>::cur
CONST	ENDS
;	COMDAT ?beg@?$_Iosb@H@std@@2W4_Seekdir@12@B
CONST	SEGMENT
?beg@?$_Iosb@H@std@@2W4_Seekdir@12@B DD 00H		; std::_Iosb<int>::beg
CONST	ENDS
;	COMDAT ?binary@?$_Iosb@H@std@@2W4_Openmode@12@B
CONST	SEGMENT
?binary@?$_Iosb@H@std@@2W4_Openmode@12@B DD 020H	; std::_Iosb<int>::binary
CONST	ENDS
;	COMDAT ?_Noreplace@?$_Iosb@H@std@@2W4_Openmode@12@B
CONST	SEGMENT
?_Noreplace@?$_Iosb@H@std@@2W4_Openmode@12@B DD 080H	; std::_Iosb<int>::_Noreplace
CONST	ENDS
;	COMDAT ?_Nocreate@?$_Iosb@H@std@@2W4_Openmode@12@B
CONST	SEGMENT
?_Nocreate@?$_Iosb@H@std@@2W4_Openmode@12@B DD 040H	; std::_Iosb<int>::_Nocreate
CONST	ENDS
;	COMDAT ?trunc@?$_Iosb@H@std@@2W4_Openmode@12@B
CONST	SEGMENT
?trunc@?$_Iosb@H@std@@2W4_Openmode@12@B DD 010H		; std::_Iosb<int>::trunc
CONST	ENDS
;	COMDAT ?app@?$_Iosb@H@std@@2W4_Openmode@12@B
CONST	SEGMENT
?app@?$_Iosb@H@std@@2W4_Openmode@12@B DD 08H		; std::_Iosb<int>::app
CONST	ENDS
;	COMDAT ?ate@?$_Iosb@H@std@@2W4_Openmode@12@B
CONST	SEGMENT
?ate@?$_Iosb@H@std@@2W4_Openmode@12@B DD 04H		; std::_Iosb<int>::ate
CONST	ENDS
;	COMDAT ?out@?$_Iosb@H@std@@2W4_Openmode@12@B
CONST	SEGMENT
?out@?$_Iosb@H@std@@2W4_Openmode@12@B DD 02H		; std::_Iosb<int>::out
CONST	ENDS
;	COMDAT ?in@?$_Iosb@H@std@@2W4_Openmode@12@B
CONST	SEGMENT
?in@?$_Iosb@H@std@@2W4_Openmode@12@B DD 01H		; std::_Iosb<int>::in
CONST	ENDS
;	COMDAT ?_Hardfail@?$_Iosb@H@std@@2W4_Iostate@12@B
CONST	SEGMENT
?_Hardfail@?$_Iosb@H@std@@2W4_Iostate@12@B DD 010H	; std::_Iosb<int>::_Hardfail
CONST	ENDS
;	COMDAT ?badbit@?$_Iosb@H@std@@2W4_Iostate@12@B
CONST	SEGMENT
?badbit@?$_Iosb@H@std@@2W4_Iostate@12@B DD 04H		; std::_Iosb<int>::badbit
CONST	ENDS
;	COMDAT ?failbit@?$_Iosb@H@std@@2W4_Iostate@12@B
CONST	SEGMENT
?failbit@?$_Iosb@H@std@@2W4_Iostate@12@B DD 02H		; std::_Iosb<int>::failbit
CONST	ENDS
;	COMDAT ?eofbit@?$_Iosb@H@std@@2W4_Iostate@12@B
CONST	SEGMENT
?eofbit@?$_Iosb@H@std@@2W4_Iostate@12@B DD 01H		; std::_Iosb<int>::eofbit
CONST	ENDS
;	COMDAT ?goodbit@?$_Iosb@H@std@@2W4_Iostate@12@B
CONST	SEGMENT
?goodbit@?$_Iosb@H@std@@2W4_Iostate@12@B DD 00H		; std::_Iosb<int>::goodbit
CONST	ENDS
;	COMDAT ?floatfield@?$_Iosb@H@std@@2W4_Fmtflags@12@B
CONST	SEGMENT
?floatfield@?$_Iosb@H@std@@2W4_Fmtflags@12@B DD 03000H	; std::_Iosb<int>::floatfield
CONST	ENDS
;	COMDAT ?basefield@?$_Iosb@H@std@@2W4_Fmtflags@12@B
CONST	SEGMENT
?basefield@?$_Iosb@H@std@@2W4_Fmtflags@12@B DD 0e00H	; std::_Iosb<int>::basefield
CONST	ENDS
;	COMDAT ?adjustfield@?$_Iosb@H@std@@2W4_Fmtflags@12@B
CONST	SEGMENT
?adjustfield@?$_Iosb@H@std@@2W4_Fmtflags@12@B DD 01c0H	; std::_Iosb<int>::adjustfield
CONST	ENDS
;	COMDAT ?_Stdio@?$_Iosb@H@std@@2W4_Fmtflags@12@B
CONST	SEGMENT
?_Stdio@?$_Iosb@H@std@@2W4_Fmtflags@12@B DD 08000H	; std::_Iosb<int>::_Stdio
CONST	ENDS
;	COMDAT ?boolalpha@?$_Iosb@H@std@@2W4_Fmtflags@12@B
CONST	SEGMENT
?boolalpha@?$_Iosb@H@std@@2W4_Fmtflags@12@B DD 04000H	; std::_Iosb<int>::boolalpha
CONST	ENDS
;	COMDAT ?hexfloat@?$_Iosb@H@std@@2W4_Fmtflags@12@B
CONST	SEGMENT
?hexfloat@?$_Iosb@H@std@@2W4_Fmtflags@12@B DD 03000H	; std::_Iosb<int>::hexfloat
CONST	ENDS
;	COMDAT ?fixed@?$_Iosb@H@std@@2W4_Fmtflags@12@B
CONST	SEGMENT
?fixed@?$_Iosb@H@std@@2W4_Fmtflags@12@B DD 02000H	; std::_Iosb<int>::fixed
CONST	ENDS
;	COMDAT ?scientific@?$_Iosb@H@std@@2W4_Fmtflags@12@B
CONST	SEGMENT
?scientific@?$_Iosb@H@std@@2W4_Fmtflags@12@B DD 01000H	; std::_Iosb<int>::scientific
CONST	ENDS
;	COMDAT ?hex@?$_Iosb@H@std@@2W4_Fmtflags@12@B
CONST	SEGMENT
?hex@?$_Iosb@H@std@@2W4_Fmtflags@12@B DD 0800H		; std::_Iosb<int>::hex
CONST	ENDS
;	COMDAT ?oct@?$_Iosb@H@std@@2W4_Fmtflags@12@B
CONST	SEGMENT
?oct@?$_Iosb@H@std@@2W4_Fmtflags@12@B DD 0400H		; std::_Iosb<int>::oct
CONST	ENDS
;	COMDAT ?dec@?$_Iosb@H@std@@2W4_Fmtflags@12@B
CONST	SEGMENT
?dec@?$_Iosb@H@std@@2W4_Fmtflags@12@B DD 0200H		; std::_Iosb<int>::dec
CONST	ENDS
;	COMDAT ?internal@?$_Iosb@H@std@@2W4_Fmtflags@12@B
CONST	SEGMENT
?internal@?$_Iosb@H@std@@2W4_Fmtflags@12@B DD 0100H	; std::_Iosb<int>::internal
CONST	ENDS
;	COMDAT ?right@?$_Iosb@H@std@@2W4_Fmtflags@12@B
CONST	SEGMENT
?right@?$_Iosb@H@std@@2W4_Fmtflags@12@B DD 080H		; std::_Iosb<int>::right
CONST	ENDS
;	COMDAT ?left@?$_Iosb@H@std@@2W4_Fmtflags@12@B
CONST	SEGMENT
?left@?$_Iosb@H@std@@2W4_Fmtflags@12@B DD 040H		; std::_Iosb<int>::left
CONST	ENDS
;	COMDAT ?showpos@?$_Iosb@H@std@@2W4_Fmtflags@12@B
CONST	SEGMENT
?showpos@?$_Iosb@H@std@@2W4_Fmtflags@12@B DD 020H	; std::_Iosb<int>::showpos
CONST	ENDS
;	COMDAT ?showpoint@?$_Iosb@H@std@@2W4_Fmtflags@12@B
CONST	SEGMENT
?showpoint@?$_Iosb@H@std@@2W4_Fmtflags@12@B DD 010H	; std::_Iosb<int>::showpoint
CONST	ENDS
;	COMDAT ?showbase@?$_Iosb@H@std@@2W4_Fmtflags@12@B
CONST	SEGMENT
?showbase@?$_Iosb@H@std@@2W4_Fmtflags@12@B DD 08H	; std::_Iosb<int>::showbase
CONST	ENDS
;	COMDAT ?uppercase@?$_Iosb@H@std@@2W4_Fmtflags@12@B
CONST	SEGMENT
?uppercase@?$_Iosb@H@std@@2W4_Fmtflags@12@B DD 04H	; std::_Iosb<int>::uppercase
CONST	ENDS
;	COMDAT ?unitbuf@?$_Iosb@H@std@@2W4_Fmtflags@12@B
CONST	SEGMENT
?unitbuf@?$_Iosb@H@std@@2W4_Fmtflags@12@B DD 02H	; std::_Iosb<int>::unitbuf
CONST	ENDS
;	COMDAT ?skipws@?$_Iosb@H@std@@2W4_Fmtflags@12@B
CONST	SEGMENT
?skipws@?$_Iosb@H@std@@2W4_Fmtflags@12@B DD 01H		; std::_Iosb<int>::skipws
CONST	ENDS
;	COMDAT ?table_size@?$ctype@D@std@@2_KB
CONST	SEGMENT
?table_size@?$ctype@D@std@@2_KB DQ 0000000000000100H	; std::ctype<char>::table_size
CONST	ENDS
;	COMDAT ?none@?$_Locbase@H@std@@2HB
CONST	SEGMENT
?none@?$_Locbase@H@std@@2HB DD 00H			; std::_Locbase<int>::none
CONST	ENDS
;	COMDAT ?all@?$_Locbase@H@std@@2HB
CONST	SEGMENT
?all@?$_Locbase@H@std@@2HB DD 03fH			; std::_Locbase<int>::all
CONST	ENDS
;	COMDAT ?messages@?$_Locbase@H@std@@2HB
CONST	SEGMENT
?messages@?$_Locbase@H@std@@2HB DD 020H			; std::_Locbase<int>::messages
CONST	ENDS
;	COMDAT ?time@?$_Locbase@H@std@@2HB
CONST	SEGMENT
?time@?$_Locbase@H@std@@2HB DD 010H			; std::_Locbase<int>::time
CONST	ENDS
;	COMDAT ?numeric@?$_Locbase@H@std@@2HB
CONST	SEGMENT
?numeric@?$_Locbase@H@std@@2HB DD 08H			; std::_Locbase<int>::numeric
CONST	ENDS
;	COMDAT ?monetary@?$_Locbase@H@std@@2HB
CONST	SEGMENT
?monetary@?$_Locbase@H@std@@2HB DD 04H			; std::_Locbase<int>::monetary
CONST	ENDS
;	COMDAT ?ctype@?$_Locbase@H@std@@2HB
CONST	SEGMENT
?ctype@?$_Locbase@H@std@@2HB DD 02H			; std::_Locbase<int>::ctype
CONST	ENDS
;	COMDAT ?collate@?$_Locbase@H@std@@2HB
CONST	SEGMENT
?collate@?$_Locbase@H@std@@2HB DD 01H			; std::_Locbase<int>::collate
CONST	ENDS
;	COMDAT ?_Rank@?$_Arithmetic_traits@O@std@@2HB
CONST	SEGMENT
?_Rank@?$_Arithmetic_traits@O@std@@2HB DD 09H		; std::_Arithmetic_traits<long double>::_Rank
CONST	ENDS
;	COMDAT ?_Rank@?$_Arithmetic_traits@N@std@@2HB
CONST	SEGMENT
?_Rank@?$_Arithmetic_traits@N@std@@2HB DD 08H		; std::_Arithmetic_traits<double>::_Rank
CONST	ENDS
;	COMDAT ?_Rank@?$_Arithmetic_traits@M@std@@2HB
CONST	SEGMENT
?_Rank@?$_Arithmetic_traits@M@std@@2HB DD 07H		; std::_Arithmetic_traits<float>::_Rank
CONST	ENDS
;	COMDAT ?_Rank@?$_Arithmetic_traits@_K@std@@2HB
CONST	SEGMENT
?_Rank@?$_Arithmetic_traits@_K@std@@2HB DD 06H		; std::_Arithmetic_traits<unsigned __int64>::_Rank
CONST	ENDS
;	COMDAT ?_Rank@?$_Arithmetic_traits@_J@std@@2HB
CONST	SEGMENT
?_Rank@?$_Arithmetic_traits@_J@std@@2HB DD 06H		; std::_Arithmetic_traits<__int64>::_Rank
CONST	ENDS
;	COMDAT ?_Rank@?$_Arithmetic_traits@K@std@@2HB
CONST	SEGMENT
?_Rank@?$_Arithmetic_traits@K@std@@2HB DD 05H		; std::_Arithmetic_traits<unsigned long>::_Rank
CONST	ENDS
;	COMDAT ?_Rank@?$_Arithmetic_traits@J@std@@2HB
CONST	SEGMENT
?_Rank@?$_Arithmetic_traits@J@std@@2HB DD 05H		; std::_Arithmetic_traits<long>::_Rank
CONST	ENDS
;	COMDAT ?_Rank@?$_Arithmetic_traits@I@std@@2HB
CONST	SEGMENT
?_Rank@?$_Arithmetic_traits@I@std@@2HB DD 04H		; std::_Arithmetic_traits<unsigned int>::_Rank
CONST	ENDS
;	COMDAT ?_Rank@?$_Arithmetic_traits@H@std@@2HB
CONST	SEGMENT
?_Rank@?$_Arithmetic_traits@H@std@@2HB DD 04H		; std::_Arithmetic_traits<int>::_Rank
CONST	ENDS
;	COMDAT ?_Rank@?$_Arithmetic_traits@G@std@@2HB
CONST	SEGMENT
?_Rank@?$_Arithmetic_traits@G@std@@2HB DD 03H		; std::_Arithmetic_traits<unsigned short>::_Rank
CONST	ENDS
;	COMDAT ?_Rank@?$_Arithmetic_traits@F@std@@2HB
CONST	SEGMENT
?_Rank@?$_Arithmetic_traits@F@std@@2HB DD 03H		; std::_Arithmetic_traits<short>::_Rank
CONST	ENDS
;	COMDAT ?_Rank@?$_Arithmetic_traits@E@std@@2HB
CONST	SEGMENT
?_Rank@?$_Arithmetic_traits@E@std@@2HB DD 02H		; std::_Arithmetic_traits<unsigned char>::_Rank
CONST	ENDS
;	COMDAT ?_Rank@?$_Arithmetic_traits@C@std@@2HB
CONST	SEGMENT
?_Rank@?$_Arithmetic_traits@C@std@@2HB DD 02H		; std::_Arithmetic_traits<signed char>::_Rank
CONST	ENDS
;	COMDAT ?_Rank@?$_Arithmetic_traits@D@std@@2HB
CONST	SEGMENT
?_Rank@?$_Arithmetic_traits@D@std@@2HB DD 02H		; std::_Arithmetic_traits<char>::_Rank
CONST	ENDS
;	COMDAT ?_Rank@?$_Arithmetic_traits@_N@std@@2HB
CONST	SEGMENT
?_Rank@?$_Arithmetic_traits@_N@std@@2HB DD 01H		; std::_Arithmetic_traits<bool>::_Rank
CONST	ENDS
;	COMDAT ?value@?$integral_constant@_K$0A@@tr1@std@@2_KB
CONST	SEGMENT
?value@?$integral_constant@_K$0A@@tr1@std@@2_KB DQ 0000000000000000H ; std::tr1::integral_constant<unsigned __int64,0>::value
CONST	ENDS
;	COMDAT ?value@?$integral_constant@_N$00@tr1@std@@2_NB
CONST	SEGMENT
?value@?$integral_constant@_N$00@tr1@std@@2_NB DB 01H	; std::tr1::integral_constant<bool,1>::value
CONST	ENDS
;	COMDAT ?value@?$integral_constant@_N$0A@@tr1@std@@2_NB
CONST	SEGMENT
?value@?$integral_constant@_N$0A@@tr1@std@@2_NB DB 00H	; std::tr1::integral_constant<bool,0>::value
CONST	ENDS
;	COMDAT ?min_exponent10@?$numeric_limits@O@std@@2HB
CONST	SEGMENT
?min_exponent10@?$numeric_limits@O@std@@2HB DD 0fffffecdH ; std::numeric_limits<long double>::min_exponent10
CONST	ENDS
;	COMDAT ?min_exponent@?$numeric_limits@O@std@@2HB
CONST	SEGMENT
?min_exponent@?$numeric_limits@O@std@@2HB DD 0fffffc03H	; std::numeric_limits<long double>::min_exponent
CONST	ENDS
;	COMDAT ?max_exponent10@?$numeric_limits@O@std@@2HB
CONST	SEGMENT
?max_exponent10@?$numeric_limits@O@std@@2HB DD 0134H	; std::numeric_limits<long double>::max_exponent10
CONST	ENDS
;	COMDAT ?max_exponent@?$numeric_limits@O@std@@2HB
CONST	SEGMENT
?max_exponent@?$numeric_limits@O@std@@2HB DD 0400H	; std::numeric_limits<long double>::max_exponent
CONST	ENDS
;	COMDAT ?max_digits10@?$numeric_limits@O@std@@2HB
CONST	SEGMENT
?max_digits10@?$numeric_limits@O@std@@2HB DD 011H	; std::numeric_limits<long double>::max_digits10
CONST	ENDS
;	COMDAT ?digits10@?$numeric_limits@O@std@@2HB
CONST	SEGMENT
?digits10@?$numeric_limits@O@std@@2HB DD 0fH		; std::numeric_limits<long double>::digits10
CONST	ENDS
;	COMDAT ?digits@?$numeric_limits@O@std@@2HB
CONST	SEGMENT
?digits@?$numeric_limits@O@std@@2HB DD 035H		; std::numeric_limits<long double>::digits
CONST	ENDS
;	COMDAT ?min_exponent10@?$numeric_limits@N@std@@2HB
CONST	SEGMENT
?min_exponent10@?$numeric_limits@N@std@@2HB DD 0fffffecdH ; std::numeric_limits<double>::min_exponent10
CONST	ENDS
;	COMDAT ?min_exponent@?$numeric_limits@N@std@@2HB
CONST	SEGMENT
?min_exponent@?$numeric_limits@N@std@@2HB DD 0fffffc03H	; std::numeric_limits<double>::min_exponent
CONST	ENDS
;	COMDAT ?max_exponent10@?$numeric_limits@N@std@@2HB
CONST	SEGMENT
?max_exponent10@?$numeric_limits@N@std@@2HB DD 0134H	; std::numeric_limits<double>::max_exponent10
CONST	ENDS
;	COMDAT ?max_exponent@?$numeric_limits@N@std@@2HB
CONST	SEGMENT
?max_exponent@?$numeric_limits@N@std@@2HB DD 0400H	; std::numeric_limits<double>::max_exponent
CONST	ENDS
;	COMDAT ?max_digits10@?$numeric_limits@N@std@@2HB
CONST	SEGMENT
?max_digits10@?$numeric_limits@N@std@@2HB DD 011H	; std::numeric_limits<double>::max_digits10
CONST	ENDS
;	COMDAT ?digits10@?$numeric_limits@N@std@@2HB
CONST	SEGMENT
?digits10@?$numeric_limits@N@std@@2HB DD 0fH		; std::numeric_limits<double>::digits10
CONST	ENDS
;	COMDAT ?digits@?$numeric_limits@N@std@@2HB
CONST	SEGMENT
?digits@?$numeric_limits@N@std@@2HB DD 035H		; std::numeric_limits<double>::digits
CONST	ENDS
;	COMDAT ?min_exponent10@?$numeric_limits@M@std@@2HB
CONST	SEGMENT
?min_exponent10@?$numeric_limits@M@std@@2HB DD 0ffffffdbH ; std::numeric_limits<float>::min_exponent10
CONST	ENDS
;	COMDAT ?min_exponent@?$numeric_limits@M@std@@2HB
CONST	SEGMENT
?min_exponent@?$numeric_limits@M@std@@2HB DD 0ffffff83H	; std::numeric_limits<float>::min_exponent
CONST	ENDS
;	COMDAT ?max_exponent10@?$numeric_limits@M@std@@2HB
CONST	SEGMENT
?max_exponent10@?$numeric_limits@M@std@@2HB DD 026H	; std::numeric_limits<float>::max_exponent10
CONST	ENDS
;	COMDAT ?max_exponent@?$numeric_limits@M@std@@2HB
CONST	SEGMENT
?max_exponent@?$numeric_limits@M@std@@2HB DD 080H	; std::numeric_limits<float>::max_exponent
CONST	ENDS
;	COMDAT ?max_digits10@?$numeric_limits@M@std@@2HB
CONST	SEGMENT
?max_digits10@?$numeric_limits@M@std@@2HB DD 08H	; std::numeric_limits<float>::max_digits10
CONST	ENDS
;	COMDAT ?digits10@?$numeric_limits@M@std@@2HB
CONST	SEGMENT
?digits10@?$numeric_limits@M@std@@2HB DD 06H		; std::numeric_limits<float>::digits10
CONST	ENDS
;	COMDAT ?digits@?$numeric_limits@M@std@@2HB
CONST	SEGMENT
?digits@?$numeric_limits@M@std@@2HB DD 018H		; std::numeric_limits<float>::digits
CONST	ENDS
;	COMDAT ?max_digits10@?$numeric_limits@_K@std@@2HB
CONST	SEGMENT
?max_digits10@?$numeric_limits@_K@std@@2HB DD 015H	; std::numeric_limits<unsigned __int64>::max_digits10
CONST	ENDS
;	COMDAT ?digits10@?$numeric_limits@_K@std@@2HB
CONST	SEGMENT
?digits10@?$numeric_limits@_K@std@@2HB DD 013H		; std::numeric_limits<unsigned __int64>::digits10
CONST	ENDS
;	COMDAT ?digits@?$numeric_limits@_K@std@@2HB
CONST	SEGMENT
?digits@?$numeric_limits@_K@std@@2HB DD 040H		; std::numeric_limits<unsigned __int64>::digits
CONST	ENDS
;	COMDAT ?is_signed@?$numeric_limits@_K@std@@2_NB
CONST	SEGMENT
?is_signed@?$numeric_limits@_K@std@@2_NB DB 00H		; std::numeric_limits<unsigned __int64>::is_signed
CONST	ENDS
;	COMDAT ?max_digits10@?$numeric_limits@_J@std@@2HB
CONST	SEGMENT
?max_digits10@?$numeric_limits@_J@std@@2HB DD 014H	; std::numeric_limits<__int64>::max_digits10
CONST	ENDS
;	COMDAT ?digits10@?$numeric_limits@_J@std@@2HB
CONST	SEGMENT
?digits10@?$numeric_limits@_J@std@@2HB DD 012H		; std::numeric_limits<__int64>::digits10
CONST	ENDS
;	COMDAT ?digits@?$numeric_limits@_J@std@@2HB
CONST	SEGMENT
?digits@?$numeric_limits@_J@std@@2HB DD 03fH		; std::numeric_limits<__int64>::digits
CONST	ENDS
;	COMDAT ?is_signed@?$numeric_limits@_J@std@@2_NB
CONST	SEGMENT
?is_signed@?$numeric_limits@_J@std@@2_NB DB 01H		; std::numeric_limits<__int64>::is_signed
CONST	ENDS
;	COMDAT ?max_digits10@?$numeric_limits@K@std@@2HB
CONST	SEGMENT
?max_digits10@?$numeric_limits@K@std@@2HB DD 0bH	; std::numeric_limits<unsigned long>::max_digits10
CONST	ENDS
;	COMDAT ?digits10@?$numeric_limits@K@std@@2HB
CONST	SEGMENT
?digits10@?$numeric_limits@K@std@@2HB DD 09H		; std::numeric_limits<unsigned long>::digits10
CONST	ENDS
;	COMDAT ?digits@?$numeric_limits@K@std@@2HB
CONST	SEGMENT
?digits@?$numeric_limits@K@std@@2HB DD 020H		; std::numeric_limits<unsigned long>::digits
CONST	ENDS
;	COMDAT ?is_signed@?$numeric_limits@K@std@@2_NB
CONST	SEGMENT
?is_signed@?$numeric_limits@K@std@@2_NB DB 00H		; std::numeric_limits<unsigned long>::is_signed
CONST	ENDS
;	COMDAT ?max_digits10@?$numeric_limits@J@std@@2HB
CONST	SEGMENT
?max_digits10@?$numeric_limits@J@std@@2HB DD 0bH	; std::numeric_limits<long>::max_digits10
CONST	ENDS
;	COMDAT ?digits10@?$numeric_limits@J@std@@2HB
CONST	SEGMENT
?digits10@?$numeric_limits@J@std@@2HB DD 09H		; std::numeric_limits<long>::digits10
CONST	ENDS
;	COMDAT ?digits@?$numeric_limits@J@std@@2HB
CONST	SEGMENT
?digits@?$numeric_limits@J@std@@2HB DD 01fH		; std::numeric_limits<long>::digits
CONST	ENDS
;	COMDAT ?is_signed@?$numeric_limits@J@std@@2_NB
CONST	SEGMENT
?is_signed@?$numeric_limits@J@std@@2_NB DB 01H		; std::numeric_limits<long>::is_signed
CONST	ENDS
;	COMDAT ?max_digits10@?$numeric_limits@I@std@@2HB
CONST	SEGMENT
?max_digits10@?$numeric_limits@I@std@@2HB DD 0bH	; std::numeric_limits<unsigned int>::max_digits10
CONST	ENDS
;	COMDAT ?digits10@?$numeric_limits@I@std@@2HB
CONST	SEGMENT
?digits10@?$numeric_limits@I@std@@2HB DD 09H		; std::numeric_limits<unsigned int>::digits10
CONST	ENDS
;	COMDAT ?digits@?$numeric_limits@I@std@@2HB
CONST	SEGMENT
?digits@?$numeric_limits@I@std@@2HB DD 020H		; std::numeric_limits<unsigned int>::digits
CONST	ENDS
;	COMDAT ?is_signed@?$numeric_limits@I@std@@2_NB
CONST	SEGMENT
?is_signed@?$numeric_limits@I@std@@2_NB DB 00H		; std::numeric_limits<unsigned int>::is_signed
CONST	ENDS
;	COMDAT ?max_digits10@?$numeric_limits@H@std@@2HB
CONST	SEGMENT
?max_digits10@?$numeric_limits@H@std@@2HB DD 0bH	; std::numeric_limits<int>::max_digits10
CONST	ENDS
;	COMDAT ?digits10@?$numeric_limits@H@std@@2HB
CONST	SEGMENT
?digits10@?$numeric_limits@H@std@@2HB DD 09H		; std::numeric_limits<int>::digits10
CONST	ENDS
;	COMDAT ?digits@?$numeric_limits@H@std@@2HB
CONST	SEGMENT
?digits@?$numeric_limits@H@std@@2HB DD 01fH		; std::numeric_limits<int>::digits
CONST	ENDS
;	COMDAT ?is_signed@?$numeric_limits@H@std@@2_NB
CONST	SEGMENT
?is_signed@?$numeric_limits@H@std@@2_NB DB 01H		; std::numeric_limits<int>::is_signed
CONST	ENDS
;	COMDAT ?max_digits10@?$numeric_limits@G@std@@2HB
CONST	SEGMENT
?max_digits10@?$numeric_limits@G@std@@2HB DD 06H	; std::numeric_limits<unsigned short>::max_digits10
CONST	ENDS
;	COMDAT ?digits10@?$numeric_limits@G@std@@2HB
CONST	SEGMENT
?digits10@?$numeric_limits@G@std@@2HB DD 04H		; std::numeric_limits<unsigned short>::digits10
CONST	ENDS
;	COMDAT ?digits@?$numeric_limits@G@std@@2HB
CONST	SEGMENT
?digits@?$numeric_limits@G@std@@2HB DD 010H		; std::numeric_limits<unsigned short>::digits
CONST	ENDS
;	COMDAT ?is_signed@?$numeric_limits@G@std@@2_NB
CONST	SEGMENT
?is_signed@?$numeric_limits@G@std@@2_NB DB 00H		; std::numeric_limits<unsigned short>::is_signed
CONST	ENDS
;	COMDAT ?max_digits10@?$numeric_limits@F@std@@2HB
CONST	SEGMENT
?max_digits10@?$numeric_limits@F@std@@2HB DD 06H	; std::numeric_limits<short>::max_digits10
CONST	ENDS
;	COMDAT ?digits10@?$numeric_limits@F@std@@2HB
CONST	SEGMENT
?digits10@?$numeric_limits@F@std@@2HB DD 04H		; std::numeric_limits<short>::digits10
CONST	ENDS
;	COMDAT ?digits@?$numeric_limits@F@std@@2HB
CONST	SEGMENT
?digits@?$numeric_limits@F@std@@2HB DD 0fH		; std::numeric_limits<short>::digits
CONST	ENDS
;	COMDAT ?is_signed@?$numeric_limits@F@std@@2_NB
CONST	SEGMENT
?is_signed@?$numeric_limits@F@std@@2_NB DB 01H		; std::numeric_limits<short>::is_signed
CONST	ENDS
;	COMDAT ?max_digits10@?$numeric_limits@E@std@@2HB
CONST	SEGMENT
?max_digits10@?$numeric_limits@E@std@@2HB DD 04H	; std::numeric_limits<unsigned char>::max_digits10
CONST	ENDS
;	COMDAT ?digits10@?$numeric_limits@E@std@@2HB
CONST	SEGMENT
?digits10@?$numeric_limits@E@std@@2HB DD 02H		; std::numeric_limits<unsigned char>::digits10
CONST	ENDS
;	COMDAT ?digits@?$numeric_limits@E@std@@2HB
CONST	SEGMENT
?digits@?$numeric_limits@E@std@@2HB DD 08H		; std::numeric_limits<unsigned char>::digits
CONST	ENDS
;	COMDAT ?is_signed@?$numeric_limits@E@std@@2_NB
CONST	SEGMENT
?is_signed@?$numeric_limits@E@std@@2_NB DB 00H		; std::numeric_limits<unsigned char>::is_signed
CONST	ENDS
;	COMDAT ?max_digits10@?$numeric_limits@C@std@@2HB
CONST	SEGMENT
?max_digits10@?$numeric_limits@C@std@@2HB DD 04H	; std::numeric_limits<signed char>::max_digits10
CONST	ENDS
;	COMDAT ?digits10@?$numeric_limits@C@std@@2HB
CONST	SEGMENT
?digits10@?$numeric_limits@C@std@@2HB DD 02H		; std::numeric_limits<signed char>::digits10
CONST	ENDS
;	COMDAT ?digits@?$numeric_limits@C@std@@2HB
CONST	SEGMENT
?digits@?$numeric_limits@C@std@@2HB DD 07H		; std::numeric_limits<signed char>::digits
CONST	ENDS
;	COMDAT ?is_signed@?$numeric_limits@C@std@@2_NB
CONST	SEGMENT
?is_signed@?$numeric_limits@C@std@@2_NB DB 01H		; std::numeric_limits<signed char>::is_signed
CONST	ENDS
;	COMDAT ?max_digits10@?$numeric_limits@_N@std@@2HB
CONST	SEGMENT
?max_digits10@?$numeric_limits@_N@std@@2HB DD 00H	; std::numeric_limits<bool>::max_digits10
CONST	ENDS
;	COMDAT ?digits10@?$numeric_limits@_N@std@@2HB
CONST	SEGMENT
?digits10@?$numeric_limits@_N@std@@2HB DD 00H		; std::numeric_limits<bool>::digits10
CONST	ENDS
;	COMDAT ?digits@?$numeric_limits@_N@std@@2HB
CONST	SEGMENT
?digits@?$numeric_limits@_N@std@@2HB DD 01H		; std::numeric_limits<bool>::digits
CONST	ENDS
;	COMDAT ?is_signed@?$numeric_limits@_N@std@@2_NB
CONST	SEGMENT
?is_signed@?$numeric_limits@_N@std@@2_NB DB 00H		; std::numeric_limits<bool>::is_signed
CONST	ENDS
;	COMDAT ?is_modulo@?$numeric_limits@_N@std@@2_NB
CONST	SEGMENT
?is_modulo@?$numeric_limits@_N@std@@2_NB DB 00H		; std::numeric_limits<bool>::is_modulo
CONST	ENDS
;	COMDAT ?max_digits10@?$numeric_limits@_W@std@@2HB
CONST	SEGMENT
?max_digits10@?$numeric_limits@_W@std@@2HB DD 06H	; std::numeric_limits<wchar_t>::max_digits10
CONST	ENDS
;	COMDAT ?digits10@?$numeric_limits@_W@std@@2HB
CONST	SEGMENT
?digits10@?$numeric_limits@_W@std@@2HB DD 04H		; std::numeric_limits<wchar_t>::digits10
CONST	ENDS
;	COMDAT ?digits@?$numeric_limits@_W@std@@2HB
CONST	SEGMENT
?digits@?$numeric_limits@_W@std@@2HB DD 010H		; std::numeric_limits<wchar_t>::digits
CONST	ENDS
;	COMDAT ?is_signed@?$numeric_limits@_W@std@@2_NB
CONST	SEGMENT
?is_signed@?$numeric_limits@_W@std@@2_NB DB 00H		; std::numeric_limits<wchar_t>::is_signed
CONST	ENDS
;	COMDAT ?max_digits10@?$numeric_limits@D@std@@2HB
CONST	SEGMENT
?max_digits10@?$numeric_limits@D@std@@2HB DD 04H	; std::numeric_limits<char>::max_digits10
CONST	ENDS
;	COMDAT ?digits10@?$numeric_limits@D@std@@2HB
CONST	SEGMENT
?digits10@?$numeric_limits@D@std@@2HB DD 02H		; std::numeric_limits<char>::digits10
CONST	ENDS
;	COMDAT ?digits@?$numeric_limits@D@std@@2HB
CONST	SEGMENT
?digits@?$numeric_limits@D@std@@2HB DD 07H		; std::numeric_limits<char>::digits
CONST	ENDS
;	COMDAT ?is_signed@?$numeric_limits@D@std@@2_NB
CONST	SEGMENT
?is_signed@?$numeric_limits@D@std@@2_NB DB 01H		; std::numeric_limits<char>::is_signed
CONST	ENDS
;	COMDAT ?radix@_Num_float_base@std@@2HB
CONST	SEGMENT
?radix@_Num_float_base@std@@2HB DD 02H			; std::_Num_float_base::radix
CONST	ENDS
;	COMDAT ?round_style@_Num_float_base@std@@2W4float_round_style@2@B
CONST	SEGMENT
?round_style@_Num_float_base@std@@2W4float_round_style@2@B DD 01H ; std::_Num_float_base::round_style
CONST	ENDS
;	COMDAT ?traps@_Num_float_base@std@@2_NB
CONST	SEGMENT
?traps@_Num_float_base@std@@2_NB DB 01H			; std::_Num_float_base::traps
CONST	ENDS
;	COMDAT ?tinyness_before@_Num_float_base@std@@2_NB
CONST	SEGMENT
?tinyness_before@_Num_float_base@std@@2_NB DB 01H	; std::_Num_float_base::tinyness_before
CONST	ENDS
;	COMDAT ?is_specialized@_Num_float_base@std@@2_NB
CONST	SEGMENT
?is_specialized@_Num_float_base@std@@2_NB DB 01H	; std::_Num_float_base::is_specialized
CONST	ENDS
;	COMDAT ?is_signed@_Num_float_base@std@@2_NB
CONST	SEGMENT
?is_signed@_Num_float_base@std@@2_NB DB 01H		; std::_Num_float_base::is_signed
CONST	ENDS
;	COMDAT ?is_modulo@_Num_float_base@std@@2_NB
CONST	SEGMENT
?is_modulo@_Num_float_base@std@@2_NB DB 00H		; std::_Num_float_base::is_modulo
CONST	ENDS
;	COMDAT ?is_integer@_Num_float_base@std@@2_NB
CONST	SEGMENT
?is_integer@_Num_float_base@std@@2_NB DB 00H		; std::_Num_float_base::is_integer
CONST	ENDS
;	COMDAT ?is_iec559@_Num_float_base@std@@2_NB
CONST	SEGMENT
?is_iec559@_Num_float_base@std@@2_NB DB 01H		; std::_Num_float_base::is_iec559
CONST	ENDS
;	COMDAT ?is_exact@_Num_float_base@std@@2_NB
CONST	SEGMENT
?is_exact@_Num_float_base@std@@2_NB DB 00H		; std::_Num_float_base::is_exact
CONST	ENDS
;	COMDAT ?is_bounded@_Num_float_base@std@@2_NB
CONST	SEGMENT
?is_bounded@_Num_float_base@std@@2_NB DB 01H		; std::_Num_float_base::is_bounded
CONST	ENDS
;	COMDAT ?has_signaling_NaN@_Num_float_base@std@@2_NB
CONST	SEGMENT
?has_signaling_NaN@_Num_float_base@std@@2_NB DB 01H	; std::_Num_float_base::has_signaling_NaN
CONST	ENDS
;	COMDAT ?has_quiet_NaN@_Num_float_base@std@@2_NB
CONST	SEGMENT
?has_quiet_NaN@_Num_float_base@std@@2_NB DB 01H		; std::_Num_float_base::has_quiet_NaN
CONST	ENDS
;	COMDAT ?has_infinity@_Num_float_base@std@@2_NB
CONST	SEGMENT
?has_infinity@_Num_float_base@std@@2_NB DB 01H		; std::_Num_float_base::has_infinity
CONST	ENDS
;	COMDAT ?has_denorm_loss@_Num_float_base@std@@2_NB
CONST	SEGMENT
?has_denorm_loss@_Num_float_base@std@@2_NB DB 01H	; std::_Num_float_base::has_denorm_loss
CONST	ENDS
;	COMDAT ?has_denorm@_Num_float_base@std@@2W4float_denorm_style@2@B
CONST	SEGMENT
?has_denorm@_Num_float_base@std@@2W4float_denorm_style@2@B DD 01H ; std::_Num_float_base::has_denorm
CONST	ENDS
;	COMDAT ?radix@_Num_int_base@std@@2HB
CONST	SEGMENT
?radix@_Num_int_base@std@@2HB DD 02H			; std::_Num_int_base::radix
CONST	ENDS
;	COMDAT ?is_specialized@_Num_int_base@std@@2_NB
CONST	SEGMENT
?is_specialized@_Num_int_base@std@@2_NB DB 01H		; std::_Num_int_base::is_specialized
CONST	ENDS
;	COMDAT ?is_modulo@_Num_int_base@std@@2_NB
CONST	SEGMENT
?is_modulo@_Num_int_base@std@@2_NB DB 01H		; std::_Num_int_base::is_modulo
CONST	ENDS
;	COMDAT ?is_integer@_Num_int_base@std@@2_NB
CONST	SEGMENT
?is_integer@_Num_int_base@std@@2_NB DB 01H		; std::_Num_int_base::is_integer
CONST	ENDS
;	COMDAT ?is_exact@_Num_int_base@std@@2_NB
CONST	SEGMENT
?is_exact@_Num_int_base@std@@2_NB DB 01H		; std::_Num_int_base::is_exact
CONST	ENDS
;	COMDAT ?is_bounded@_Num_int_base@std@@2_NB
CONST	SEGMENT
?is_bounded@_Num_int_base@std@@2_NB DB 01H		; std::_Num_int_base::is_bounded
CONST	ENDS
;	COMDAT ?radix@_Num_base@std@@2HB
CONST	SEGMENT
?radix@_Num_base@std@@2HB DD 00H			; std::_Num_base::radix
CONST	ENDS
;	COMDAT ?min_exponent10@_Num_base@std@@2HB
CONST	SEGMENT
?min_exponent10@_Num_base@std@@2HB DD 00H		; std::_Num_base::min_exponent10
CONST	ENDS
;	COMDAT ?min_exponent@_Num_base@std@@2HB
CONST	SEGMENT
?min_exponent@_Num_base@std@@2HB DD 00H			; std::_Num_base::min_exponent
CONST	ENDS
;	COMDAT ?max_exponent10@_Num_base@std@@2HB
CONST	SEGMENT
?max_exponent10@_Num_base@std@@2HB DD 00H		; std::_Num_base::max_exponent10
CONST	ENDS
;	COMDAT ?max_exponent@_Num_base@std@@2HB
CONST	SEGMENT
?max_exponent@_Num_base@std@@2HB DD 00H			; std::_Num_base::max_exponent
CONST	ENDS
;	COMDAT ?max_digits10@_Num_base@std@@2HB
CONST	SEGMENT
?max_digits10@_Num_base@std@@2HB DD 00H			; std::_Num_base::max_digits10
CONST	ENDS
;	COMDAT ?digits10@_Num_base@std@@2HB
CONST	SEGMENT
?digits10@_Num_base@std@@2HB DD 00H			; std::_Num_base::digits10
CONST	ENDS
;	COMDAT ?digits@_Num_base@std@@2HB
CONST	SEGMENT
?digits@_Num_base@std@@2HB DD 00H			; std::_Num_base::digits
CONST	ENDS
;	COMDAT ?round_style@_Num_base@std@@2W4float_round_style@2@B
CONST	SEGMENT
?round_style@_Num_base@std@@2W4float_round_style@2@B DD 00H ; std::_Num_base::round_style
CONST	ENDS
;	COMDAT ?traps@_Num_base@std@@2_NB
CONST	SEGMENT
?traps@_Num_base@std@@2_NB DB 00H			; std::_Num_base::traps
CONST	ENDS
;	COMDAT ?tinyness_before@_Num_base@std@@2_NB
CONST	SEGMENT
?tinyness_before@_Num_base@std@@2_NB DB 00H		; std::_Num_base::tinyness_before
CONST	ENDS
;	COMDAT ?is_specialized@_Num_base@std@@2_NB
CONST	SEGMENT
?is_specialized@_Num_base@std@@2_NB DB 00H		; std::_Num_base::is_specialized
CONST	ENDS
;	COMDAT ?is_signed@_Num_base@std@@2_NB
CONST	SEGMENT
?is_signed@_Num_base@std@@2_NB DB 00H			; std::_Num_base::is_signed
CONST	ENDS
;	COMDAT ?is_modulo@_Num_base@std@@2_NB
CONST	SEGMENT
?is_modulo@_Num_base@std@@2_NB DB 00H			; std::_Num_base::is_modulo
CONST	ENDS
;	COMDAT ?is_integer@_Num_base@std@@2_NB
CONST	SEGMENT
?is_integer@_Num_base@std@@2_NB DB 00H			; std::_Num_base::is_integer
CONST	ENDS
;	COMDAT ?is_iec559@_Num_base@std@@2_NB
CONST	SEGMENT
?is_iec559@_Num_base@std@@2_NB DB 00H			; std::_Num_base::is_iec559
CONST	ENDS
;	COMDAT ?is_exact@_Num_base@std@@2_NB
CONST	SEGMENT
?is_exact@_Num_base@std@@2_NB DB 00H			; std::_Num_base::is_exact
CONST	ENDS
;	COMDAT ?is_bounded@_Num_base@std@@2_NB
CONST	SEGMENT
?is_bounded@_Num_base@std@@2_NB DB 00H			; std::_Num_base::is_bounded
CONST	ENDS
;	COMDAT ?has_signaling_NaN@_Num_base@std@@2_NB
CONST	SEGMENT
?has_signaling_NaN@_Num_base@std@@2_NB DB 00H		; std::_Num_base::has_signaling_NaN
CONST	ENDS
;	COMDAT ?has_quiet_NaN@_Num_base@std@@2_NB
CONST	SEGMENT
?has_quiet_NaN@_Num_base@std@@2_NB DB 00H		; std::_Num_base::has_quiet_NaN
CONST	ENDS
;	COMDAT ?has_infinity@_Num_base@std@@2_NB
CONST	SEGMENT
?has_infinity@_Num_base@std@@2_NB DB 00H		; std::_Num_base::has_infinity
CONST	ENDS
;	COMDAT ?has_denorm_loss@_Num_base@std@@2_NB
CONST	SEGMENT
?has_denorm_loss@_Num_base@std@@2_NB DB 00H		; std::_Num_base::has_denorm_loss
CONST	ENDS
;	COMDAT ?has_denorm@_Num_base@std@@2W4float_denorm_style@2@B
CONST	SEGMENT
?has_denorm@_Num_base@std@@2W4float_denorm_style@2@B DD 00H ; std::_Num_base::has_denorm
CONST	ENDS
PUBLIC	??$?6U?$char_traits@D@std@@@std@@YAAEAV?$basic_ostream@DU?$char_traits@D@std@@@0@AEAV10@PEBD@Z ; std::operator<<<std::char_traits<char> >
PUBLIC	?setupSimpleConvolution@SimpleConvolution@@QEAAHXZ ; SimpleConvolution::setupSimpleConvolution
EXTRN	?cout@std@@3V?$basic_ostream@DU?$char_traits@D@std@@@1@A:BYTE ; std::cout
EXTRN	_RTC_Shutdown:PROC
EXTRN	_RTC_InitBase:PROC
pdata	SEGMENT
$pdata$?setupSimpleConvolution@SimpleConvolution@@QEAAHXZ DD imagerel $LN3
	DD	imagerel $LN3+76
	DD	imagerel $unwind$?setupSimpleConvolution@SimpleConvolution@@QEAAHXZ
pdata	ENDS
xdata	SEGMENT
$unwind$?setupSimpleConvolution@SimpleConvolution@@QEAAHXZ DD 021e01H
	DD	07006320aH
xdata	ENDS
;	COMDAT rtc$TMZ
; File c:\users\bashc\documents\amd app\samples\opencl\cl\app\simpleconvolution - copy\simpleconvolution.cpp
rtc$TMZ	SEGMENT
_RTC_Shutdown.rtc$TMZ DQ FLAT:_RTC_Shutdown
rtc$TMZ	ENDS
;	COMDAT rtc$IMZ
rtc$IMZ	SEGMENT
_RTC_InitBase.rtc$IMZ DQ FLAT:_RTC_InitBase
; Function compile flags: /Odtp /RTCsu
rtc$IMZ	ENDS
_TEXT	SEGMENT
this$ = 48
?setupSimpleConvolution@SimpleConvolution@@QEAAHXZ PROC	; SimpleConvolution::setupSimpleConvolution
; Line 96
$LN3:
	mov	QWORD PTR [rsp+8], rcx
	push	rdi
	sub	rsp, 32					; 00000020H
	mov	rdi, rsp
	mov	ecx, 8
	mov	eax, -858993460				; ccccccccH
	rep stosd
	mov	rcx, QWORD PTR [rsp+48]
; Line 131
	lea	rdx, OFFSET FLAT:$SG95695
	lea	rcx, OFFSET FLAT:?cout@std@@3V?$basic_ostream@DU?$char_traits@D@std@@@1@A ; std::cout
	call	??$?6U?$char_traits@D@std@@@std@@YAAEAV?$basic_ostream@DU?$char_traits@D@std@@@0@AEAV10@PEBD@Z ; std::operator<<<std::char_traits<char> >
; Line 145
	lea	rdx, OFFSET FLAT:$SG95696
	lea	rcx, OFFSET FLAT:?cout@std@@3V?$basic_ostream@DU?$char_traits@D@std@@@1@A ; std::cout
	call	??$?6U?$char_traits@D@std@@@std@@YAAEAV?$basic_ostream@DU?$char_traits@D@std@@@0@AEAV10@PEBD@Z ; std::operator<<<std::char_traits<char> >
; Line 146
	xor	eax, eax
; Line 147
	add	rsp, 32					; 00000020H
	pop	rdi
	ret	0
?setupSimpleConvolution@SimpleConvolution@@QEAAHXZ ENDP	; SimpleConvolution::setupSimpleConvolution
_TEXT	ENDS
PUBLIC	??6?$basic_ostream@DU?$char_traits@D@std@@@std@@QEAAAEAV01@_K@Z ; std::basic_ostream<char,std::char_traits<char> >::operator<<
PUBLIC	?size@?$basic_string@DU?$char_traits@D@std@@V?$allocator@D@2@@std@@QEBA_KXZ ; std::basic_string<char,std::char_traits<char>,std::allocator<char> >::size
PUBLIC	?replaceNewlineWithSpaces@SDKFile@streamsdk@@QEAAXXZ ; streamsdk::SDKFile::replaceNewlineWithSpaces
PUBLIC	?isComplierFlagsSpecified@SDKSample@@QEAA_NXZ	; SDKSample::isComplierFlagsSpecified
PUBLIC	?source@SDKFile@streamsdk@@QEBAAEBV?$basic_string@DU?$char_traits@D@std@@V?$allocator@D@2@@std@@XZ ; streamsdk::SDKFile::source
PUBLIC	??1SDKFile@streamsdk@@QEAA@XZ			; streamsdk::SDKFile::~SDKFile
PUBLIC	??1?$basic_string@DU?$char_traits@D@std@@V?$allocator@D@2@@std@@QEAA@XZ ; std::basic_string<char,std::char_traits<char>,std::allocator<char> >::~basic_string<char,std::char_traits<char>,std::allocator<char> >
PUBLIC	??6?$basic_ostream@DU?$char_traits@D@std@@@std@@QEAAAEAV01@P6AAEAV01@AEAV01@@Z@Z ; std::basic_ostream<char,std::char_traits<char> >::operator<<
PUBLIC	?endl@std@@YAAEAV?$basic_ostream@DU?$char_traits@D@std@@@1@AEAV21@@Z ; std::endl
PUBLIC	??$?6DU?$char_traits@D@std@@V?$allocator@D@1@@std@@YAAEAV?$basic_ostream@DU?$char_traits@D@std@@@0@AEAV10@AEBV?$basic_string@DU?$char_traits@D@std@@V?$allocator@D@2@@0@@Z ; std::operator<<<char,std::char_traits<char>,std::allocator<char> >
PUBLIC	?c_str@?$basic_string@DU?$char_traits@D@std@@V?$allocator@D@2@@std@@QEBAPEBDXZ ; std::basic_string<char,std::char_traits<char>,std::allocator<char> >::c_str
PUBLIC	?append@?$basic_string@DU?$char_traits@D@std@@V?$allocator@D@2@@std@@QEAAAEAV12@PEBD@Z ; std::basic_string<char,std::char_traits<char>,std::allocator<char> >::append
PUBLIC	??0SDKFile@streamsdk@@QEAA@XZ			; streamsdk::SDKFile::SDKFile
PUBLIC	??0?$basic_string@DU?$char_traits@D@std@@V?$allocator@D@2@@std@@QEAA@PEBD@Z ; std::basic_string<char,std::char_traits<char>,std::allocator<char> >::basic_string<char,std::char_traits<char>,std::allocator<char> >
PUBLIC	__$ArrayPad$
PUBLIC	?genBinaryImage@SimpleConvolution@@UEAAHXZ	; SimpleConvolution::genBinaryImage
EXTRN	__GSHandlerCheck_EH:PROC
EXTRN	clReleaseContext:PROC
EXTRN	clReleaseProgram:PROC
EXTRN	free:PROC
EXTRN	?writeBinaryToFile@SDKFile@streamsdk@@QEAA_NPEBD0_K@Z:PROC ; streamsdk::SDKFile::writeBinaryToFile
EXTRN	printf:PROC
EXTRN	clGetDeviceInfo:PROC
EXTRN	sprintf:PROC
EXTRN	malloc:PROC
EXTRN	clGetProgramInfo:PROC
EXTRN	clBuildProgram:PROC
EXTRN	clCreateProgramWithSource:PROC
EXTRN	strlen:PROC
EXTRN	?open@SDKFile@streamsdk@@QEAA_NPEBD@Z:PROC	; streamsdk::SDKFile::open
EXTRN	?getPath@SDKCommon@streamsdk@@QEAA?AV?$basic_string@DU?$char_traits@D@std@@V?$allocator@D@2@@std@@XZ:PROC ; streamsdk::SDKCommon::getPath
EXTRN	clCreateContextFromType:PROC
EXTRN	?error@SDKCommon@streamsdk@@QEBAXPEBD@Z:PROC	; streamsdk::SDKCommon::error
EXTRN	??_V@YAXPEAX@Z:PROC				; operator delete[]
EXTRN	strcmp:PROC
EXTRN	clGetPlatformInfo:PROC
EXTRN	??_U@YAPEAX_K@Z:PROC				; operator new[]
EXTRN	??$checkVal@H@SDKCommon@streamsdk@@QEBAHHHV?$basic_string@DU?$char_traits@D@std@@V?$allocator@D@2@@std@@_N@Z:PROC ; streamsdk::SDKCommon::checkVal<int>
EXTRN	clGetPlatformIDs:PROC
EXTRN	__security_cookie:QWORD
EXTRN	__security_check_cookie:PROC
EXTRN	_RTC_CheckStackVars:PROC
pdata	SEGMENT
$pdata$?genBinaryImage@SimpleConvolution@@UEAAHXZ DD imagerel $LN66
	DD	imagerel $LN66+4942
	DD	imagerel $unwind$?genBinaryImage@SimpleConvolution@@UEAAHXZ
pdata	ENDS
pdata	SEGMENT
$pdata$?dtor$4@?0??genBinaryImage@SimpleConvolution@@UEAAHXZ@4HA DD imagerel ?dtor$4@?0??genBinaryImage@SimpleConvolution@@UEAAHXZ@4HA
	DD	imagerel ?dtor$4@?0??genBinaryImage@SimpleConvolution@@UEAAHXZ@4HA+38
	DD	imagerel $unwind$?dtor$4@?0??genBinaryImage@SimpleConvolution@@UEAAHXZ@4HA
$pdata$?dtor$5@?0??genBinaryImage@SimpleConvolution@@UEAAHXZ@4HA DD imagerel ?dtor$5@?0??genBinaryImage@SimpleConvolution@@UEAAHXZ@4HA
	DD	imagerel ?dtor$5@?0??genBinaryImage@SimpleConvolution@@UEAAHXZ@4HA+38
	DD	imagerel $unwind$?dtor$5@?0??genBinaryImage@SimpleConvolution@@UEAAHXZ@4HA
$pdata$?dtor$7@?0??genBinaryImage@SimpleConvolution@@UEAAHXZ@4HA DD imagerel ?dtor$7@?0??genBinaryImage@SimpleConvolution@@UEAAHXZ@4HA
	DD	imagerel ?dtor$7@?0??genBinaryImage@SimpleConvolution@@UEAAHXZ@4HA+38
	DD	imagerel $unwind$?dtor$7@?0??genBinaryImage@SimpleConvolution@@UEAAHXZ@4HA
$pdata$?dtor$8@?0??genBinaryImage@SimpleConvolution@@UEAAHXZ@4HA DD imagerel ?dtor$8@?0??genBinaryImage@SimpleConvolution@@UEAAHXZ@4HA
	DD	imagerel ?dtor$8@?0??genBinaryImage@SimpleConvolution@@UEAAHXZ@4HA+38
	DD	imagerel $unwind$?dtor$8@?0??genBinaryImage@SimpleConvolution@@UEAAHXZ@4HA
$pdata$?dtor$9@?0??genBinaryImage@SimpleConvolution@@UEAAHXZ@4HA DD imagerel ?dtor$9@?0??genBinaryImage@SimpleConvolution@@UEAAHXZ@4HA
	DD	imagerel ?dtor$9@?0??genBinaryImage@SimpleConvolution@@UEAAHXZ@4HA+38
	DD	imagerel $unwind$?dtor$9@?0??genBinaryImage@SimpleConvolution@@UEAAHXZ@4HA
$pdata$?dtor$16@?0??genBinaryImage@SimpleConvolution@@UEAAHXZ@4HA DD imagerel ?dtor$16@?0??genBinaryImage@SimpleConvolution@@UEAAHXZ@4HA
	DD	imagerel ?dtor$16@?0??genBinaryImage@SimpleConvolution@@UEAAHXZ@4HA+38
	DD	imagerel $unwind$?dtor$16@?0??genBinaryImage@SimpleConvolution@@UEAAHXZ@4HA
pdata	ENDS
xdata	SEGMENT
$stateUnwindMap$?genBinaryImage@SimpleConvolution@@UEAAHXZ DD 0ffffffffH
	DD	imagerel ?dtor$4@?0??genBinaryImage@SimpleConvolution@@UEAAHXZ@4HA
	DD	00H
	DD	imagerel ?dtor$5@?0??genBinaryImage@SimpleConvolution@@UEAAHXZ@4HA
	DD	01H
	DD	imagerel ?dtor$7@?0??genBinaryImage@SimpleConvolution@@UEAAHXZ@4HA
	DD	02H
	DD	imagerel ?dtor$8@?0??genBinaryImage@SimpleConvolution@@UEAAHXZ@4HA
	DD	03H
	DD	imagerel ?dtor$9@?0??genBinaryImage@SimpleConvolution@@UEAAHXZ@4HA
	DD	02H
	DD	imagerel ?dtor$16@?0??genBinaryImage@SimpleConvolution@@UEAAHXZ@4HA
$unwind$?genBinaryImage@SimpleConvolution@@UEAAHXZ DD 034219H
	DD	0182010dH
	DD	07006H
	DD	imagerel __GSHandlerCheck_EH
	DD	imagerel $cppxdata$?genBinaryImage@SimpleConvolution@@UEAAHXZ
	DD	0c0aH
$unwind$?dtor$4@?0??genBinaryImage@SimpleConvolution@@UEAAHXZ@4HA DD 031001H
	DD	0700c4210H
	DD	0500bH
$unwind$?dtor$5@?0??genBinaryImage@SimpleConvolution@@UEAAHXZ@4HA DD 031001H
	DD	0700c4210H
	DD	0500bH
$unwind$?dtor$7@?0??genBinaryImage@SimpleConvolution@@UEAAHXZ@4HA DD 031001H
	DD	0700c4210H
	DD	0500bH
$unwind$?dtor$8@?0??genBinaryImage@SimpleConvolution@@UEAAHXZ@4HA DD 031001H
	DD	0700c4210H
	DD	0500bH
$unwind$?dtor$9@?0??genBinaryImage@SimpleConvolution@@UEAAHXZ@4HA DD 031001H
	DD	0700c4210H
	DD	0500bH
$unwind$?dtor$16@?0??genBinaryImage@SimpleConvolution@@UEAAHXZ@4HA DD 031001H
	DD	0700c4210H
	DD	0500bH
$ip2state$?genBinaryImage@SimpleConvolution@@UEAAHXZ DD imagerel ?genBinaryImage@SimpleConvolution@@UEAAHXZ
	DD	0ffffffffH
	DD	imagerel ?genBinaryImage@SimpleConvolution@@UEAAHXZ+974
	DD	00H
	DD	imagerel ?genBinaryImage@SimpleConvolution@@UEAAHXZ+1000
	DD	01H
	DD	imagerel ?genBinaryImage@SimpleConvolution@@UEAAHXZ+1117
	DD	00H
	DD	imagerel ?genBinaryImage@SimpleConvolution@@UEAAHXZ+1131
	DD	0ffffffffH
	DD	imagerel ?genBinaryImage@SimpleConvolution@@UEAAHXZ+1156
	DD	01H
	DD	imagerel ?genBinaryImage@SimpleConvolution@@UEAAHXZ+1368
	DD	00H
	DD	imagerel ?genBinaryImage@SimpleConvolution@@UEAAHXZ+1382
	DD	0ffffffffH
	DD	imagerel ?genBinaryImage@SimpleConvolution@@UEAAHXZ+1407
	DD	01H
	DD	imagerel ?genBinaryImage@SimpleConvolution@@UEAAHXZ+1428
	DD	02H
	DD	imagerel ?genBinaryImage@SimpleConvolution@@UEAAHXZ+1466
	DD	03H
	DD	imagerel ?genBinaryImage@SimpleConvolution@@UEAAHXZ+1492
	DD	04H
	DD	imagerel ?genBinaryImage@SimpleConvolution@@UEAAHXZ+1631
	DD	03H
	DD	imagerel ?genBinaryImage@SimpleConvolution@@UEAAHXZ+1645
	DD	02H
	DD	imagerel ?genBinaryImage@SimpleConvolution@@UEAAHXZ+1659
	DD	01H
	DD	imagerel ?genBinaryImage@SimpleConvolution@@UEAAHXZ+1673
	DD	00H
	DD	imagerel ?genBinaryImage@SimpleConvolution@@UEAAHXZ+1687
	DD	0ffffffffH
	DD	imagerel ?genBinaryImage@SimpleConvolution@@UEAAHXZ+1712
	DD	04H
	DD	imagerel ?genBinaryImage@SimpleConvolution@@UEAAHXZ+1776
	DD	03H
	DD	imagerel ?genBinaryImage@SimpleConvolution@@UEAAHXZ+1790
	DD	02H
	DD	imagerel ?genBinaryImage@SimpleConvolution@@UEAAHXZ+2187
	DD	01H
	DD	imagerel ?genBinaryImage@SimpleConvolution@@UEAAHXZ+2201
	DD	00H
	DD	imagerel ?genBinaryImage@SimpleConvolution@@UEAAHXZ+2215
	DD	0ffffffffH
	DD	imagerel ?genBinaryImage@SimpleConvolution@@UEAAHXZ+2240
	DD	02H
	DD	imagerel ?genBinaryImage@SimpleConvolution@@UEAAHXZ+2378
	DD	01H
	DD	imagerel ?genBinaryImage@SimpleConvolution@@UEAAHXZ+2392
	DD	00H
	DD	imagerel ?genBinaryImage@SimpleConvolution@@UEAAHXZ+2406
	DD	0ffffffffH
	DD	imagerel ?genBinaryImage@SimpleConvolution@@UEAAHXZ+2431
	DD	02H
	DD	imagerel ?genBinaryImage@SimpleConvolution@@UEAAHXZ+2595
	DD	01H
	DD	imagerel ?genBinaryImage@SimpleConvolution@@UEAAHXZ+2609
	DD	00H
	DD	imagerel ?genBinaryImage@SimpleConvolution@@UEAAHXZ+2623
	DD	0ffffffffH
	DD	imagerel ?genBinaryImage@SimpleConvolution@@UEAAHXZ+2648
	DD	02H
	DD	imagerel ?genBinaryImage@SimpleConvolution@@UEAAHXZ+2729
	DD	01H
	DD	imagerel ?genBinaryImage@SimpleConvolution@@UEAAHXZ+2743
	DD	00H
	DD	imagerel ?genBinaryImage@SimpleConvolution@@UEAAHXZ+2757
	DD	0ffffffffH
	DD	imagerel ?genBinaryImage@SimpleConvolution@@UEAAHXZ+2782
	DD	02H
	DD	imagerel ?genBinaryImage@SimpleConvolution@@UEAAHXZ+2939
	DD	01H
	DD	imagerel ?genBinaryImage@SimpleConvolution@@UEAAHXZ+2953
	DD	00H
	DD	imagerel ?genBinaryImage@SimpleConvolution@@UEAAHXZ+2967
	DD	0ffffffffH
	DD	imagerel ?genBinaryImage@SimpleConvolution@@UEAAHXZ+2992
	DD	02H
	DD	imagerel ?genBinaryImage@SimpleConvolution@@UEAAHXZ+3078
	DD	01H
	DD	imagerel ?genBinaryImage@SimpleConvolution@@UEAAHXZ+3092
	DD	00H
	DD	imagerel ?genBinaryImage@SimpleConvolution@@UEAAHXZ+3106
	DD	0ffffffffH
	DD	imagerel ?genBinaryImage@SimpleConvolution@@UEAAHXZ+3131
	DD	02H
	DD	imagerel ?genBinaryImage@SimpleConvolution@@UEAAHXZ+3316
	DD	01H
	DD	imagerel ?genBinaryImage@SimpleConvolution@@UEAAHXZ+3330
	DD	00H
	DD	imagerel ?genBinaryImage@SimpleConvolution@@UEAAHXZ+3344
	DD	0ffffffffH
	DD	imagerel ?genBinaryImage@SimpleConvolution@@UEAAHXZ+3369
	DD	02H
	DD	imagerel ?genBinaryImage@SimpleConvolution@@UEAAHXZ+3557
	DD	01H
	DD	imagerel ?genBinaryImage@SimpleConvolution@@UEAAHXZ+3571
	DD	00H
	DD	imagerel ?genBinaryImage@SimpleConvolution@@UEAAHXZ+3585
	DD	0ffffffffH
	DD	imagerel ?genBinaryImage@SimpleConvolution@@UEAAHXZ+3610
	DD	02H
	DD	imagerel ?genBinaryImage@SimpleConvolution@@UEAAHXZ+3905
	DD	01H
	DD	imagerel ?genBinaryImage@SimpleConvolution@@UEAAHXZ+3919
	DD	00H
	DD	imagerel ?genBinaryImage@SimpleConvolution@@UEAAHXZ+3933
	DD	0ffffffffH
	DD	imagerel ?genBinaryImage@SimpleConvolution@@UEAAHXZ+3958
	DD	02H
	DD	imagerel ?genBinaryImage@SimpleConvolution@@UEAAHXZ+4000
	DD	05H
	DD	imagerel ?genBinaryImage@SimpleConvolution@@UEAAHXZ+4133
	DD	02H
	DD	imagerel ?genBinaryImage@SimpleConvolution@@UEAAHXZ+4147
	DD	01H
	DD	imagerel ?genBinaryImage@SimpleConvolution@@UEAAHXZ+4161
	DD	00H
	DD	imagerel ?genBinaryImage@SimpleConvolution@@UEAAHXZ+4175
	DD	0ffffffffH
	DD	imagerel ?genBinaryImage@SimpleConvolution@@UEAAHXZ+4200
	DD	02H
	DD	imagerel ?genBinaryImage@SimpleConvolution@@UEAAHXZ+4614
	DD	01H
	DD	imagerel ?genBinaryImage@SimpleConvolution@@UEAAHXZ+4628
	DD	00H
	DD	imagerel ?genBinaryImage@SimpleConvolution@@UEAAHXZ+4642
	DD	0ffffffffH
	DD	imagerel ?genBinaryImage@SimpleConvolution@@UEAAHXZ+4667
	DD	02H
	DD	imagerel ?genBinaryImage@SimpleConvolution@@UEAAHXZ+4787
	DD	01H
	DD	imagerel ?genBinaryImage@SimpleConvolution@@UEAAHXZ+4801
	DD	00H
	DD	imagerel ?genBinaryImage@SimpleConvolution@@UEAAHXZ+4815
	DD	0ffffffffH
	DD	imagerel ?genBinaryImage@SimpleConvolution@@UEAAHXZ+4837
	DD	02H
	DD	imagerel ?genBinaryImage@SimpleConvolution@@UEAAHXZ+4848
	DD	01H
	DD	imagerel ?genBinaryImage@SimpleConvolution@@UEAAHXZ+4862
	DD	00H
	DD	imagerel ?genBinaryImage@SimpleConvolution@@UEAAHXZ+4876
	DD	0ffffffffH
xdata	ENDS
CONST	SEGMENT
	ORG $+2
?genBinaryImage@SimpleConvolution@@UEAAHXZ$rtcName$0 DB 073H ; SimpleConvolution::genBinaryImage
	DB	074H
	DB	061H
	DB	074H
	DB	075H
	DB	073H
	DB	00H
	ORG $+1
?genBinaryImage@SimpleConvolution@@UEAAHXZ$rtcName$1 DB 06eH ; SimpleConvolution::genBinaryImage
	DB	075H
	DB	06dH
	DB	050H
	DB	06cH
	DB	061H
	DB	074H
	DB	066H
	DB	06fH
	DB	072H
	DB	06dH
	DB	073H
	DB	00H
	ORG $+3
?genBinaryImage@SimpleConvolution@@UEAAHXZ$rtcName$2 DB 070H ; SimpleConvolution::genBinaryImage
	DB	06cH
	DB	061H
	DB	074H
	DB	066H
	DB	06fH
	DB	072H
	DB	06dH
	DB	04eH
	DB	061H
	DB	06dH
	DB	065H
	DB	00H
	ORG $+3
?genBinaryImage@SimpleConvolution@@UEAAHXZ$rtcName$3 DB 063H ; SimpleConvolution::genBinaryImage
	DB	070H
	DB	073H
	DB	00H
	ORG $+4
?genBinaryImage@SimpleConvolution@@UEAAHXZ$rtcName$4 DB 06bH ; SimpleConvolution::genBinaryImage
	DB	065H
	DB	072H
	DB	06eH
	DB	065H
	DB	06cH
	DB	046H
	DB	069H
	DB	06cH
	DB	065H
	DB	00H
	ORG $+5
?genBinaryImage@SimpleConvolution@@UEAAHXZ$rtcName$5 DB 06bH ; SimpleConvolution::genBinaryImage
	DB	065H
	DB	072H
	DB	06eH
	DB	065H
	DB	06cH
	DB	050H
	DB	061H
	DB	074H
	DB	068H
	DB	00H
	ORG $+1
?genBinaryImage@SimpleConvolution@@UEAAHXZ$rtcName$6 DB 073H ; SimpleConvolution::genBinaryImage
	DB	06fH
	DB	075H
	DB	072H
	DB	063H
	DB	065H
	DB	00H
	ORG $+5
?genBinaryImage@SimpleConvolution@@UEAAHXZ$rtcName$7 DB 073H ; SimpleConvolution::genBinaryImage
	DB	06fH
	DB	075H
	DB	072H
	DB	063H
	DB	065H
	DB	053H
	DB	069H
	DB	07aH
	DB	065H
	DB	00H
	ORG $+5
?genBinaryImage@SimpleConvolution@@UEAAHXZ$rtcName$8 DB 066H ; SimpleConvolution::genBinaryImage
	DB	06cH
	DB	061H
	DB	067H
	DB	073H
	DB	053H
	DB	074H
	DB	072H
	DB	00H
	ORG $+7
?genBinaryImage@SimpleConvolution@@UEAAHXZ$rtcName$9 DB 066H ; SimpleConvolution::genBinaryImage
	DB	06cH
	DB	061H
	DB	067H
	DB	073H
	DB	046H
	DB	069H
	DB	06cH
	DB	065H
	DB	00H
	ORG $+6
?genBinaryImage@SimpleConvolution@@UEAAHXZ$rtcName$10 DB 066H ; SimpleConvolution::genBinaryImage
	DB	06cH
	DB	061H
	DB	067H
	DB	073H
	DB	050H
	DB	061H
	DB	074H
	DB	068H
	DB	00H
	ORG $+6
?genBinaryImage@SimpleConvolution@@UEAAHXZ$rtcName$11 DB 06eH ; SimpleConvolution::genBinaryImage
	DB	075H
	DB	06dH
	DB	044H
	DB	065H
	DB	076H
	DB	069H
	DB	063H
	DB	065H
	DB	073H
	DB	00H
	ORG $+5
?genBinaryImage@SimpleConvolution@@UEAAHXZ$rtcName$12 DB 066H ; SimpleConvolution::genBinaryImage
	DB	069H
	DB	06cH
	DB	065H
	DB	04eH
	DB	061H
	DB	06dH
	DB	065H
	DB	00H
	ORG $+7
?genBinaryImage@SimpleConvolution@@UEAAHXZ$rtcName$13 DB 064H ; SimpleConvolution::genBinaryImage
	DB	065H
	DB	076H
	DB	069H
	DB	063H
	DB	065H
	DB	04eH
	DB	061H
	DB	06dH
	DB	065H
	DB	00H
	ORG $+5
?genBinaryImage@SimpleConvolution@@UEAAHXZ$rtcName$14 DB 042H ; SimpleConvolution::genBinaryImage
	DB	069H
	DB	06eH
	DB	061H
	DB	072H
	DB	079H
	DB	046H
	DB	069H
	DB	06cH
	DB	065H
	DB	00H
	ORG $+13
?genBinaryImage@SimpleConvolution@@UEAAHXZ$rtcVarDesc DD 0808H ; SimpleConvolution::genBinaryImage
	DD	030H
	DQ	FLAT:?genBinaryImage@SimpleConvolution@@UEAAHXZ$rtcName$14
	DD	03f0H
	DD	0400H
	DQ	FLAT:?genBinaryImage@SimpleConvolution@@UEAAHXZ$rtcName$13
	DD	0360H
	DD	064H
	DQ	FLAT:?genBinaryImage@SimpleConvolution@@UEAAHXZ$rtcName$12
	DD	0328H
	DD	08H
	DQ	FLAT:?genBinaryImage@SimpleConvolution@@UEAAHXZ$rtcName$11
	DD	02d8H
	DD	030H
	DQ	FLAT:?genBinaryImage@SimpleConvolution@@UEAAHXZ$rtcName$10
	DD	0288H
	DD	030H
	DQ	FLAT:?genBinaryImage@SimpleConvolution@@UEAAHXZ$rtcName$9
	DD	0238H
	DD	030H
	DQ	FLAT:?genBinaryImage@SimpleConvolution@@UEAAHXZ$rtcName$8
	DD	0218H
	DD	08H
	DQ	FLAT:?genBinaryImage@SimpleConvolution@@UEAAHXZ$rtcName$7
	DD	01f8H
	DD	08H
	DQ	FLAT:?genBinaryImage@SimpleConvolution@@UEAAHXZ$rtcName$6
	DD	01a8H
	DD	030H
	DQ	FLAT:?genBinaryImage@SimpleConvolution@@UEAAHXZ$rtcName$5
	DD	0158H
	DD	030H
	DQ	FLAT:?genBinaryImage@SimpleConvolution@@UEAAHXZ$rtcName$4
	DD	0118H
	DD	028H
	DQ	FLAT:?genBinaryImage@SimpleConvolution@@UEAAHXZ$rtcName$3
	DD	090H
	DD	064H
	DQ	FLAT:?genBinaryImage@SimpleConvolution@@UEAAHXZ$rtcName$2
	DD	054H
	DD	04H
	DQ	FLAT:?genBinaryImage@SimpleConvolution@@UEAAHXZ$rtcName$1
	DD	034H
	DD	04H
	DQ	FLAT:?genBinaryImage@SimpleConvolution@@UEAAHXZ$rtcName$0
	ORG $+720
?genBinaryImage@SimpleConvolution@@UEAAHXZ$rtcFrameData DD 0fH ; SimpleConvolution::genBinaryImage
	DD	00H
	DQ	FLAT:?genBinaryImage@SimpleConvolution@@UEAAHXZ$rtcVarDesc
$cppxdata$?genBinaryImage@SimpleConvolution@@UEAAHXZ DD 019930522H
	DD	06H
	DD	imagerel $stateUnwindMap$?genBinaryImage@SimpleConvolution@@UEAAHXZ
	DD	00H
	DD	00H
	DD	049H
	DD	imagerel $ip2state$?genBinaryImage@SimpleConvolution@@UEAAHXZ
	DD	0b88H
	DD	00H
	DD	01H
; Function compile flags: /Odtp /RTCsu
CONST	ENDS
_TEXT	SEGMENT
status$ = 52
numPlatforms$ = 84
platform$ = 104
platforms$95713 = 112
platformName$95719 = 144
i$95720 = 260
cps$ = 280
kernelFile$ = 344
kernelPath$ = 424
source$ = 504
sourceSize$ = 536
flagsStr$ = 568
flagsFile$95813 = 648
flagsPath$95814 = 728
flags$95823 = 792
numDevices$ = 808
binarySizes$ = 824
i$ = 832
binaries$ = 840
fileName$95904 = 864
deviceName$95908 = 1008
BinaryFile$95914 = 2056
$T102579 = 2128
$T102580 = 2176
$T102581 = 2184
$T102582 = 2192
$T102583 = 2240
$T102584 = 2248
$T102585 = 2296
$T102586 = 2304
$T102587 = 2312
$T102588 = 2360
$T102589 = 2368
$T102590 = 2376
$T102591 = 2424
$T102592 = 2432
$T102593 = 2436
$T102594 = 2440
$T102595 = 2488
$T102596 = 2496
$T102597 = 2544
$T102598 = 2552
$T102599 = 2556
$T102600 = 2560
$T102601 = 2608
$T102602 = 2616
$T102603 = 2620
$T102604 = 2624
$T102605 = 2672
$T102606 = 2680
$T102607 = 2684
$T102608 = 2688
$T102609 = 2696
$T102610 = 2744
$T102611 = 2752
$T102612 = 2760
$T102613 = 2808
$T102614 = 2816
$T102615 = 2820
$T102616 = 2824
$T102617 = 2872
$T102618 = 2880
$T102619 = 2888
$T102620 = 2936
$T102621 = 2944
$T102622 = 2948
$T102665 = 2952
tv788 = 2960
tv91 = 2968
tv790 = 2976
tv792 = 2984
tv794 = 2992
tv832 = 3000
tv395 = 3008
tv844 = 3016
tv846 = 3024
tv854 = 3032
tv862 = 3040
tv873 = 3048
tv878 = 3056
tv888 = 3064
tv893 = 3072
__$ArrayPad$ = 3080
this$ = 3104
?genBinaryImage@SimpleConvolution@@UEAAHXZ PROC		; SimpleConvolution::genBinaryImage
; Line 151
$LN66:
	mov	QWORD PTR [rsp+8], rcx
	push	rdi
	sub	rsp, 3088				; 00000c10H
	mov	rdi, rsp
	mov	ecx, 772				; 00000304H
	mov	eax, -858993460				; ccccccccH
	rep stosd
	mov	rcx, QWORD PTR [rsp+3104]
	mov	QWORD PTR $T102665[rsp], -2
	mov	rax, QWORD PTR __security_cookie
	xor	rax, rsp
	mov	QWORD PTR __$ArrayPad$[rsp], rax
; Line 152
	mov	DWORD PTR status$[rsp], 0
; Line 159
	mov	QWORD PTR platform$[rsp], 0
; Line 160
	lea	r8, QWORD PTR numPlatforms$[rsp]
	xor	edx, edx
	xor	ecx, ecx
	call	clGetPlatformIDs
	mov	DWORD PTR status$[rsp], eax
; Line 163
	lea	rax, QWORD PTR $T102579[rsp]
	mov	QWORD PTR $T102580[rsp], rax
	lea	rdx, OFFSET FLAT:$SG95711
	mov	rcx, QWORD PTR $T102580[rsp]
	call	??0?$basic_string@DU?$char_traits@D@std@@V?$allocator@D@2@@std@@QEAA@PEBD@Z ; std::basic_string<char,std::char_traits<char>,std::allocator<char> >::basic_string<char,std::char_traits<char>,std::allocator<char> >
	mov	QWORD PTR tv788[rsp], rax
	mov	BYTE PTR [rsp+32], 1
	mov	r9, QWORD PTR tv788[rsp]
	xor	r8d, r8d
	mov	edx, DWORD PTR status$[rsp]
	mov	rax, QWORD PTR this$[rsp]
	mov	rcx, QWORD PTR [rax+16]
	call	??$checkVal@H@SDKCommon@streamsdk@@QEBAHHHV?$basic_string@DU?$char_traits@D@std@@V?$allocator@D@2@@std@@_N@Z ; streamsdk::SDKCommon::checkVal<int>
	test	eax, eax
	jne	SHORT $LN44@genBinaryI
; Line 165
	mov	eax, 1
	jmp	$LN45@genBinaryI
$LN44@genBinaryI:
; Line 167
	cmp	DWORD PTR numPlatforms$[rsp], 0
	jbe	$LN43@genBinaryI
; Line 169
	mov	eax, DWORD PTR numPlatforms$[rsp]
	mov	QWORD PTR tv91[rsp], rax
	mov	eax, 8
	mov	rcx, QWORD PTR tv91[rsp]
	mul	rcx
	mov	rcx, -1
	cmovo	rax, rcx
	mov	rcx, rax
	call	??_U@YAPEAX_K@Z				; operator new[]
	mov	QWORD PTR $T102581[rsp], rax
	mov	rax, QWORD PTR $T102581[rsp]
	mov	QWORD PTR platforms$95713[rsp], rax
; Line 170
	xor	r8d, r8d
	mov	rdx, QWORD PTR platforms$95713[rsp]
	mov	ecx, DWORD PTR numPlatforms$[rsp]
	call	clGetPlatformIDs
	mov	DWORD PTR status$[rsp], eax
; Line 173
	lea	rax, QWORD PTR $T102582[rsp]
	mov	QWORD PTR $T102583[rsp], rax
	lea	rdx, OFFSET FLAT:$SG95718
	mov	rcx, QWORD PTR $T102583[rsp]
	call	??0?$basic_string@DU?$char_traits@D@std@@V?$allocator@D@2@@std@@QEAA@PEBD@Z ; std::basic_string<char,std::char_traits<char>,std::allocator<char> >::basic_string<char,std::char_traits<char>,std::allocator<char> >
	mov	QWORD PTR tv790[rsp], rax
	mov	BYTE PTR [rsp+32], 1
	mov	r9, QWORD PTR tv790[rsp]
	xor	r8d, r8d
	mov	edx, DWORD PTR status$[rsp]
	mov	rax, QWORD PTR this$[rsp]
	mov	rcx, QWORD PTR [rax+16]
	call	??$checkVal@H@SDKCommon@streamsdk@@QEBAHHHV?$basic_string@DU?$char_traits@D@std@@V?$allocator@D@2@@std@@_N@Z ; streamsdk::SDKCommon::checkVal<int>
	test	eax, eax
	jne	SHORT $LN42@genBinaryI
; Line 175
	mov	eax, 1
	jmp	$LN45@genBinaryI
$LN42@genBinaryI:
; Line 179
	mov	DWORD PTR i$95720[rsp], 0
	jmp	SHORT $LN41@genBinaryI
$LN40@genBinaryI:
	mov	eax, DWORD PTR i$95720[rsp]
	inc	eax
	mov	DWORD PTR i$95720[rsp], eax
$LN41@genBinaryI:
	mov	eax, DWORD PTR numPlatforms$[rsp]
	cmp	DWORD PTR i$95720[rsp], eax
	jae	$LN39@genBinaryI
; Line 185
	mov	eax, DWORD PTR i$95720[rsp]
	mov	QWORD PTR [rsp+32], 0
	lea	r9, QWORD PTR platformName$95719[rsp]
	mov	r8d, 100				; 00000064H
	mov	edx, 2307				; 00000903H
	mov	rcx, QWORD PTR platforms$95713[rsp]
	mov	rcx, QWORD PTR [rcx+rax*8]
	call	clGetPlatformInfo
	mov	DWORD PTR status$[rsp], eax
; Line 189
	lea	rax, QWORD PTR $T102584[rsp]
	mov	QWORD PTR $T102585[rsp], rax
	lea	rdx, OFFSET FLAT:$SG95726
	mov	rcx, QWORD PTR $T102585[rsp]
	call	??0?$basic_string@DU?$char_traits@D@std@@V?$allocator@D@2@@std@@QEAA@PEBD@Z ; std::basic_string<char,std::char_traits<char>,std::allocator<char> >::basic_string<char,std::char_traits<char>,std::allocator<char> >
	mov	QWORD PTR tv792[rsp], rax
	mov	BYTE PTR [rsp+32], 1
	mov	r9, QWORD PTR tv792[rsp]
	xor	r8d, r8d
	mov	edx, DWORD PTR status$[rsp]
	mov	rax, QWORD PTR this$[rsp]
	mov	rcx, QWORD PTR [rax+16]
	call	??$checkVal@H@SDKCommon@streamsdk@@QEBAHHHV?$basic_string@DU?$char_traits@D@std@@V?$allocator@D@2@@std@@_N@Z ; streamsdk::SDKCommon::checkVal<int>
	test	eax, eax
	jne	SHORT $LN38@genBinaryI
; Line 191
	mov	eax, 1
	jmp	$LN45@genBinaryI
$LN38@genBinaryI:
; Line 194
	mov	eax, DWORD PTR i$95720[rsp]
	mov	rcx, QWORD PTR platforms$95713[rsp]
	mov	rax, QWORD PTR [rcx+rax*8]
	mov	QWORD PTR platform$[rsp], rax
; Line 195
	lea	rdx, OFFSET FLAT:$SG95728
	lea	rcx, QWORD PTR platformName$95719[rsp]
	call	strcmp
	test	eax, eax
	jne	SHORT $LN37@genBinaryI
; Line 197
	jmp	SHORT $LN39@genBinaryI
$LN37@genBinaryI:
; Line 199
	jmp	$LN40@genBinaryI
$LN39@genBinaryI:
; Line 200
	lea	rdx, OFFSET FLAT:$SG95749
	lea	rcx, OFFSET FLAT:?cout@std@@3V?$basic_ostream@DU?$char_traits@D@std@@@1@A ; std::cout
	call	??$?6U?$char_traits@D@std@@@std@@YAAEAV?$basic_ostream@DU?$char_traits@D@std@@@0@AEAV10@PEBD@Z ; std::operator<<<std::char_traits<char> >
	lea	rdx, QWORD PTR platformName$95719[rsp]
	mov	rcx, rax
	call	??$?6U?$char_traits@D@std@@@std@@YAAEAV?$basic_ostream@DU?$char_traits@D@std@@@0@AEAV10@PEBD@Z ; std::operator<<<std::char_traits<char> >
	lea	rdx, OFFSET FLAT:$SG95748
	mov	rcx, rax
	call	??$?6U?$char_traits@D@std@@@std@@YAAEAV?$basic_ostream@DU?$char_traits@D@std@@@0@AEAV10@PEBD@Z ; std::operator<<<std::char_traits<char> >
; Line 201
	mov	rax, QWORD PTR platforms$95713[rsp]
	mov	QWORD PTR $T102586[rsp], rax
	mov	rcx, QWORD PTR $T102586[rsp]
	call	??_V@YAXPEAX@Z				; operator delete[]
$LN43@genBinaryI:
; Line 204
	cmp	QWORD PTR platform$[rsp], 0
	jne	SHORT $LN36@genBinaryI
; Line 206
	lea	rdx, OFFSET FLAT:$SG95752
	mov	rax, QWORD PTR this$[rsp]
	mov	rcx, QWORD PTR [rax+16]
	call	?error@SDKCommon@streamsdk@@QEBAXPEBD@Z	; streamsdk::SDKCommon::error
; Line 207
	mov	eax, 1
	jmp	$LN45@genBinaryI
$LN36@genBinaryI:
; Line 215
	mov	QWORD PTR cps$[rsp], 4228		; 00001084H
; Line 216
	mov	rax, QWORD PTR platform$[rsp]
	mov	QWORD PTR cps$[rsp+8], rax
; Line 217
	mov	QWORD PTR cps$[rsp+16], 16447		; 0000403fH
; Line 218
	mov	QWORD PTR cps$[rsp+24], 1
; Line 220
	mov	QWORD PTR cps$[rsp+32], 0
; Line 226
	lea	rax, QWORD PTR status$[rsp]
	mov	QWORD PTR [rsp+32], rax
	xor	r9d, r9d
	xor	r8d, r8d
	mov	edx, -1					; ffffffffH
	lea	rcx, QWORD PTR cps$[rsp]
	call	clCreateContextFromType
	mov	rcx, QWORD PTR this$[rsp]
	mov	QWORD PTR [rcx+320], rax
; Line 230
	lea	rax, QWORD PTR $T102587[rsp]
	mov	QWORD PTR $T102588[rsp], rax
	lea	rdx, OFFSET FLAT:$SG95758
	mov	rcx, QWORD PTR $T102588[rsp]
	call	??0?$basic_string@DU?$char_traits@D@std@@V?$allocator@D@2@@std@@QEAA@PEBD@Z ; std::basic_string<char,std::char_traits<char>,std::allocator<char> >::basic_string<char,std::char_traits<char>,std::allocator<char> >
	mov	QWORD PTR tv794[rsp], rax
	mov	BYTE PTR [rsp+32], 1
	mov	r9, QWORD PTR tv794[rsp]
	xor	r8d, r8d
	mov	edx, DWORD PTR status$[rsp]
	mov	rax, QWORD PTR this$[rsp]
	mov	rcx, QWORD PTR [rax+16]
	call	??$checkVal@H@SDKCommon@streamsdk@@QEBAHHHV?$basic_string@DU?$char_traits@D@std@@V?$allocator@D@2@@std@@_N@Z ; streamsdk::SDKCommon::checkVal<int>
	test	eax, eax
	jne	SHORT $LN35@genBinaryI
; Line 232
	mov	eax, 1
	jmp	$LN45@genBinaryI
$LN35@genBinaryI:
; Line 236
	lea	rcx, QWORD PTR kernelFile$[rsp]
	call	??0SDKFile@streamsdk@@QEAA@XZ		; streamsdk::SDKFile::SDKFile
	npad	1
; Line 237
	lea	rdx, QWORD PTR kernelPath$[rsp]
	mov	rax, QWORD PTR this$[rsp]
	mov	rcx, QWORD PTR [rax+16]
	call	?getPath@SDKCommon@streamsdk@@QEAA?AV?$basic_string@DU?$char_traits@D@std@@V?$allocator@D@2@@std@@XZ ; streamsdk::SDKCommon::getPath
	npad	1
; Line 238
	lea	rdx, OFFSET FLAT:$SG95762
	lea	rcx, QWORD PTR kernelPath$[rsp]
	call	?append@?$basic_string@DU?$char_traits@D@std@@V?$allocator@D@2@@std@@QEAAAEAV12@PEBD@Z ; std::basic_string<char,std::char_traits<char>,std::allocator<char> >::append
; Line 239
	lea	rcx, QWORD PTR kernelPath$[rsp]
	call	?c_str@?$basic_string@DU?$char_traits@D@std@@V?$allocator@D@2@@std@@QEBAPEBDXZ ; std::basic_string<char,std::char_traits<char>,std::allocator<char> >::c_str
	mov	rdx, rax
	lea	rcx, QWORD PTR kernelFile$[rsp]
	call	?open@SDKFile@streamsdk@@QEAA_NPEBD@Z	; streamsdk::SDKFile::open
	movzx	eax, al
	test	eax, eax
	jne	SHORT $LN34@genBinaryI
; Line 241
	lea	rdx, OFFSET FLAT:$SG95801
	lea	rcx, OFFSET FLAT:?cout@std@@3V?$basic_ostream@DU?$char_traits@D@std@@@1@A ; std::cout
	call	??$?6U?$char_traits@D@std@@@std@@YAAEAV?$basic_ostream@DU?$char_traits@D@std@@@0@AEAV10@PEBD@Z ; std::operator<<<std::char_traits<char> >
	lea	rdx, QWORD PTR kernelPath$[rsp]
	mov	rcx, rax
	call	??$?6DU?$char_traits@D@std@@V?$allocator@D@1@@std@@YAAEAV?$basic_ostream@DU?$char_traits@D@std@@@0@AEAV10@AEBV?$basic_string@DU?$char_traits@D@std@@V?$allocator@D@2@@0@@Z ; std::operator<<<char,std::char_traits<char>,std::allocator<char> >
	lea	rdx, OFFSET FLAT:?endl@std@@YAAEAV?$basic_ostream@DU?$char_traits@D@std@@@1@AEAV21@@Z ; std::endl
	mov	rcx, rax
	call	??6?$basic_ostream@DU?$char_traits@D@std@@@std@@QEAAAEAV01@P6AAEAV01@AEAV01@@Z@Z ; std::basic_ostream<char,std::char_traits<char> >::operator<<
; Line 242
	mov	DWORD PTR $T102589[rsp], 1
	lea	rcx, QWORD PTR kernelPath$[rsp]
	call	??1?$basic_string@DU?$char_traits@D@std@@V?$allocator@D@2@@std@@QEAA@XZ ; std::basic_string<char,std::char_traits<char>,std::allocator<char> >::~basic_string<char,std::char_traits<char>,std::allocator<char> >
	npad	1
	lea	rcx, QWORD PTR kernelFile$[rsp]
	call	??1SDKFile@streamsdk@@QEAA@XZ		; streamsdk::SDKFile::~SDKFile
	mov	eax, DWORD PTR $T102589[rsp]
	jmp	$LN45@genBinaryI
$LN34@genBinaryI:
; Line 244
	lea	rcx, QWORD PTR kernelFile$[rsp]
	call	?source@SDKFile@streamsdk@@QEBAAEBV?$basic_string@DU?$char_traits@D@std@@V?$allocator@D@2@@std@@XZ ; streamsdk::SDKFile::source
	mov	rcx, rax
	call	?c_str@?$basic_string@DU?$char_traits@D@std@@V?$allocator@D@2@@std@@QEBAPEBDXZ ; std::basic_string<char,std::char_traits<char>,std::allocator<char> >::c_str
	mov	QWORD PTR source$[rsp], rax
; Line 245
	mov	rcx, QWORD PTR source$[rsp]
	call	strlen
	mov	QWORD PTR sourceSize$[rsp], rax
; Line 250
	lea	rax, QWORD PTR status$[rsp]
	mov	QWORD PTR [rsp+32], rax
	lea	r9, QWORD PTR sourceSize$[rsp]
	lea	r8, QWORD PTR source$[rsp]
	mov	edx, 1
	mov	rax, QWORD PTR this$[rsp]
	mov	rcx, QWORD PTR [rax+320]
	call	clCreateProgramWithSource
	mov	rcx, QWORD PTR this$[rsp]
	mov	QWORD PTR [rcx+368], rax
; Line 253
	lea	rax, QWORD PTR $T102590[rsp]
	mov	QWORD PTR $T102591[rsp], rax
	lea	rdx, OFFSET FLAT:$SG95807
	mov	rcx, QWORD PTR $T102591[rsp]
	call	??0?$basic_string@DU?$char_traits@D@std@@V?$allocator@D@2@@std@@QEAA@PEBD@Z ; std::basic_string<char,std::char_traits<char>,std::allocator<char> >::basic_string<char,std::char_traits<char>,std::allocator<char> >
	mov	QWORD PTR tv832[rsp], rax
	mov	BYTE PTR [rsp+32], 1
	mov	r9, QWORD PTR tv832[rsp]
	xor	r8d, r8d
	mov	edx, DWORD PTR status$[rsp]
	mov	rax, QWORD PTR this$[rsp]
	mov	rcx, QWORD PTR [rax+16]
	call	??$checkVal@H@SDKCommon@streamsdk@@QEBAHHHV?$basic_string@DU?$char_traits@D@std@@V?$allocator@D@2@@std@@_N@Z ; streamsdk::SDKCommon::checkVal<int>
	test	eax, eax
	jne	SHORT $LN33@genBinaryI
; Line 255
	mov	DWORD PTR $T102592[rsp], 1
	lea	rcx, QWORD PTR kernelPath$[rsp]
	call	??1?$basic_string@DU?$char_traits@D@std@@V?$allocator@D@2@@std@@QEAA@XZ ; std::basic_string<char,std::char_traits<char>,std::allocator<char> >::~basic_string<char,std::char_traits<char>,std::allocator<char> >
	npad	1
	lea	rcx, QWORD PTR kernelFile$[rsp]
	call	??1SDKFile@streamsdk@@QEAA@XZ		; streamsdk::SDKFile::~SDKFile
	mov	eax, DWORD PTR $T102592[rsp]
	jmp	$LN45@genBinaryI
$LN33@genBinaryI:
; Line 258
	lea	rdx, OFFSET FLAT:$SG95811
	lea	rcx, QWORD PTR flagsStr$[rsp]
	call	??0?$basic_string@DU?$char_traits@D@std@@V?$allocator@D@2@@std@@QEAA@PEBD@Z ; std::basic_string<char,std::char_traits<char>,std::allocator<char> >::basic_string<char,std::char_traits<char>,std::allocator<char> >
	npad	1
; Line 261
	mov	rcx, QWORD PTR this$[rsp]
	call	?isComplierFlagsSpecified@SDKSample@@QEAA_NXZ ; SDKSample::isComplierFlagsSpecified
	movzx	eax, al
	test	eax, eax
	je	$LN32@genBinaryI
; Line 263
	lea	rcx, QWORD PTR flagsFile$95813[rsp]
	call	??0SDKFile@streamsdk@@QEAA@XZ		; streamsdk::SDKFile::SDKFile
	npad	1
; Line 264
	lea	rdx, QWORD PTR flagsPath$95814[rsp]
	mov	rax, QWORD PTR this$[rsp]
	mov	rcx, QWORD PTR [rax+16]
	call	?getPath@SDKCommon@streamsdk@@QEAA?AV?$basic_string@DU?$char_traits@D@std@@V?$allocator@D@2@@std@@XZ ; streamsdk::SDKCommon::getPath
	npad	1
; Line 265
	mov	rax, QWORD PTR this$[rsp]
	add	rax, 256				; 00000100H
	mov	rcx, rax
	call	?c_str@?$basic_string@DU?$char_traits@D@std@@V?$allocator@D@2@@std@@QEBAPEBDXZ ; std::basic_string<char,std::char_traits<char>,std::allocator<char> >::c_str
	mov	rdx, rax
	lea	rcx, QWORD PTR flagsPath$95814[rsp]
	call	?append@?$basic_string@DU?$char_traits@D@std@@V?$allocator@D@2@@std@@QEAAAEAV12@PEBD@Z ; std::basic_string<char,std::char_traits<char>,std::allocator<char> >::append
; Line 266
	lea	rcx, QWORD PTR flagsPath$95814[rsp]
	call	?c_str@?$basic_string@DU?$char_traits@D@std@@V?$allocator@D@2@@std@@QEBAPEBDXZ ; std::basic_string<char,std::char_traits<char>,std::allocator<char> >::c_str
	mov	rdx, rax
	lea	rcx, QWORD PTR flagsFile$95813[rsp]
	call	?open@SDKFile@streamsdk@@QEAA_NPEBD@Z	; streamsdk::SDKFile::open
	movzx	eax, al
	test	eax, eax
	jne	$LN31@genBinaryI
; Line 268
	lea	rdx, OFFSET FLAT:$SG95821
	lea	rcx, OFFSET FLAT:?cout@std@@3V?$basic_ostream@DU?$char_traits@D@std@@@1@A ; std::cout
	call	??$?6U?$char_traits@D@std@@@std@@YAAEAV?$basic_ostream@DU?$char_traits@D@std@@@0@AEAV10@PEBD@Z ; std::operator<<<std::char_traits<char> >
	lea	rdx, QWORD PTR flagsPath$95814[rsp]
	mov	rcx, rax
	call	??$?6DU?$char_traits@D@std@@V?$allocator@D@1@@std@@YAAEAV?$basic_ostream@DU?$char_traits@D@std@@@0@AEAV10@AEBV?$basic_string@DU?$char_traits@D@std@@V?$allocator@D@2@@0@@Z ; std::operator<<<char,std::char_traits<char>,std::allocator<char> >
	lea	rdx, OFFSET FLAT:?endl@std@@YAAEAV?$basic_ostream@DU?$char_traits@D@std@@@1@AEAV21@@Z ; std::endl
	mov	rcx, rax
	call	??6?$basic_ostream@DU?$char_traits@D@std@@@std@@QEAAAEAV01@P6AAEAV01@AEAV01@@Z@Z ; std::basic_ostream<char,std::char_traits<char> >::operator<<
; Line 269
	mov	DWORD PTR $T102593[rsp], 1
	lea	rcx, QWORD PTR flagsPath$95814[rsp]
	call	??1?$basic_string@DU?$char_traits@D@std@@V?$allocator@D@2@@std@@QEAA@XZ ; std::basic_string<char,std::char_traits<char>,std::allocator<char> >::~basic_string<char,std::char_traits<char>,std::allocator<char> >
	npad	1
	lea	rcx, QWORD PTR flagsFile$95813[rsp]
	call	??1SDKFile@streamsdk@@QEAA@XZ		; streamsdk::SDKFile::~SDKFile
	npad	1
	lea	rcx, QWORD PTR flagsStr$[rsp]
	call	??1?$basic_string@DU?$char_traits@D@std@@V?$allocator@D@2@@std@@QEAA@XZ ; std::basic_string<char,std::char_traits<char>,std::allocator<char> >::~basic_string<char,std::char_traits<char>,std::allocator<char> >
	npad	1
	lea	rcx, QWORD PTR kernelPath$[rsp]
	call	??1?$basic_string@DU?$char_traits@D@std@@V?$allocator@D@2@@std@@QEAA@XZ ; std::basic_string<char,std::char_traits<char>,std::allocator<char> >::~basic_string<char,std::char_traits<char>,std::allocator<char> >
	npad	1
	lea	rcx, QWORD PTR kernelFile$[rsp]
	call	??1SDKFile@streamsdk@@QEAA@XZ		; streamsdk::SDKFile::~SDKFile
	mov	eax, DWORD PTR $T102593[rsp]
	jmp	$LN45@genBinaryI
$LN31@genBinaryI:
; Line 271
	lea	rcx, QWORD PTR flagsFile$95813[rsp]
	call	?replaceNewlineWithSpaces@SDKFile@streamsdk@@QEAAXXZ ; streamsdk::SDKFile::replaceNewlineWithSpaces
; Line 272
	lea	rcx, QWORD PTR flagsFile$95813[rsp]
	call	?source@SDKFile@streamsdk@@QEBAAEBV?$basic_string@DU?$char_traits@D@std@@V?$allocator@D@2@@std@@XZ ; streamsdk::SDKFile::source
	mov	rcx, rax
	call	?c_str@?$basic_string@DU?$char_traits@D@std@@V?$allocator@D@2@@std@@QEBAPEBDXZ ; std::basic_string<char,std::char_traits<char>,std::allocator<char> >::c_str
	mov	QWORD PTR flags$95823[rsp], rax
; Line 273
	mov	rdx, QWORD PTR flags$95823[rsp]
	lea	rcx, QWORD PTR flagsStr$[rsp]
	call	?append@?$basic_string@DU?$char_traits@D@std@@V?$allocator@D@2@@std@@QEAAAEAV12@PEBD@Z ; std::basic_string<char,std::char_traits<char>,std::allocator<char> >::append
	npad	1
; Line 274
	lea	rcx, QWORD PTR flagsPath$95814[rsp]
	call	??1?$basic_string@DU?$char_traits@D@std@@V?$allocator@D@2@@std@@QEAA@XZ ; std::basic_string<char,std::char_traits<char>,std::allocator<char> >::~basic_string<char,std::char_traits<char>,std::allocator<char> >
	npad	1
	lea	rcx, QWORD PTR flagsFile$95813[rsp]
	call	??1SDKFile@streamsdk@@QEAA@XZ		; streamsdk::SDKFile::~SDKFile
$LN32@genBinaryI:
; Line 276
	lea	rcx, QWORD PTR flagsStr$[rsp]
	call	?size@?$basic_string@DU?$char_traits@D@std@@V?$allocator@D@2@@std@@QEBA_KXZ ; std::basic_string<char,std::char_traits<char>,std::allocator<char> >::size
	test	rax, rax
	je	SHORT $LN30@genBinaryI
; Line 277
	lea	rcx, QWORD PTR flagsStr$[rsp]
	call	?c_str@?$basic_string@DU?$char_traits@D@std@@V?$allocator@D@2@@std@@QEBAPEBDXZ ; std::basic_string<char,std::char_traits<char>,std::allocator<char> >::c_str
	mov	QWORD PTR tv395[rsp], rax
	lea	rdx, OFFSET FLAT:$SG95829
	lea	rcx, OFFSET FLAT:?cout@std@@3V?$basic_ostream@DU?$char_traits@D@std@@@1@A ; std::cout
	call	??$?6U?$char_traits@D@std@@@std@@YAAEAV?$basic_ostream@DU?$char_traits@D@std@@@0@AEAV10@PEBD@Z ; std::operator<<<std::char_traits<char> >
	mov	rcx, QWORD PTR tv395[rsp]
	mov	rdx, rcx
	mov	rcx, rax
	call	??$?6U?$char_traits@D@std@@@std@@YAAEAV?$basic_ostream@DU?$char_traits@D@std@@@0@AEAV10@PEBD@Z ; std::operator<<<std::char_traits<char> >
	lea	rdx, OFFSET FLAT:?endl@std@@YAAEAV?$basic_ostream@DU?$char_traits@D@std@@@1@AEAV21@@Z ; std::endl
	mov	rcx, rax
	call	??6?$basic_ostream@DU?$char_traits@D@std@@@std@@QEAAAEAV01@P6AAEAV01@AEAV01@@Z@Z ; std::basic_ostream<char,std::char_traits<char> >::operator<<
$LN30@genBinaryI:
; Line 286
	lea	rcx, QWORD PTR flagsStr$[rsp]
	call	?c_str@?$basic_string@DU?$char_traits@D@std@@V?$allocator@D@2@@std@@QEBAPEBDXZ ; std::basic_string<char,std::char_traits<char>,std::allocator<char> >::c_str
	mov	QWORD PTR [rsp+40], 0
	mov	QWORD PTR [rsp+32], 0
	mov	r9, rax
	xor	r8d, r8d
	xor	edx, edx
	mov	rax, QWORD PTR this$[rsp]
	mov	rcx, QWORD PTR [rax+368]
	call	clBuildProgram
	mov	DWORD PTR status$[rsp], eax
; Line 289
	lea	rax, QWORD PTR $T102594[rsp]
	mov	QWORD PTR $T102595[rsp], rax
	lea	rdx, OFFSET FLAT:$SG95831
	mov	rcx, QWORD PTR $T102595[rsp]
	call	??0?$basic_string@DU?$char_traits@D@std@@V?$allocator@D@2@@std@@QEAA@PEBD@Z ; std::basic_string<char,std::char_traits<char>,std::allocator<char> >::basic_string<char,std::char_traits<char>,std::allocator<char> >
	mov	QWORD PTR tv844[rsp], rax
	mov	BYTE PTR [rsp+32], 1
	mov	r9, QWORD PTR tv844[rsp]
	xor	r8d, r8d
	mov	edx, DWORD PTR status$[rsp]
	mov	rax, QWORD PTR this$[rsp]
	mov	rcx, QWORD PTR [rax+16]
	call	??$checkVal@H@SDKCommon@streamsdk@@QEBAHHHV?$basic_string@DU?$char_traits@D@std@@V?$allocator@D@2@@std@@_N@Z ; streamsdk::SDKCommon::checkVal<int>
; Line 295
	mov	QWORD PTR [rsp+32], 0
	lea	r9, QWORD PTR numDevices$[rsp]
	mov	r8d, 8
	mov	edx, 4450				; 00001162H
	mov	rax, QWORD PTR this$[rsp]
	mov	rcx, QWORD PTR [rax+368]
	call	clGetProgramInfo
	mov	DWORD PTR status$[rsp], eax
; Line 298
	lea	rax, QWORD PTR $T102596[rsp]
	mov	QWORD PTR $T102597[rsp], rax
	lea	rdx, OFFSET FLAT:$SG95835
	mov	rcx, QWORD PTR $T102597[rsp]
	call	??0?$basic_string@DU?$char_traits@D@std@@V?$allocator@D@2@@std@@QEAA@PEBD@Z ; std::basic_string<char,std::char_traits<char>,std::allocator<char> >::basic_string<char,std::char_traits<char>,std::allocator<char> >
	mov	QWORD PTR tv846[rsp], rax
	mov	BYTE PTR [rsp+32], 1
	mov	r9, QWORD PTR tv846[rsp]
	xor	r8d, r8d
	mov	edx, DWORD PTR status$[rsp]
	mov	rax, QWORD PTR this$[rsp]
	mov	rcx, QWORD PTR [rax+16]
	call	??$checkVal@H@SDKCommon@streamsdk@@QEBAHHHV?$basic_string@DU?$char_traits@D@std@@V?$allocator@D@2@@std@@_N@Z ; streamsdk::SDKCommon::checkVal<int>
	test	eax, eax
	jne	SHORT $LN29@genBinaryI
; Line 300
	mov	DWORD PTR $T102598[rsp], 1
	lea	rcx, QWORD PTR flagsStr$[rsp]
	call	??1?$basic_string@DU?$char_traits@D@std@@V?$allocator@D@2@@std@@QEAA@XZ ; std::basic_string<char,std::char_traits<char>,std::allocator<char> >::~basic_string<char,std::char_traits<char>,std::allocator<char> >
	npad	1
	lea	rcx, QWORD PTR kernelPath$[rsp]
	call	??1?$basic_string@DU?$char_traits@D@std@@V?$allocator@D@2@@std@@QEAA@XZ ; std::basic_string<char,std::char_traits<char>,std::allocator<char> >::~basic_string<char,std::char_traits<char>,std::allocator<char> >
	npad	1
	lea	rcx, QWORD PTR kernelFile$[rsp]
	call	??1SDKFile@streamsdk@@QEAA@XZ		; streamsdk::SDKFile::~SDKFile
	mov	eax, DWORD PTR $T102598[rsp]
	jmp	$LN45@genBinaryI
$LN29@genBinaryI:
; Line 303
	lea	rdx, OFFSET FLAT:$SG95857
	lea	rcx, OFFSET FLAT:?cout@std@@3V?$basic_ostream@DU?$char_traits@D@std@@@1@A ; std::cout
	call	??$?6U?$char_traits@D@std@@@std@@YAAEAV?$basic_ostream@DU?$char_traits@D@std@@@0@AEAV10@PEBD@Z ; std::operator<<<std::char_traits<char> >
	mov	rdx, QWORD PTR numDevices$[rsp]
	mov	rcx, rax
	call	??6?$basic_ostream@DU?$char_traits@D@std@@@std@@QEAAAEAV01@_K@Z ; std::basic_ostream<char,std::char_traits<char> >::operator<<
	lea	rdx, OFFSET FLAT:$SG95856
	mov	rcx, rax
	call	??$?6U?$char_traits@D@std@@@std@@YAAEAV?$basic_ostream@DU?$char_traits@D@std@@@0@AEAV10@PEBD@Z ; std::operator<<<std::char_traits<char> >
; Line 304
	mov	rax, QWORD PTR numDevices$[rsp]
	shl	rax, 3
	mov	rcx, rax
	call	malloc
	mov	rcx, QWORD PTR this$[rsp]
	mov	QWORD PTR [rcx+328], rax
; Line 305
	mov	rax, QWORD PTR this$[rsp]
	cmp	QWORD PTR [rax+328], 0
	jne	SHORT $LN28@genBinaryI
; Line 307
	lea	rdx, OFFSET FLAT:$SG95861
	mov	rax, QWORD PTR this$[rsp]
	mov	rcx, QWORD PTR [rax+16]
	call	?error@SDKCommon@streamsdk@@QEBAXPEBD@Z	; streamsdk::SDKCommon::error
; Line 308
	mov	DWORD PTR $T102599[rsp], 1
	lea	rcx, QWORD PTR flagsStr$[rsp]
	call	??1?$basic_string@DU?$char_traits@D@std@@V?$allocator@D@2@@std@@QEAA@XZ ; std::basic_string<char,std::char_traits<char>,std::allocator<char> >::~basic_string<char,std::char_traits<char>,std::allocator<char> >
	npad	1
	lea	rcx, QWORD PTR kernelPath$[rsp]
	call	??1?$basic_string@DU?$char_traits@D@std@@V?$allocator@D@2@@std@@QEAA@XZ ; std::basic_string<char,std::char_traits<char>,std::allocator<char> >::~basic_string<char,std::char_traits<char>,std::allocator<char> >
	npad	1
	lea	rcx, QWORD PTR kernelFile$[rsp]
	call	??1SDKFile@streamsdk@@QEAA@XZ		; streamsdk::SDKFile::~SDKFile
	mov	eax, DWORD PTR $T102599[rsp]
	jmp	$LN45@genBinaryI
$LN28@genBinaryI:
; Line 315
	mov	rax, QWORD PTR numDevices$[rsp]
	shl	rax, 3
	mov	QWORD PTR [rsp+32], 0
	mov	rcx, QWORD PTR this$[rsp]
	mov	r9, QWORD PTR [rcx+328]
	mov	r8, rax
	mov	edx, 4451				; 00001163H
	mov	rax, QWORD PTR this$[rsp]
	mov	rcx, QWORD PTR [rax+368]
	call	clGetProgramInfo
	mov	DWORD PTR status$[rsp], eax
; Line 318
	lea	rax, QWORD PTR $T102600[rsp]
	mov	QWORD PTR $T102601[rsp], rax
	lea	rdx, OFFSET FLAT:$SG95866
	mov	rcx, QWORD PTR $T102601[rsp]
	call	??0?$basic_string@DU?$char_traits@D@std@@V?$allocator@D@2@@std@@QEAA@PEBD@Z ; std::basic_string<char,std::char_traits<char>,std::allocator<char> >::basic_string<char,std::char_traits<char>,std::allocator<char> >
	mov	QWORD PTR tv854[rsp], rax
	mov	BYTE PTR [rsp+32], 1
	mov	r9, QWORD PTR tv854[rsp]
	xor	r8d, r8d
	mov	edx, DWORD PTR status$[rsp]
	mov	rax, QWORD PTR this$[rsp]
	mov	rcx, QWORD PTR [rax+16]
	call	??$checkVal@H@SDKCommon@streamsdk@@QEBAHHHV?$basic_string@DU?$char_traits@D@std@@V?$allocator@D@2@@std@@_N@Z ; streamsdk::SDKCommon::checkVal<int>
	test	eax, eax
	jne	SHORT $LN27@genBinaryI
; Line 320
	mov	DWORD PTR $T102602[rsp], 1
	lea	rcx, QWORD PTR flagsStr$[rsp]
	call	??1?$basic_string@DU?$char_traits@D@std@@V?$allocator@D@2@@std@@QEAA@XZ ; std::basic_string<char,std::char_traits<char>,std::allocator<char> >::~basic_string<char,std::char_traits<char>,std::allocator<char> >
	npad	1
	lea	rcx, QWORD PTR kernelPath$[rsp]
	call	??1?$basic_string@DU?$char_traits@D@std@@V?$allocator@D@2@@std@@QEAA@XZ ; std::basic_string<char,std::char_traits<char>,std::allocator<char> >::~basic_string<char,std::char_traits<char>,std::allocator<char> >
	npad	1
	lea	rcx, QWORD PTR kernelFile$[rsp]
	call	??1SDKFile@streamsdk@@QEAA@XZ		; streamsdk::SDKFile::~SDKFile
	mov	eax, DWORD PTR $T102602[rsp]
	jmp	$LN45@genBinaryI
$LN27@genBinaryI:
; Line 325
	mov	rax, QWORD PTR numDevices$[rsp]
	shl	rax, 3
	mov	rcx, rax
	call	malloc
	mov	QWORD PTR binarySizes$[rsp], rax
; Line 326
	mov	rax, QWORD PTR this$[rsp]
	cmp	QWORD PTR [rax+328], 0
	jne	SHORT $LN26@genBinaryI
; Line 328
	lea	rdx, OFFSET FLAT:$SG95872
	mov	rax, QWORD PTR this$[rsp]
	mov	rcx, QWORD PTR [rax+16]
	call	?error@SDKCommon@streamsdk@@QEBAXPEBD@Z	; streamsdk::SDKCommon::error
; Line 329
	mov	DWORD PTR $T102603[rsp], 1
	lea	rcx, QWORD PTR flagsStr$[rsp]
	call	??1?$basic_string@DU?$char_traits@D@std@@V?$allocator@D@2@@std@@QEAA@XZ ; std::basic_string<char,std::char_traits<char>,std::allocator<char> >::~basic_string<char,std::char_traits<char>,std::allocator<char> >
	npad	1
	lea	rcx, QWORD PTR kernelPath$[rsp]
	call	??1?$basic_string@DU?$char_traits@D@std@@V?$allocator@D@2@@std@@QEAA@XZ ; std::basic_string<char,std::char_traits<char>,std::allocator<char> >::~basic_string<char,std::char_traits<char>,std::allocator<char> >
	npad	1
	lea	rcx, QWORD PTR kernelFile$[rsp]
	call	??1SDKFile@streamsdk@@QEAA@XZ		; streamsdk::SDKFile::~SDKFile
	mov	eax, DWORD PTR $T102603[rsp]
	jmp	$LN45@genBinaryI
$LN26@genBinaryI:
; Line 335
	mov	rax, QWORD PTR numDevices$[rsp]
	shl	rax, 3
	mov	QWORD PTR [rsp+32], 0
	mov	r9, QWORD PTR binarySizes$[rsp]
	mov	r8, rax
	mov	edx, 4453				; 00001165H
	mov	rax, QWORD PTR this$[rsp]
	mov	rcx, QWORD PTR [rax+368]
	call	clGetProgramInfo
	mov	DWORD PTR status$[rsp], eax
; Line 338
	lea	rax, QWORD PTR $T102604[rsp]
	mov	QWORD PTR $T102605[rsp], rax
	lea	rdx, OFFSET FLAT:$SG95877
	mov	rcx, QWORD PTR $T102605[rsp]
	call	??0?$basic_string@DU?$char_traits@D@std@@V?$allocator@D@2@@std@@QEAA@PEBD@Z ; std::basic_string<char,std::char_traits<char>,std::allocator<char> >::basic_string<char,std::char_traits<char>,std::allocator<char> >
	mov	QWORD PTR tv862[rsp], rax
	mov	BYTE PTR [rsp+32], 1
	mov	r9, QWORD PTR tv862[rsp]
	xor	r8d, r8d
	mov	edx, DWORD PTR status$[rsp]
	mov	rax, QWORD PTR this$[rsp]
	mov	rcx, QWORD PTR [rax+16]
	call	??$checkVal@H@SDKCommon@streamsdk@@QEBAHHHV?$basic_string@DU?$char_traits@D@std@@V?$allocator@D@2@@std@@_N@Z ; streamsdk::SDKCommon::checkVal<int>
	test	eax, eax
	jne	SHORT $LN25@genBinaryI
; Line 340
	mov	DWORD PTR $T102606[rsp], 1
	lea	rcx, QWORD PTR flagsStr$[rsp]
	call	??1?$basic_string@DU?$char_traits@D@std@@V?$allocator@D@2@@std@@QEAA@XZ ; std::basic_string<char,std::char_traits<char>,std::allocator<char> >::~basic_string<char,std::char_traits<char>,std::allocator<char> >
	npad	1
	lea	rcx, QWORD PTR kernelPath$[rsp]
	call	??1?$basic_string@DU?$char_traits@D@std@@V?$allocator@D@2@@std@@QEAA@XZ ; std::basic_string<char,std::char_traits<char>,std::allocator<char> >::~basic_string<char,std::char_traits<char>,std::allocator<char> >
	npad	1
	lea	rcx, QWORD PTR kernelFile$[rsp]
	call	??1SDKFile@streamsdk@@QEAA@XZ		; streamsdk::SDKFile::~SDKFile
	mov	eax, DWORD PTR $T102606[rsp]
	jmp	$LN45@genBinaryI
$LN25@genBinaryI:
; Line 343
	mov	QWORD PTR i$[rsp], 0
; Line 345
	mov	rax, QWORD PTR numDevices$[rsp]
	shl	rax, 3
	mov	rcx, rax
	call	malloc
	mov	QWORD PTR binaries$[rsp], rax
; Line 346
	cmp	QWORD PTR binaries$[rsp], 0
	jne	SHORT $LN24@genBinaryI
; Line 348
	lea	rdx, OFFSET FLAT:$SG95884
	mov	rax, QWORD PTR this$[rsp]
	mov	rcx, QWORD PTR [rax+16]
	call	?error@SDKCommon@streamsdk@@QEBAXPEBD@Z	; streamsdk::SDKCommon::error
; Line 349
	mov	DWORD PTR $T102607[rsp], 1
	lea	rcx, QWORD PTR flagsStr$[rsp]
	call	??1?$basic_string@DU?$char_traits@D@std@@V?$allocator@D@2@@std@@QEAA@XZ ; std::basic_string<char,std::char_traits<char>,std::allocator<char> >::~basic_string<char,std::char_traits<char>,std::allocator<char> >
	npad	1
	lea	rcx, QWORD PTR kernelPath$[rsp]
	call	??1?$basic_string@DU?$char_traits@D@std@@V?$allocator@D@2@@std@@QEAA@XZ ; std::basic_string<char,std::char_traits<char>,std::allocator<char> >::~basic_string<char,std::char_traits<char>,std::allocator<char> >
	npad	1
	lea	rcx, QWORD PTR kernelFile$[rsp]
	call	??1SDKFile@streamsdk@@QEAA@XZ		; streamsdk::SDKFile::~SDKFile
	mov	eax, DWORD PTR $T102607[rsp]
	jmp	$LN45@genBinaryI
$LN24@genBinaryI:
; Line 352
	mov	QWORD PTR i$[rsp], 0
	jmp	SHORT $LN23@genBinaryI
$LN22@genBinaryI:
	mov	rax, QWORD PTR i$[rsp]
	inc	rax
	mov	QWORD PTR i$[rsp], rax
$LN23@genBinaryI:
	mov	rax, QWORD PTR numDevices$[rsp]
	cmp	QWORD PTR i$[rsp], rax
	jae	$LN21@genBinaryI
; Line 354
	mov	rax, QWORD PTR binarySizes$[rsp]
	mov	rcx, QWORD PTR i$[rsp]
	cmp	QWORD PTR [rax+rcx*8], 0
	je	$LN20@genBinaryI
; Line 356
	mov	rax, QWORD PTR binarySizes$[rsp]
	mov	rcx, QWORD PTR i$[rsp]
	mov	rcx, QWORD PTR [rax+rcx*8]
	call	malloc
	mov	rcx, QWORD PTR binaries$[rsp]
	mov	rdx, QWORD PTR i$[rsp]
	mov	QWORD PTR [rcx+rdx*8], rax
; Line 357
	mov	rax, QWORD PTR binaries$[rsp]
	mov	rcx, QWORD PTR i$[rsp]
	cmp	QWORD PTR [rax+rcx*8], 0
	jne	SHORT $LN19@genBinaryI
; Line 359
	lea	rdx, OFFSET FLAT:$SG95893
	mov	rax, QWORD PTR this$[rsp]
	mov	rcx, QWORD PTR [rax+16]
	call	?error@SDKCommon@streamsdk@@QEBAXPEBD@Z	; streamsdk::SDKCommon::error
; Line 360
	mov	DWORD PTR $T102608[rsp], 1
	lea	rcx, QWORD PTR flagsStr$[rsp]
	call	??1?$basic_string@DU?$char_traits@D@std@@V?$allocator@D@2@@std@@QEAA@XZ ; std::basic_string<char,std::char_traits<char>,std::allocator<char> >::~basic_string<char,std::char_traits<char>,std::allocator<char> >
	npad	1
	lea	rcx, QWORD PTR kernelPath$[rsp]
	call	??1?$basic_string@DU?$char_traits@D@std@@V?$allocator@D@2@@std@@QEAA@XZ ; std::basic_string<char,std::char_traits<char>,std::allocator<char> >::~basic_string<char,std::char_traits<char>,std::allocator<char> >
	npad	1
	lea	rcx, QWORD PTR kernelFile$[rsp]
	call	??1SDKFile@streamsdk@@QEAA@XZ		; streamsdk::SDKFile::~SDKFile
	mov	eax, DWORD PTR $T102608[rsp]
	jmp	$LN45@genBinaryI
$LN19@genBinaryI:
; Line 363
	jmp	SHORT $LN18@genBinaryI
$LN20@genBinaryI:
; Line 365
	mov	rax, QWORD PTR binaries$[rsp]
	mov	rcx, QWORD PTR i$[rsp]
	mov	QWORD PTR [rax+rcx*8], 0
$LN18@genBinaryI:
; Line 367
	jmp	$LN22@genBinaryI
$LN21@genBinaryI:
; Line 372
	mov	rax, QWORD PTR numDevices$[rsp]
	shl	rax, 3
	mov	QWORD PTR [rsp+32], 0
	mov	r9, QWORD PTR binaries$[rsp]
	mov	r8, rax
	mov	edx, 4454				; 00001166H
	mov	rax, QWORD PTR this$[rsp]
	mov	rcx, QWORD PTR [rax+368]
	call	clGetProgramInfo
	mov	DWORD PTR status$[rsp], eax
; Line 375
	lea	rax, QWORD PTR $T102609[rsp]
	mov	QWORD PTR $T102610[rsp], rax
	lea	rdx, OFFSET FLAT:$SG95899
	mov	rcx, QWORD PTR $T102610[rsp]
	call	??0?$basic_string@DU?$char_traits@D@std@@V?$allocator@D@2@@std@@QEAA@PEBD@Z ; std::basic_string<char,std::char_traits<char>,std::allocator<char> >::basic_string<char,std::char_traits<char>,std::allocator<char> >
	mov	QWORD PTR tv873[rsp], rax
	mov	BYTE PTR [rsp+32], 1
	mov	r9, QWORD PTR tv873[rsp]
	xor	r8d, r8d
	mov	edx, DWORD PTR status$[rsp]
	mov	rax, QWORD PTR this$[rsp]
	mov	rcx, QWORD PTR [rax+16]
	call	??$checkVal@H@SDKCommon@streamsdk@@QEBAHHHV?$basic_string@DU?$char_traits@D@std@@V?$allocator@D@2@@std@@_N@Z ; streamsdk::SDKCommon::checkVal<int>
	test	eax, eax
	jne	SHORT $LN17@genBinaryI
; Line 377
	mov	DWORD PTR $T102611[rsp], 1
	lea	rcx, QWORD PTR flagsStr$[rsp]
	call	??1?$basic_string@DU?$char_traits@D@std@@V?$allocator@D@2@@std@@QEAA@XZ ; std::basic_string<char,std::char_traits<char>,std::allocator<char> >::~basic_string<char,std::char_traits<char>,std::allocator<char> >
	npad	1
	lea	rcx, QWORD PTR kernelPath$[rsp]
	call	??1?$basic_string@DU?$char_traits@D@std@@V?$allocator@D@2@@std@@QEAA@XZ ; std::basic_string<char,std::char_traits<char>,std::allocator<char> >::~basic_string<char,std::char_traits<char>,std::allocator<char> >
	npad	1
	lea	rcx, QWORD PTR kernelFile$[rsp]
	call	??1SDKFile@streamsdk@@QEAA@XZ		; streamsdk::SDKFile::~SDKFile
	mov	eax, DWORD PTR $T102611[rsp]
	jmp	$LN45@genBinaryI
$LN17@genBinaryI:
; Line 381
	mov	QWORD PTR i$[rsp], 0
	jmp	SHORT $LN16@genBinaryI
$LN15@genBinaryI:
	mov	rax, QWORD PTR i$[rsp]
	inc	rax
	mov	QWORD PTR i$[rsp], rax
$LN16@genBinaryI:
	mov	rax, QWORD PTR numDevices$[rsp]
	cmp	QWORD PTR i$[rsp], rax
	jae	$LN14@genBinaryI
; Line 384
	mov	rax, QWORD PTR this$[rsp]
	add	rax, 160				; 000000a0H
	mov	rcx, rax
	call	?c_str@?$basic_string@DU?$char_traits@D@std@@V?$allocator@D@2@@std@@QEBAPEBDXZ ; std::basic_string<char,std::char_traits<char>,std::allocator<char> >::c_str
	mov	r9d, DWORD PTR i$[rsp]
	mov	r8, rax
	lea	rdx, OFFSET FLAT:$SG95906
	lea	rcx, QWORD PTR fileName$95904[rsp]
	call	sprintf
; Line 385
	mov	rax, QWORD PTR binarySizes$[rsp]
	mov	rcx, QWORD PTR i$[rsp]
	cmp	QWORD PTR [rax+rcx*8], 0
	je	$LN13@genBinaryI
; Line 392
	mov	rax, QWORD PTR this$[rsp]
	mov	rax, QWORD PTR [rax+328]
	mov	QWORD PTR [rsp+32], 0
	lea	r9, QWORD PTR deviceName$95908[rsp]
	mov	r8d, 1024				; 00000400H
	mov	edx, 4139				; 0000102bH
	mov	rcx, QWORD PTR i$[rsp]
	mov	rcx, QWORD PTR [rax+rcx*8]
	call	clGetDeviceInfo
	mov	DWORD PTR status$[rsp], eax
; Line 395
	lea	rax, QWORD PTR $T102612[rsp]
	mov	QWORD PTR $T102613[rsp], rax
	lea	rdx, OFFSET FLAT:$SG95911
	mov	rcx, QWORD PTR $T102613[rsp]
	call	??0?$basic_string@DU?$char_traits@D@std@@V?$allocator@D@2@@std@@QEAA@PEBD@Z ; std::basic_string<char,std::char_traits<char>,std::allocator<char> >::basic_string<char,std::char_traits<char>,std::allocator<char> >
	mov	QWORD PTR tv878[rsp], rax
	mov	BYTE PTR [rsp+32], 1
	mov	r9, QWORD PTR tv878[rsp]
	xor	r8d, r8d
	mov	edx, DWORD PTR status$[rsp]
	mov	rax, QWORD PTR this$[rsp]
	mov	rcx, QWORD PTR [rax+16]
	call	??$checkVal@H@SDKCommon@streamsdk@@QEBAHHHV?$basic_string@DU?$char_traits@D@std@@V?$allocator@D@2@@std@@_N@Z ; streamsdk::SDKCommon::checkVal<int>
	test	eax, eax
	jne	SHORT $LN12@genBinaryI
; Line 397
	mov	DWORD PTR $T102614[rsp], 1
	lea	rcx, QWORD PTR flagsStr$[rsp]
	call	??1?$basic_string@DU?$char_traits@D@std@@V?$allocator@D@2@@std@@QEAA@XZ ; std::basic_string<char,std::char_traits<char>,std::allocator<char> >::~basic_string<char,std::char_traits<char>,std::allocator<char> >
	npad	1
	lea	rcx, QWORD PTR kernelPath$[rsp]
	call	??1?$basic_string@DU?$char_traits@D@std@@V?$allocator@D@2@@std@@QEAA@XZ ; std::basic_string<char,std::char_traits<char>,std::allocator<char> >::~basic_string<char,std::char_traits<char>,std::allocator<char> >
	npad	1
	lea	rcx, QWORD PTR kernelFile$[rsp]
	call	??1SDKFile@streamsdk@@QEAA@XZ		; streamsdk::SDKFile::~SDKFile
	mov	eax, DWORD PTR $T102614[rsp]
	jmp	$LN45@genBinaryI
$LN12@genBinaryI:
; Line 400
	lea	r8, QWORD PTR fileName$95904[rsp]
	lea	rdx, QWORD PTR deviceName$95908[rsp]
	lea	rcx, OFFSET FLAT:$SG95913
	call	printf
; Line 401
	lea	rcx, QWORD PTR BinaryFile$95914[rsp]
	call	??0SDKFile@streamsdk@@QEAA@XZ		; streamsdk::SDKFile::SDKFile
	npad	1
; Line 404
	mov	rax, QWORD PTR binarySizes$[rsp]
	mov	rcx, QWORD PTR i$[rsp]
	mov	r9, QWORD PTR [rax+rcx*8]
	mov	rax, QWORD PTR binaries$[rsp]
	mov	rcx, QWORD PTR i$[rsp]
	mov	r8, QWORD PTR [rax+rcx*8]
	lea	rdx, QWORD PTR fileName$95904[rsp]
	lea	rcx, QWORD PTR BinaryFile$95914[rsp]
	call	?writeBinaryToFile@SDKFile@streamsdk@@QEAA_NPEBD0_K@Z ; streamsdk::SDKFile::writeBinaryToFile
	movzx	eax, al
	test	eax, eax
	jne	$LN11@genBinaryI
; Line 406
	lea	rdx, OFFSET FLAT:$SG95920
	lea	rcx, OFFSET FLAT:?cout@std@@3V?$basic_ostream@DU?$char_traits@D@std@@@1@A ; std::cout
	call	??$?6U?$char_traits@D@std@@@std@@YAAEAV?$basic_ostream@DU?$char_traits@D@std@@@0@AEAV10@PEBD@Z ; std::operator<<<std::char_traits<char> >
	lea	rdx, QWORD PTR fileName$95904[rsp]
	mov	rcx, rax
	call	??$?6U?$char_traits@D@std@@@std@@YAAEAV?$basic_ostream@DU?$char_traits@D@std@@@0@AEAV10@PEBD@Z ; std::operator<<<std::char_traits<char> >
	lea	rdx, OFFSET FLAT:?endl@std@@YAAEAV?$basic_ostream@DU?$char_traits@D@std@@@1@AEAV21@@Z ; std::endl
	mov	rcx, rax
	call	??6?$basic_ostream@DU?$char_traits@D@std@@@std@@QEAAAEAV01@P6AAEAV01@AEAV01@@Z@Z ; std::basic_ostream<char,std::char_traits<char> >::operator<<
; Line 407
	mov	DWORD PTR $T102615[rsp], 1
	lea	rcx, QWORD PTR BinaryFile$95914[rsp]
	call	??1SDKFile@streamsdk@@QEAA@XZ		; streamsdk::SDKFile::~SDKFile
	npad	1
	lea	rcx, QWORD PTR flagsStr$[rsp]
	call	??1?$basic_string@DU?$char_traits@D@std@@V?$allocator@D@2@@std@@QEAA@XZ ; std::basic_string<char,std::char_traits<char>,std::allocator<char> >::~basic_string<char,std::char_traits<char>,std::allocator<char> >
	npad	1
	lea	rcx, QWORD PTR kernelPath$[rsp]
	call	??1?$basic_string@DU?$char_traits@D@std@@V?$allocator@D@2@@std@@QEAA@XZ ; std::basic_string<char,std::char_traits<char>,std::allocator<char> >::~basic_string<char,std::char_traits<char>,std::allocator<char> >
	npad	1
	lea	rcx, QWORD PTR kernelFile$[rsp]
	call	??1SDKFile@streamsdk@@QEAA@XZ		; streamsdk::SDKFile::~SDKFile
	mov	eax, DWORD PTR $T102615[rsp]
	jmp	$LN45@genBinaryI
$LN11@genBinaryI:
; Line 409
	lea	rcx, QWORD PTR BinaryFile$95914[rsp]
	call	??1SDKFile@streamsdk@@QEAA@XZ		; streamsdk::SDKFile::~SDKFile
; Line 410
	jmp	SHORT $LN10@genBinaryI
$LN13@genBinaryI:
; Line 413
	lea	rdx, QWORD PTR fileName$95904[rsp]
	lea	rcx, OFFSET FLAT:$SG95923
	call	printf
$LN10@genBinaryI:
; Line 415
	jmp	$LN15@genBinaryI
$LN14@genBinaryI:
; Line 418
	mov	QWORD PTR i$[rsp], 0
	jmp	SHORT $LN9@genBinaryI
$LN8@genBinaryI:
	mov	rax, QWORD PTR i$[rsp]
	inc	rax
	mov	QWORD PTR i$[rsp], rax
$LN9@genBinaryI:
	mov	rax, QWORD PTR numDevices$[rsp]
	cmp	QWORD PTR i$[rsp], rax
	jae	SHORT $LN7@genBinaryI
; Line 420
	mov	rax, QWORD PTR binaries$[rsp]
	mov	rcx, QWORD PTR i$[rsp]
	cmp	QWORD PTR [rax+rcx*8], 0
	je	SHORT $LN6@genBinaryI
; Line 422
	mov	rax, QWORD PTR binaries$[rsp]
	mov	rcx, QWORD PTR i$[rsp]
	mov	rcx, QWORD PTR [rax+rcx*8]
	call	free
; Line 423
	mov	rax, QWORD PTR binaries$[rsp]
	mov	rcx, QWORD PTR i$[rsp]
	mov	QWORD PTR [rax+rcx*8], 0
$LN6@genBinaryI:
; Line 425
	jmp	SHORT $LN8@genBinaryI
$LN7@genBinaryI:
; Line 427
	cmp	QWORD PTR binaries$[rsp], 0
	je	SHORT $LN5@genBinaryI
; Line 429
	mov	rcx, QWORD PTR binaries$[rsp]
	call	free
; Line 430
	mov	QWORD PTR binaries$[rsp], 0
$LN5@genBinaryI:
; Line 433
	cmp	QWORD PTR binarySizes$[rsp], 0
	je	SHORT $LN4@genBinaryI
; Line 435
	mov	rcx, QWORD PTR binarySizes$[rsp]
	call	free
; Line 436
	mov	QWORD PTR binarySizes$[rsp], 0
$LN4@genBinaryI:
; Line 439
	mov	rax, QWORD PTR this$[rsp]
	cmp	QWORD PTR [rax+328], 0
	je	SHORT $LN3@genBinaryI
; Line 441
	mov	rax, QWORD PTR this$[rsp]
	mov	rcx, QWORD PTR [rax+328]
	call	free
; Line 442
	mov	rax, QWORD PTR this$[rsp]
	mov	QWORD PTR [rax+328], 0
$LN3@genBinaryI:
; Line 445
	mov	rax, QWORD PTR this$[rsp]
	mov	rcx, QWORD PTR [rax+368]
	call	clReleaseProgram
	mov	DWORD PTR status$[rsp], eax
; Line 448
	lea	rax, QWORD PTR $T102616[rsp]
	mov	QWORD PTR $T102617[rsp], rax
	lea	rdx, OFFSET FLAT:$SG95933
	mov	rcx, QWORD PTR $T102617[rsp]
	call	??0?$basic_string@DU?$char_traits@D@std@@V?$allocator@D@2@@std@@QEAA@PEBD@Z ; std::basic_string<char,std::char_traits<char>,std::allocator<char> >::basic_string<char,std::char_traits<char>,std::allocator<char> >
	mov	QWORD PTR tv888[rsp], rax
	mov	BYTE PTR [rsp+32], 1
	mov	r9, QWORD PTR tv888[rsp]
	xor	r8d, r8d
	mov	edx, DWORD PTR status$[rsp]
	mov	rax, QWORD PTR this$[rsp]
	mov	rcx, QWORD PTR [rax+16]
	call	??$checkVal@H@SDKCommon@streamsdk@@QEBAHHHV?$basic_string@DU?$char_traits@D@std@@V?$allocator@D@2@@std@@_N@Z ; streamsdk::SDKCommon::checkVal<int>
	test	eax, eax
	jne	SHORT $LN2@genBinaryI
; Line 450
	mov	DWORD PTR $T102618[rsp], 1
	lea	rcx, QWORD PTR flagsStr$[rsp]
	call	??1?$basic_string@DU?$char_traits@D@std@@V?$allocator@D@2@@std@@QEAA@XZ ; std::basic_string<char,std::char_traits<char>,std::allocator<char> >::~basic_string<char,std::char_traits<char>,std::allocator<char> >
	npad	1
	lea	rcx, QWORD PTR kernelPath$[rsp]
	call	??1?$basic_string@DU?$char_traits@D@std@@V?$allocator@D@2@@std@@QEAA@XZ ; std::basic_string<char,std::char_traits<char>,std::allocator<char> >::~basic_string<char,std::char_traits<char>,std::allocator<char> >
	npad	1
	lea	rcx, QWORD PTR kernelFile$[rsp]
	call	??1SDKFile@streamsdk@@QEAA@XZ		; streamsdk::SDKFile::~SDKFile
	mov	eax, DWORD PTR $T102618[rsp]
	jmp	$LN45@genBinaryI
$LN2@genBinaryI:
; Line 453
	mov	rax, QWORD PTR this$[rsp]
	mov	rcx, QWORD PTR [rax+320]
	call	clReleaseContext
	mov	DWORD PTR status$[rsp], eax
; Line 456
	lea	rax, QWORD PTR $T102619[rsp]
	mov	QWORD PTR $T102620[rsp], rax
	lea	rdx, OFFSET FLAT:$SG95937
	mov	rcx, QWORD PTR $T102620[rsp]
	call	??0?$basic_string@DU?$char_traits@D@std@@V?$allocator@D@2@@std@@QEAA@PEBD@Z ; std::basic_string<char,std::char_traits<char>,std::allocator<char> >::basic_string<char,std::char_traits<char>,std::allocator<char> >
	mov	QWORD PTR tv893[rsp], rax
	mov	BYTE PTR [rsp+32], 1
	mov	r9, QWORD PTR tv893[rsp]
	xor	r8d, r8d
	mov	edx, DWORD PTR status$[rsp]
	mov	rax, QWORD PTR this$[rsp]
	mov	rcx, QWORD PTR [rax+16]
	call	??$checkVal@H@SDKCommon@streamsdk@@QEBAHHHV?$basic_string@DU?$char_traits@D@std@@V?$allocator@D@2@@std@@_N@Z ; streamsdk::SDKCommon::checkVal<int>
	test	eax, eax
	jne	SHORT $LN1@genBinaryI
; Line 458
	mov	DWORD PTR $T102621[rsp], 1
	lea	rcx, QWORD PTR flagsStr$[rsp]
	call	??1?$basic_string@DU?$char_traits@D@std@@V?$allocator@D@2@@std@@QEAA@XZ ; std::basic_string<char,std::char_traits<char>,std::allocator<char> >::~basic_string<char,std::char_traits<char>,std::allocator<char> >
	npad	1
	lea	rcx, QWORD PTR kernelPath$[rsp]
	call	??1?$basic_string@DU?$char_traits@D@std@@V?$allocator@D@2@@std@@QEAA@XZ ; std::basic_string<char,std::char_traits<char>,std::allocator<char> >::~basic_string<char,std::char_traits<char>,std::allocator<char> >
	npad	1
	lea	rcx, QWORD PTR kernelFile$[rsp]
	call	??1SDKFile@streamsdk@@QEAA@XZ		; streamsdk::SDKFile::~SDKFile
	mov	eax, DWORD PTR $T102621[rsp]
	jmp	SHORT $LN45@genBinaryI
$LN1@genBinaryI:
; Line 461
	mov	DWORD PTR $T102622[rsp], 0
	lea	rcx, QWORD PTR flagsStr$[rsp]
	call	??1?$basic_string@DU?$char_traits@D@std@@V?$allocator@D@2@@std@@QEAA@XZ ; std::basic_string<char,std::char_traits<char>,std::allocator<char> >::~basic_string<char,std::char_traits<char>,std::allocator<char> >
	npad	1
	lea	rcx, QWORD PTR kernelPath$[rsp]
	call	??1?$basic_string@DU?$char_traits@D@std@@V?$allocator@D@2@@std@@QEAA@XZ ; std::basic_string<char,std::char_traits<char>,std::allocator<char> >::~basic_string<char,std::char_traits<char>,std::allocator<char> >
	npad	1
	lea	rcx, QWORD PTR kernelFile$[rsp]
	call	??1SDKFile@streamsdk@@QEAA@XZ		; streamsdk::SDKFile::~SDKFile
	mov	eax, DWORD PTR $T102622[rsp]
$LN45@genBinaryI:
; Line 462
	mov	rdi, rax
	mov	rcx, rsp
	lea	rdx, OFFSET FLAT:?genBinaryImage@SimpleConvolution@@UEAAHXZ$rtcFrameData
	call	_RTC_CheckStackVars
	mov	rax, rdi
	mov	rcx, QWORD PTR __$ArrayPad$[rsp]
	xor	rcx, rsp
	call	__security_check_cookie
	add	rsp, 3088				; 00000c10H
	pop	rdi
	ret	0
?genBinaryImage@SimpleConvolution@@UEAAHXZ ENDP		; SimpleConvolution::genBinaryImage
; Function compile flags: /Odtp /RTCsu
_TEXT	ENDS
text$x	SEGMENT
status$ = 52
numPlatforms$ = 84
platform$ = 104
platforms$95713 = 112
platformName$95719 = 144
i$95720 = 260
cps$ = 280
kernelFile$ = 344
kernelPath$ = 424
source$ = 504
sourceSize$ = 536
flagsStr$ = 568
flagsFile$95813 = 648
flagsPath$95814 = 728
flags$95823 = 792
numDevices$ = 808
binarySizes$ = 824
i$ = 832
binaries$ = 840
fileName$95904 = 864
deviceName$95908 = 1008
BinaryFile$95914 = 2056
$T102579 = 2128
$T102580 = 2176
$T102581 = 2184
$T102582 = 2192
$T102583 = 2240
$T102584 = 2248
$T102585 = 2296
$T102586 = 2304
$T102587 = 2312
$T102588 = 2360
$T102589 = 2368
$T102590 = 2376
$T102591 = 2424
$T102592 = 2432
$T102593 = 2436
$T102594 = 2440
$T102595 = 2488
$T102596 = 2496
$T102597 = 2544
$T102598 = 2552
$T102599 = 2556
$T102600 = 2560
$T102601 = 2608
$T102602 = 2616
$T102603 = 2620
$T102604 = 2624
$T102605 = 2672
$T102606 = 2680
$T102607 = 2684
$T102608 = 2688
$T102609 = 2696
$T102610 = 2744
$T102611 = 2752
$T102612 = 2760
$T102613 = 2808
$T102614 = 2816
$T102615 = 2820
$T102616 = 2824
$T102617 = 2872
$T102618 = 2880
$T102619 = 2888
$T102620 = 2936
$T102621 = 2944
$T102622 = 2948
$T102665 = 2952
tv788 = 2960
tv91 = 2968
tv790 = 2976
tv792 = 2984
tv794 = 2992
tv832 = 3000
tv395 = 3008
tv844 = 3016
tv846 = 3024
tv854 = 3032
tv862 = 3040
tv873 = 3048
tv878 = 3056
tv888 = 3064
tv893 = 3072
__$ArrayPad$ = 3080
this$ = 3104
?dtor$4@?0??genBinaryImage@SimpleConvolution@@UEAAHXZ@4HA PROC ; `SimpleConvolution::genBinaryImage'::`1'::dtor$4
	mov	QWORD PTR [rsp+8], rcx
	mov	QWORD PTR [rsp+16], rdx
	push	rbp
	push	rdi
	sub	rsp, 40					; 00000028H
	mov	rbp, rdx
	lea	rcx, QWORD PTR kernelFile$[rbp]
	call	??1SDKFile@streamsdk@@QEAA@XZ		; streamsdk::SDKFile::~SDKFile
	add	rsp, 40					; 00000028H
	pop	rdi
	pop	rbp
	ret	0
?dtor$4@?0??genBinaryImage@SimpleConvolution@@UEAAHXZ@4HA ENDP ; `SimpleConvolution::genBinaryImage'::`1'::dtor$4
; Function compile flags: /Odtp /RTCsu
status$ = 52
numPlatforms$ = 84
platform$ = 104
platforms$95713 = 112
platformName$95719 = 144
i$95720 = 260
cps$ = 280
kernelFile$ = 344
kernelPath$ = 424
source$ = 504
sourceSize$ = 536
flagsStr$ = 568
flagsFile$95813 = 648
flagsPath$95814 = 728
flags$95823 = 792
numDevices$ = 808
binarySizes$ = 824
i$ = 832
binaries$ = 840
fileName$95904 = 864
deviceName$95908 = 1008
BinaryFile$95914 = 2056
$T102579 = 2128
$T102580 = 2176
$T102581 = 2184
$T102582 = 2192
$T102583 = 2240
$T102584 = 2248
$T102585 = 2296
$T102586 = 2304
$T102587 = 2312
$T102588 = 2360
$T102589 = 2368
$T102590 = 2376
$T102591 = 2424
$T102592 = 2432
$T102593 = 2436
$T102594 = 2440
$T102595 = 2488
$T102596 = 2496
$T102597 = 2544
$T102598 = 2552
$T102599 = 2556
$T102600 = 2560
$T102601 = 2608
$T102602 = 2616
$T102603 = 2620
$T102604 = 2624
$T102605 = 2672
$T102606 = 2680
$T102607 = 2684
$T102608 = 2688
$T102609 = 2696
$T102610 = 2744
$T102611 = 2752
$T102612 = 2760
$T102613 = 2808
$T102614 = 2816
$T102615 = 2820
$T102616 = 2824
$T102617 = 2872
$T102618 = 2880
$T102619 = 2888
$T102620 = 2936
$T102621 = 2944
$T102622 = 2948
$T102665 = 2952
tv788 = 2960
tv91 = 2968
tv790 = 2976
tv792 = 2984
tv794 = 2992
tv832 = 3000
tv395 = 3008
tv844 = 3016
tv846 = 3024
tv854 = 3032
tv862 = 3040
tv873 = 3048
tv878 = 3056
tv888 = 3064
tv893 = 3072
__$ArrayPad$ = 3080
this$ = 3104
?dtor$5@?0??genBinaryImage@SimpleConvolution@@UEAAHXZ@4HA PROC ; `SimpleConvolution::genBinaryImage'::`1'::dtor$5
	mov	QWORD PTR [rsp+8], rcx
	mov	QWORD PTR [rsp+16], rdx
	push	rbp
	push	rdi
	sub	rsp, 40					; 00000028H
	mov	rbp, rdx
	lea	rcx, QWORD PTR kernelPath$[rbp]
	call	??1?$basic_string@DU?$char_traits@D@std@@V?$allocator@D@2@@std@@QEAA@XZ ; std::basic_string<char,std::char_traits<char>,std::allocator<char> >::~basic_string<char,std::char_traits<char>,std::allocator<char> >
	add	rsp, 40					; 00000028H
	pop	rdi
	pop	rbp
	ret	0
?dtor$5@?0??genBinaryImage@SimpleConvolution@@UEAAHXZ@4HA ENDP ; `SimpleConvolution::genBinaryImage'::`1'::dtor$5
; Function compile flags: /Odtp /RTCsu
status$ = 52
numPlatforms$ = 84
platform$ = 104
platforms$95713 = 112
platformName$95719 = 144
i$95720 = 260
cps$ = 280
kernelFile$ = 344
kernelPath$ = 424
source$ = 504
sourceSize$ = 536
flagsStr$ = 568
flagsFile$95813 = 648
flagsPath$95814 = 728
flags$95823 = 792
numDevices$ = 808
binarySizes$ = 824
i$ = 832
binaries$ = 840
fileName$95904 = 864
deviceName$95908 = 1008
BinaryFile$95914 = 2056
$T102579 = 2128
$T102580 = 2176
$T102581 = 2184
$T102582 = 2192
$T102583 = 2240
$T102584 = 2248
$T102585 = 2296
$T102586 = 2304
$T102587 = 2312
$T102588 = 2360
$T102589 = 2368
$T102590 = 2376
$T102591 = 2424
$T102592 = 2432
$T102593 = 2436
$T102594 = 2440
$T102595 = 2488
$T102596 = 2496
$T102597 = 2544
$T102598 = 2552
$T102599 = 2556
$T102600 = 2560
$T102601 = 2608
$T102602 = 2616
$T102603 = 2620
$T102604 = 2624
$T102605 = 2672
$T102606 = 2680
$T102607 = 2684
$T102608 = 2688
$T102609 = 2696
$T102610 = 2744
$T102611 = 2752
$T102612 = 2760
$T102613 = 2808
$T102614 = 2816
$T102615 = 2820
$T102616 = 2824
$T102617 = 2872
$T102618 = 2880
$T102619 = 2888
$T102620 = 2936
$T102621 = 2944
$T102622 = 2948
$T102665 = 2952
tv788 = 2960
tv91 = 2968
tv790 = 2976
tv792 = 2984
tv794 = 2992
tv832 = 3000
tv395 = 3008
tv844 = 3016
tv846 = 3024
tv854 = 3032
tv862 = 3040
tv873 = 3048
tv878 = 3056
tv888 = 3064
tv893 = 3072
__$ArrayPad$ = 3080
this$ = 3104
?dtor$7@?0??genBinaryImage@SimpleConvolution@@UEAAHXZ@4HA PROC ; `SimpleConvolution::genBinaryImage'::`1'::dtor$7
	mov	QWORD PTR [rsp+8], rcx
	mov	QWORD PTR [rsp+16], rdx
	push	rbp
	push	rdi
	sub	rsp, 40					; 00000028H
	mov	rbp, rdx
	lea	rcx, QWORD PTR flagsStr$[rbp]
	call	??1?$basic_string@DU?$char_traits@D@std@@V?$allocator@D@2@@std@@QEAA@XZ ; std::basic_string<char,std::char_traits<char>,std::allocator<char> >::~basic_string<char,std::char_traits<char>,std::allocator<char> >
	add	rsp, 40					; 00000028H
	pop	rdi
	pop	rbp
	ret	0
?dtor$7@?0??genBinaryImage@SimpleConvolution@@UEAAHXZ@4HA ENDP ; `SimpleConvolution::genBinaryImage'::`1'::dtor$7
; Function compile flags: /Odtp /RTCsu
status$ = 52
numPlatforms$ = 84
platform$ = 104
platforms$95713 = 112
platformName$95719 = 144
i$95720 = 260
cps$ = 280
kernelFile$ = 344
kernelPath$ = 424
source$ = 504
sourceSize$ = 536
flagsStr$ = 568
flagsFile$95813 = 648
flagsPath$95814 = 728
flags$95823 = 792
numDevices$ = 808
binarySizes$ = 824
i$ = 832
binaries$ = 840
fileName$95904 = 864
deviceName$95908 = 1008
BinaryFile$95914 = 2056
$T102579 = 2128
$T102580 = 2176
$T102581 = 2184
$T102582 = 2192
$T102583 = 2240
$T102584 = 2248
$T102585 = 2296
$T102586 = 2304
$T102587 = 2312
$T102588 = 2360
$T102589 = 2368
$T102590 = 2376
$T102591 = 2424
$T102592 = 2432
$T102593 = 2436
$T102594 = 2440
$T102595 = 2488
$T102596 = 2496
$T102597 = 2544
$T102598 = 2552
$T102599 = 2556
$T102600 = 2560
$T102601 = 2608
$T102602 = 2616
$T102603 = 2620
$T102604 = 2624
$T102605 = 2672
$T102606 = 2680
$T102607 = 2684
$T102608 = 2688
$T102609 = 2696
$T102610 = 2744
$T102611 = 2752
$T102612 = 2760
$T102613 = 2808
$T102614 = 2816
$T102615 = 2820
$T102616 = 2824
$T102617 = 2872
$T102618 = 2880
$T102619 = 2888
$T102620 = 2936
$T102621 = 2944
$T102622 = 2948
$T102665 = 2952
tv788 = 2960
tv91 = 2968
tv790 = 2976
tv792 = 2984
tv794 = 2992
tv832 = 3000
tv395 = 3008
tv844 = 3016
tv846 = 3024
tv854 = 3032
tv862 = 3040
tv873 = 3048
tv878 = 3056
tv888 = 3064
tv893 = 3072
__$ArrayPad$ = 3080
this$ = 3104
?dtor$8@?0??genBinaryImage@SimpleConvolution@@UEAAHXZ@4HA PROC ; `SimpleConvolution::genBinaryImage'::`1'::dtor$8
	mov	QWORD PTR [rsp+8], rcx
	mov	QWORD PTR [rsp+16], rdx
	push	rbp
	push	rdi
	sub	rsp, 40					; 00000028H
	mov	rbp, rdx
	lea	rcx, QWORD PTR flagsFile$95813[rbp]
	call	??1SDKFile@streamsdk@@QEAA@XZ		; streamsdk::SDKFile::~SDKFile
	add	rsp, 40					; 00000028H
	pop	rdi
	pop	rbp
	ret	0
?dtor$8@?0??genBinaryImage@SimpleConvolution@@UEAAHXZ@4HA ENDP ; `SimpleConvolution::genBinaryImage'::`1'::dtor$8
; Function compile flags: /Odtp /RTCsu
status$ = 52
numPlatforms$ = 84
platform$ = 104
platforms$95713 = 112
platformName$95719 = 144
i$95720 = 260
cps$ = 280
kernelFile$ = 344
kernelPath$ = 424
source$ = 504
sourceSize$ = 536
flagsStr$ = 568
flagsFile$95813 = 648
flagsPath$95814 = 728
flags$95823 = 792
numDevices$ = 808
binarySizes$ = 824
i$ = 832
binaries$ = 840
fileName$95904 = 864
deviceName$95908 = 1008
BinaryFile$95914 = 2056
$T102579 = 2128
$T102580 = 2176
$T102581 = 2184
$T102582 = 2192
$T102583 = 2240
$T102584 = 2248
$T102585 = 2296
$T102586 = 2304
$T102587 = 2312
$T102588 = 2360
$T102589 = 2368
$T102590 = 2376
$T102591 = 2424
$T102592 = 2432
$T102593 = 2436
$T102594 = 2440
$T102595 = 2488
$T102596 = 2496
$T102597 = 2544
$T102598 = 2552
$T102599 = 2556
$T102600 = 2560
$T102601 = 2608
$T102602 = 2616
$T102603 = 2620
$T102604 = 2624
$T102605 = 2672
$T102606 = 2680
$T102607 = 2684
$T102608 = 2688
$T102609 = 2696
$T102610 = 2744
$T102611 = 2752
$T102612 = 2760
$T102613 = 2808
$T102614 = 2816
$T102615 = 2820
$T102616 = 2824
$T102617 = 2872
$T102618 = 2880
$T102619 = 2888
$T102620 = 2936
$T102621 = 2944
$T102622 = 2948
$T102665 = 2952
tv788 = 2960
tv91 = 2968
tv790 = 2976
tv792 = 2984
tv794 = 2992
tv832 = 3000
tv395 = 3008
tv844 = 3016
tv846 = 3024
tv854 = 3032
tv862 = 3040
tv873 = 3048
tv878 = 3056
tv888 = 3064
tv893 = 3072
__$ArrayPad$ = 3080
this$ = 3104
?dtor$9@?0??genBinaryImage@SimpleConvolution@@UEAAHXZ@4HA PROC ; `SimpleConvolution::genBinaryImage'::`1'::dtor$9
	mov	QWORD PTR [rsp+8], rcx
	mov	QWORD PTR [rsp+16], rdx
	push	rbp
	push	rdi
	sub	rsp, 40					; 00000028H
	mov	rbp, rdx
	lea	rcx, QWORD PTR flagsPath$95814[rbp]
	call	??1?$basic_string@DU?$char_traits@D@std@@V?$allocator@D@2@@std@@QEAA@XZ ; std::basic_string<char,std::char_traits<char>,std::allocator<char> >::~basic_string<char,std::char_traits<char>,std::allocator<char> >
	add	rsp, 40					; 00000028H
	pop	rdi
	pop	rbp
	ret	0
?dtor$9@?0??genBinaryImage@SimpleConvolution@@UEAAHXZ@4HA ENDP ; `SimpleConvolution::genBinaryImage'::`1'::dtor$9
; Function compile flags: /Odtp /RTCsu
status$ = 52
numPlatforms$ = 84
platform$ = 104
platforms$95713 = 112
platformName$95719 = 144
i$95720 = 260
cps$ = 280
kernelFile$ = 344
kernelPath$ = 424
source$ = 504
sourceSize$ = 536
flagsStr$ = 568
flagsFile$95813 = 648
flagsPath$95814 = 728
flags$95823 = 792
numDevices$ = 808
binarySizes$ = 824
i$ = 832
binaries$ = 840
fileName$95904 = 864
deviceName$95908 = 1008
BinaryFile$95914 = 2056
$T102579 = 2128
$T102580 = 2176
$T102581 = 2184
$T102582 = 2192
$T102583 = 2240
$T102584 = 2248
$T102585 = 2296
$T102586 = 2304
$T102587 = 2312
$T102588 = 2360
$T102589 = 2368
$T102590 = 2376
$T102591 = 2424
$T102592 = 2432
$T102593 = 2436
$T102594 = 2440
$T102595 = 2488
$T102596 = 2496
$T102597 = 2544
$T102598 = 2552
$T102599 = 2556
$T102600 = 2560
$T102601 = 2608
$T102602 = 2616
$T102603 = 2620
$T102604 = 2624
$T102605 = 2672
$T102606 = 2680
$T102607 = 2684
$T102608 = 2688
$T102609 = 2696
$T102610 = 2744
$T102611 = 2752
$T102612 = 2760
$T102613 = 2808
$T102614 = 2816
$T102615 = 2820
$T102616 = 2824
$T102617 = 2872
$T102618 = 2880
$T102619 = 2888
$T102620 = 2936
$T102621 = 2944
$T102622 = 2948
$T102665 = 2952
tv788 = 2960
tv91 = 2968
tv790 = 2976
tv792 = 2984
tv794 = 2992
tv832 = 3000
tv395 = 3008
tv844 = 3016
tv846 = 3024
tv854 = 3032
tv862 = 3040
tv873 = 3048
tv878 = 3056
tv888 = 3064
tv893 = 3072
__$ArrayPad$ = 3080
this$ = 3104
?dtor$16@?0??genBinaryImage@SimpleConvolution@@UEAAHXZ@4HA PROC ; `SimpleConvolution::genBinaryImage'::`1'::dtor$16
	mov	QWORD PTR [rsp+8], rcx
	mov	QWORD PTR [rsp+16], rdx
	push	rbp
	push	rdi
	sub	rsp, 40					; 00000028H
	mov	rbp, rdx
	lea	rcx, QWORD PTR BinaryFile$95914[rbp]
	call	??1SDKFile@streamsdk@@QEAA@XZ		; streamsdk::SDKFile::~SDKFile
	add	rsp, 40					; 00000028H
	pop	rdi
	pop	rbp
	ret	0
?dtor$16@?0??genBinaryImage@SimpleConvolution@@UEAAHXZ@4HA ENDP ; `SimpleConvolution::genBinaryImage'::`1'::dtor$16
text$x	ENDS
PUBLIC	?flush@?$basic_ostream@DU?$char_traits@D@std@@@std@@QEAAAEAV12@XZ ; std::basic_ostream<char,std::char_traits<char> >::flush
PUBLIC	?put@?$basic_ostream@DU?$char_traits@D@std@@@std@@QEAAAEAV12@D@Z ; std::basic_ostream<char,std::char_traits<char> >::put
;	COMDAT pdata
; File c:\program files (x86)\microsoft visual studio 10.0\vc\include\ostream
pdata	SEGMENT
$pdata$?endl@std@@YAAEAV?$basic_ostream@DU?$char_traits@D@std@@@1@AEAV21@@Z DD imagerel $LN3
	DD	imagerel $LN3+63
	DD	imagerel $unwind$?endl@std@@YAAEAV?$basic_ostream@DU?$char_traits@D@std@@@1@AEAV21@@Z
pdata	ENDS
;	COMDAT xdata
xdata	SEGMENT
$unwind$?endl@std@@YAAEAV?$basic_ostream@DU?$char_traits@D@std@@@1@AEAV21@@Z DD 021e01H
	DD	07006320aH
; Function compile flags: /Odtp /RTCsu
xdata	ENDS
;	COMDAT ?endl@std@@YAAEAV?$basic_ostream@DU?$char_traits@D@std@@@1@AEAV21@@Z
_TEXT	SEGMENT
_Ostr$ = 48
?endl@std@@YAAEAV?$basic_ostream@DU?$char_traits@D@std@@@1@AEAV21@@Z PROC ; std::endl, COMDAT
; Line 1004
$LN3:
	mov	QWORD PTR [rsp+8], rcx
	push	rdi
	sub	rsp, 32					; 00000020H
	mov	rdi, rsp
	mov	ecx, 8
	mov	eax, -858993460				; ccccccccH
	rep stosd
	mov	rcx, QWORD PTR [rsp+48]
; Line 1005
	mov	dl, 10
	mov	rcx, QWORD PTR _Ostr$[rsp]
	call	?put@?$basic_ostream@DU?$char_traits@D@std@@@std@@QEAAAEAV12@D@Z ; std::basic_ostream<char,std::char_traits<char> >::put
; Line 1006
	mov	rcx, QWORD PTR _Ostr$[rsp]
	call	?flush@?$basic_ostream@DU?$char_traits@D@std@@@std@@QEAAAEAV12@XZ ; std::basic_ostream<char,std::char_traits<char> >::flush
; Line 1007
	mov	rax, QWORD PTR _Ostr$[rsp]
; Line 1008
	add	rsp, 32					; 00000020H
	pop	rdi
	ret	0
?endl@std@@YAAEAV?$basic_ostream@DU?$char_traits@D@std@@@1@AEAV21@@Z ENDP ; std::endl
_TEXT	ENDS
;	COMDAT pdata
; File c:\users\bashc\documents\amd app\samples\opencl\sdkutil\include\sdkapplication.hpp
pdata	SEGMENT
$pdata$?isComplierFlagsSpecified@SDKSample@@QEAA_NXZ DD imagerel $LN5
	DD	imagerel $LN5+68
	DD	imagerel $unwind$?isComplierFlagsSpecified@SDKSample@@QEAA_NXZ
pdata	ENDS
;	COMDAT xdata
xdata	SEGMENT
$unwind$?isComplierFlagsSpecified@SDKSample@@QEAA_NXZ DD 021e01H
	DD	07006320aH
; Function compile flags: /Odtp /RTCsu
xdata	ENDS
;	COMDAT ?isComplierFlagsSpecified@SDKSample@@QEAA_NXZ
_TEXT	SEGMENT
this$ = 48
?isComplierFlagsSpecified@SDKSample@@QEAA_NXZ PROC	; SDKSample::isComplierFlagsSpecified, COMDAT
; Line 69
$LN5:
	mov	QWORD PTR [rsp+8], rcx
	push	rdi
	sub	rsp, 32					; 00000020H
	mov	rdi, rsp
	mov	ecx, 8
	mov	eax, -858993460				; ccccccccH
	rep stosd
	mov	rcx, QWORD PTR [rsp+48]
; Line 70
	mov	rax, QWORD PTR this$[rsp]
	add	rax, 256				; 00000100H
	mov	rcx, rax
	call	?size@?$basic_string@DU?$char_traits@D@std@@V?$allocator@D@2@@std@@QEBA_KXZ ; std::basic_string<char,std::char_traits<char>,std::allocator<char> >::size
	test	rax, rax
	jne	SHORT $LN2@isComplier
; Line 71
	xor	al, al
	jmp	SHORT $LN3@isComplier
; Line 72
	jmp	SHORT $LN1@isComplier
$LN2@isComplier:
; Line 73
	mov	al, 1
$LN1@isComplier:
$LN3@isComplier:
; Line 74
	add	rsp, 32					; 00000020H
	pop	rdi
	ret	0
?isComplierFlagsSpecified@SDKSample@@QEAA_NXZ ENDP	; SDKSample::isComplierFlagsSpecified
_TEXT	ENDS
PUBLIC	??_C@_00CNPNBAHC@?$AA@				; `string'
;	COMDAT pdata
; File c:\users\bashc\documents\amd app\samples\opencl\sdkutil\include\sdkfile.hpp
pdata	SEGMENT
$pdata$??0SDKFile@streamsdk@@QEAA@XZ DD imagerel $LN4
	DD	imagerel $LN4+58
	DD	imagerel $unwind$??0SDKFile@streamsdk@@QEAA@XZ
pdata	ENDS
;	COMDAT xdata
xdata	SEGMENT
$unwind$??0SDKFile@streamsdk@@QEAA@XZ DD 021e01H
	DD	07006320aH
xdata	ENDS
;	COMDAT ??_C@_00CNPNBAHC@?$AA@
CONST	SEGMENT
??_C@_00CNPNBAHC@?$AA@ DB 00H				; `string'
; Function compile flags: /Odtp /RTCsu
CONST	ENDS
;	COMDAT ??0SDKFile@streamsdk@@QEAA@XZ
_TEXT	SEGMENT
this$ = 48
??0SDKFile@streamsdk@@QEAA@XZ PROC			; streamsdk::SDKFile::SDKFile, COMDAT
; Line 19
$LN4:
	mov	QWORD PTR [rsp+8], rcx
	push	rdi
	sub	rsp, 32					; 00000020H
	mov	rdi, rsp
	mov	ecx, 8
	mov	eax, -858993460				; ccccccccH
	rep stosd
	mov	rcx, QWORD PTR [rsp+48]
	lea	rdx, OFFSET FLAT:??_C@_00CNPNBAHC@?$AA@
	mov	rcx, QWORD PTR this$[rsp]
	call	??0?$basic_string@DU?$char_traits@D@std@@V?$allocator@D@2@@std@@QEAA@PEBD@Z ; std::basic_string<char,std::char_traits<char>,std::allocator<char> >::basic_string<char,std::char_traits<char>,std::allocator<char> >
	mov	rax, QWORD PTR this$[rsp]
	add	rsp, 32					; 00000020H
	pop	rdi
	ret	0
??0SDKFile@streamsdk@@QEAA@XZ ENDP			; streamsdk::SDKFile::SDKFile
_TEXT	ENDS
;	COMDAT pdata
pdata	SEGMENT
$pdata$??1SDKFile@streamsdk@@QEAA@XZ DD imagerel $LN4
	DD	imagerel $LN4+46
	DD	imagerel $unwind$??1SDKFile@streamsdk@@QEAA@XZ
pdata	ENDS
;	COMDAT xdata
xdata	SEGMENT
$unwind$??1SDKFile@streamsdk@@QEAA@XZ DD 021e01H
	DD	07006320aH
; Function compile flags: /Odtp /RTCsu
xdata	ENDS
;	COMDAT ??1SDKFile@streamsdk@@QEAA@XZ
_TEXT	SEGMENT
this$ = 48
??1SDKFile@streamsdk@@QEAA@XZ PROC			; streamsdk::SDKFile::~SDKFile, COMDAT
; Line 22
$LN4:
	mov	QWORD PTR [rsp+8], rcx
	push	rdi
	sub	rsp, 32					; 00000020H
	mov	rdi, rsp
	mov	ecx, 8
	mov	eax, -858993460				; ccccccccH
	rep stosd
	mov	rcx, QWORD PTR [rsp+48]
	mov	rcx, QWORD PTR this$[rsp]
	call	??1?$basic_string@DU?$char_traits@D@std@@V?$allocator@D@2@@std@@QEAA@XZ ; std::basic_string<char,std::char_traits<char>,std::allocator<char> >::~basic_string<char,std::char_traits<char>,std::allocator<char> >
	add	rsp, 32					; 00000020H
	pop	rdi
	ret	0
??1SDKFile@streamsdk@@QEAA@XZ ENDP			; streamsdk::SDKFile::~SDKFile
_TEXT	ENDS
PUBLIC	?replace@?$basic_string@DU?$char_traits@D@std@@V?$allocator@D@2@@std@@QEAAAEAV12@_K0PEBD@Z ; std::basic_string<char,std::char_traits<char>,std::allocator<char> >::replace
PUBLIC	??_C@_01CLKCMJKC@?5?$AA@			; `string'
PUBLIC	?find_first_of@?$basic_string@DU?$char_traits@D@std@@V?$allocator@D@2@@std@@QEBA_KD_K@Z ; std::basic_string<char,std::char_traits<char>,std::allocator<char> >::find_first_of
;	COMDAT pdata
pdata	SEGMENT
$pdata$?replaceNewlineWithSpaces@SDKFile@streamsdk@@QEAAXXZ DD imagerel $LN7
	DD	imagerel $LN7+208
	DD	imagerel $unwind$?replaceNewlineWithSpaces@SDKFile@streamsdk@@QEAAXXZ
pdata	ENDS
;	COMDAT xdata
xdata	SEGMENT
$unwind$?replaceNewlineWithSpaces@SDKFile@streamsdk@@QEAAXXZ DD 021e01H
	DD	07006520aH
xdata	ENDS
;	COMDAT ??_C@_01CLKCMJKC@?5?$AA@
CONST	SEGMENT
??_C@_01CLKCMJKC@?5?$AA@ DB ' ', 00H			; `string'
; Function compile flags: /Odtp /RTCsu
CONST	ENDS
;	COMDAT ?replaceNewlineWithSpaces@SDKFile@streamsdk@@QEAAXXZ
_TEXT	SEGMENT
pos$ = 32
this$ = 64
?replaceNewlineWithSpaces@SDKFile@streamsdk@@QEAAXXZ PROC ; streamsdk::SDKFile::replaceNewlineWithSpaces, COMDAT
; Line 31
$LN7:
	mov	QWORD PTR [rsp+8], rcx
	push	rdi
	sub	rsp, 48					; 00000030H
	mov	rdi, rsp
	mov	ecx, 12
	mov	eax, -858993460				; ccccccccH
	rep stosd
	mov	rcx, QWORD PTR [rsp+64]
; Line 32
	xor	r8d, r8d
	mov	dl, 10
	mov	rcx, QWORD PTR this$[rsp]
	call	?find_first_of@?$basic_string@DU?$char_traits@D@std@@V?$allocator@D@2@@std@@QEBA_KD_K@Z ; std::basic_string<char,std::char_traits<char>,std::allocator<char> >::find_first_of
	mov	QWORD PTR pos$[rsp], rax
$LN4@replaceNew:
; Line 33
	cmp	QWORD PTR pos$[rsp], -1
	je	SHORT $LN3@replaceNew
; Line 35
	lea	r9, OFFSET FLAT:??_C@_01CLKCMJKC@?5?$AA@
	mov	r8d, 1
	mov	rdx, QWORD PTR pos$[rsp]
	mov	rcx, QWORD PTR this$[rsp]
	call	?replace@?$basic_string@DU?$char_traits@D@std@@V?$allocator@D@2@@std@@QEAAAEAV12@_K0PEBD@Z ; std::basic_string<char,std::char_traits<char>,std::allocator<char> >::replace
; Line 36
	mov	rax, QWORD PTR pos$[rsp]
	inc	rax
	mov	r8, rax
	mov	dl, 10
	mov	rcx, QWORD PTR this$[rsp]
	call	?find_first_of@?$basic_string@DU?$char_traits@D@std@@V?$allocator@D@2@@std@@QEBA_KD_K@Z ; std::basic_string<char,std::char_traits<char>,std::allocator<char> >::find_first_of
	mov	QWORD PTR pos$[rsp], rax
; Line 37
	jmp	SHORT $LN4@replaceNew
$LN3@replaceNew:
; Line 38
	xor	r8d, r8d
	mov	dl, 13
	mov	rcx, QWORD PTR this$[rsp]
	call	?find_first_of@?$basic_string@DU?$char_traits@D@std@@V?$allocator@D@2@@std@@QEBA_KD_K@Z ; std::basic_string<char,std::char_traits<char>,std::allocator<char> >::find_first_of
	mov	QWORD PTR pos$[rsp], rax
$LN2@replaceNew:
; Line 39
	cmp	QWORD PTR pos$[rsp], -1
	je	SHORT $LN1@replaceNew
; Line 41
	lea	r9, OFFSET FLAT:??_C@_01CLKCMJKC@?5?$AA@
	mov	r8d, 1
	mov	rdx, QWORD PTR pos$[rsp]
	mov	rcx, QWORD PTR this$[rsp]
	call	?replace@?$basic_string@DU?$char_traits@D@std@@V?$allocator@D@2@@std@@QEAAAEAV12@_K0PEBD@Z ; std::basic_string<char,std::char_traits<char>,std::allocator<char> >::replace
; Line 42
	mov	rax, QWORD PTR pos$[rsp]
	inc	rax
	mov	r8, rax
	mov	dl, 13
	mov	rcx, QWORD PTR this$[rsp]
	call	?find_first_of@?$basic_string@DU?$char_traits@D@std@@V?$allocator@D@2@@std@@QEBA_KD_K@Z ; std::basic_string<char,std::char_traits<char>,std::allocator<char> >::find_first_of
	mov	QWORD PTR pos$[rsp], rax
; Line 43
	jmp	SHORT $LN2@replaceNew
$LN1@replaceNew:
; Line 44
	add	rsp, 48					; 00000030H
	pop	rdi
	ret	0
?replaceNewlineWithSpaces@SDKFile@streamsdk@@QEAAXXZ ENDP ; streamsdk::SDKFile::replaceNewlineWithSpaces
_TEXT	ENDS
;	COMDAT pdata
pdata	SEGMENT
$pdata$?source@SDKFile@streamsdk@@QEBAAEBV?$basic_string@DU?$char_traits@D@std@@V?$allocator@D@2@@std@@XZ DD imagerel $LN3
	DD	imagerel $LN3+13
	DD	imagerel $unwind$?source@SDKFile@streamsdk@@QEBAAEBV?$basic_string@DU?$char_traits@D@std@@V?$allocator@D@2@@std@@XZ
pdata	ENDS
;	COMDAT xdata
xdata	SEGMENT
$unwind$?source@SDKFile@streamsdk@@QEBAAEBV?$basic_string@DU?$char_traits@D@std@@V?$allocator@D@2@@std@@XZ DD 010601H
	DD	07006H
; Function compile flags: /Odtp /RTCsu
xdata	ENDS
;	COMDAT ?source@SDKFile@streamsdk@@QEBAAEBV?$basic_string@DU?$char_traits@D@std@@V?$allocator@D@2@@std@@XZ
_TEXT	SEGMENT
this$ = 16
?source@SDKFile@streamsdk@@QEBAAEBV?$basic_string@DU?$char_traits@D@std@@V?$allocator@D@2@@std@@XZ PROC ; streamsdk::SDKFile::source, COMDAT
; Line 46
$LN3:
	mov	QWORD PTR [rsp+8], rcx
	push	rdi
	mov	rax, QWORD PTR this$[rsp]
	pop	rdi
	ret	0
?source@SDKFile@streamsdk@@QEBAAEBV?$basic_string@DU?$char_traits@D@std@@V?$allocator@D@2@@std@@XZ ENDP ; streamsdk::SDKFile::source
_TEXT	ENDS
PUBLIC	?isPlatformEnabled@SDKSample@@QEAA_NXZ		; SDKSample::isPlatformEnabled
PUBLIC	?isThereGPU@SDKSample@@QEAA_NXZ			; SDKSample::isThereGPU
PUBLIC	?compare@?$basic_string@DU?$char_traits@D@std@@V?$allocator@D@2@@std@@QEBAHPEBD@Z ; std::basic_string<char,std::char_traits<char>,std::allocator<char> >::compare
PUBLIC	__$ArrayPad$
PUBLIC	?setupCL@SimpleConvolution@@QEAAHXZ		; SimpleConvolution::setupCL
EXTRN	__GSHandlerCheck:PROC
EXTRN	clSetKernelArg:PROC
EXTRN	clGetKernelWorkGroupInfo:PROC
EXTRN	clCreateKernel:PROC
EXTRN	clCreateBuffer:PROC
EXTRN	clCreateCommandQueue:PROC
EXTRN	?validateDeviceId@SDKCommon@streamsdk@@QEAAHHH@Z:PROC ; streamsdk::SDKCommon::validateDeviceId
EXTRN	clGetContextInfo:PROC
EXTRN	?displayDevices@SDKCommon@streamsdk@@QEAAHPEAU_cl_platform_id@@_K@Z:PROC ; streamsdk::SDKCommon::displayDevices
pdata	SEGMENT
$pdata$?setupCL@SimpleConvolution@@QEAAHXZ DD imagerel $LN56
	DD	imagerel $LN56+4311
	DD	imagerel $unwind$?setupCL@SimpleConvolution@@QEAAHXZ
pdata	ENDS
xdata	SEGMENT
$unwind$?setupCL@SimpleConvolution@@QEAAHXZ DD 033619H
	DD	0d2010dH
	DD	07006H
	DD	imagerel __GSHandlerCheck
	DD	0680H
xdata	ENDS
CONST	SEGMENT
?setupCL@SimpleConvolution@@QEAAHXZ$rtcName$0 DB 073H	; SimpleConvolution::setupCL
	DB	074H
	DB	061H
	DB	074H
	DB	075H
	DB	073H
	DB	00H
	ORG $+1
?setupCL@SimpleConvolution@@QEAAHXZ$rtcName$1 DB 064H	; SimpleConvolution::setupCL
	DB	065H
	DB	076H
	DB	069H
	DB	063H
	DB	065H
	DB	04cH
	DB	069H
	DB	073H
	DB	074H
	DB	053H
	DB	069H
	DB	07aH
	DB	065H
	DB	00H
	ORG $+1
?setupCL@SimpleConvolution@@QEAAHXZ$rtcName$2 DB 06eH	; SimpleConvolution::setupCL
	DB	075H
	DB	06dH
	DB	050H
	DB	06cH
	DB	061H
	DB	074H
	DB	066H
	DB	06fH
	DB	072H
	DB	06dH
	DB	073H
	DB	00H
	ORG $+3
?setupCL@SimpleConvolution@@QEAAHXZ$rtcName$3 DB 070H	; SimpleConvolution::setupCL
	DB	062H
	DB	075H
	DB	066H
	DB	00H
	ORG $+3
?setupCL@SimpleConvolution@@QEAAHXZ$rtcName$4 DB 063H	; SimpleConvolution::setupCL
	DB	070H
	DB	073H
	DB	00H
?setupCL@SimpleConvolution@@QEAAHXZ$rtcName$5 DB 073H	; SimpleConvolution::setupCL
	DB	06fH
	DB	075H
	DB	072H
	DB	063H
	DB	065H
	DB	00H
	ORG $+5
?setupCL@SimpleConvolution@@QEAAHXZ$rtcName$6 DB 073H	; SimpleConvolution::setupCL
	DB	06fH
	DB	075H
	DB	072H
	DB	063H
	DB	065H
	DB	053H
	DB	069H
	DB	07aH
	DB	065H
	DB	00H
	ORG $+5
?setupCL@SimpleConvolution@@QEAAHXZ$rtcName$7 DB 069H	; SimpleConvolution::setupCL
	DB	06eH
	DB	070H
	DB	075H
	DB	074H
	DB	044H
	DB	069H
	DB	06dH
	DB	065H
	DB	06eH
	DB	073H
	DB	069H
	DB	06fH
	DB	06eH
	DB	073H
	DB	00H
?setupCL@SimpleConvolution@@QEAAHXZ$rtcName$8 DB 06dH	; SimpleConvolution::setupCL
	DB	061H
	DB	073H
	DB	06bH
	DB	044H
	DB	069H
	DB	06dH
	DB	065H
	DB	06eH
	DB	073H
	DB	069H
	DB	06fH
	DB	06eH
	DB	073H
	DB	00H
	ORG $+9
?setupCL@SimpleConvolution@@QEAAHXZ$rtcVarDesc DD 01c8H	; SimpleConvolution::setupCL
	DD	08H
	DQ	FLAT:?setupCL@SimpleConvolution@@QEAAHXZ$rtcName$8
	DD	01a8H
	DD	08H
	DQ	FLAT:?setupCL@SimpleConvolution@@QEAAHXZ$rtcName$7
	DD	0188H
	DD	08H
	DQ	FLAT:?setupCL@SimpleConvolution@@QEAAHXZ$rtcName$6
	DD	0168H
	DD	08H
	DQ	FLAT:?setupCL@SimpleConvolution@@QEAAHXZ$rtcName$5
	DD	0138H
	DD	018H
	DQ	FLAT:?setupCL@SimpleConvolution@@QEAAHXZ$rtcName$4
	DD	0b0H
	DD	064H
	DQ	FLAT:?setupCL@SimpleConvolution@@QEAAHXZ$rtcName$3
	DD	074H
	DD	04H
	DQ	FLAT:?setupCL@SimpleConvolution@@QEAAHXZ$rtcName$2
	DD	058H
	DD	08H
	DQ	FLAT:?setupCL@SimpleConvolution@@QEAAHXZ$rtcName$1
	DD	034H
	DD	04H
	DQ	FLAT:?setupCL@SimpleConvolution@@QEAAHXZ$rtcName$0
	ORG $+432
?setupCL@SimpleConvolution@@QEAAHXZ$rtcFrameData DD 09H	; SimpleConvolution::setupCL
	DD	00H
	DQ	FLAT:?setupCL@SimpleConvolution@@QEAAHXZ$rtcVarDesc
; Function compile flags: /Odtp /RTCsu
CONST	ENDS
_TEXT	SEGMENT
status$ = 52
deviceListSize$ = 88
dType$ = 104
numPlatforms$ = 116
platform$ = 136
platforms$95962 = 144
i$95970 = 152
pbuf$95974 = 176
cps$ = 312
deviceCount$ = 340
prop$96004 = 344
source$ = 360
sourceSize$ = 392
inputDimensions$ = 424
maskDimensions$ = 456
$T102757 = 480
$T102758 = 528
$T102759 = 536
$T102760 = 544
$T102761 = 592
$T102762 = 600
$T102763 = 648
$T102764 = 656
$T102765 = 664
$T102766 = 712
$T102767 = 720
$T102768 = 768
$T102769 = 776
$T102770 = 824
$T102771 = 832
$T102772 = 880
$T102773 = 888
$T102774 = 936
$T102775 = 944
$T102776 = 992
$T102777 = 1000
$T102778 = 1048
$T102779 = 1056
$T102780 = 1104
$T102781 = 1112
$T102782 = 1160
$T102783 = 1168
$T102784 = 1216
$T102785 = 1224
$T102786 = 1272
$T102787 = 1280
$T102788 = 1328
$T102789 = 1336
$T102790 = 1384
$T102791 = 1392
$T102792 = 1440
$T102793 = 1448
$T102794 = 1496
tv917 = 1504
tv145 = 1512
tv919 = 1520
tv921 = 1528
tv923 = 1536
tv925 = 1544
tv927 = 1552
tv929 = 1560
tv931 = 1568
tv933 = 1576
tv935 = 1584
tv937 = 1592
tv597 = 1600
tv939 = 1608
tv941 = 1616
tv943 = 1624
tv945 = 1632
tv947 = 1640
tv949 = 1648
tv951 = 1656
__$ArrayPad$ = 1664
this$ = 1696
?setupCL@SimpleConvolution@@QEAAHXZ PROC		; SimpleConvolution::setupCL
; File c:\users\bashc\documents\amd app\samples\opencl\cl\app\simpleconvolution - copy\simpleconvolution.cpp
; Line 466
$LN56:
	mov	QWORD PTR [rsp+8], rcx
	push	rdi
	sub	rsp, 1680				; 00000690H
	mov	rdi, rsp
	mov	ecx, 420				; 000001a4H
	mov	eax, -858993460				; ccccccccH
	rep stosd
	mov	rcx, QWORD PTR [rsp+1696]
	mov	rax, QWORD PTR __security_cookie
	xor	rax, rsp
	mov	QWORD PTR __$ArrayPad$[rsp], rax
; Line 467
	mov	DWORD PTR status$[rsp], 0
; Line 472
	mov	rax, QWORD PTR this$[rsp]
	add	rax, 112				; 00000070H
	lea	rdx, OFFSET FLAT:$SG95948
	mov	rcx, rax
	call	?compare@?$basic_string@DU?$char_traits@D@std@@V?$allocator@D@2@@std@@QEBAHPEBD@Z ; std::basic_string<char,std::char_traits<char>,std::allocator<char> >::compare
	test	eax, eax
	jne	SHORT $LN35@setupCL
; Line 474
	mov	QWORD PTR dType$[rsp], 2
; Line 476
	jmp	SHORT $LN34@setupCL
$LN35@setupCL:
; Line 478
	mov	QWORD PTR dType$[rsp], 4
; Line 479
	mov	rcx, QWORD PTR this$[rsp]
	call	?isThereGPU@SDKSample@@QEAA_NXZ		; SDKSample::isThereGPU
	movzx	eax, al
	test	eax, eax
	jne	SHORT $LN34@setupCL
; Line 481
	lea	rdx, OFFSET FLAT:$SG95955
	lea	rcx, OFFSET FLAT:?cout@std@@3V?$basic_ostream@DU?$char_traits@D@std@@@1@A ; std::cout
	call	??$?6U?$char_traits@D@std@@@std@@YAAEAV?$basic_ostream@DU?$char_traits@D@std@@@0@AEAV10@PEBD@Z ; std::operator<<<std::char_traits<char> >
	lea	rdx, OFFSET FLAT:?endl@std@@YAAEAV?$basic_ostream@DU?$char_traits@D@std@@@1@AEAV21@@Z ; std::endl
	mov	rcx, rax
	call	??6?$basic_ostream@DU?$char_traits@D@std@@@std@@QEAAAEAV01@P6AAEAV01@AEAV01@@Z@Z ; std::basic_ostream<char,std::char_traits<char> >::operator<<
; Line 482
	mov	QWORD PTR dType$[rsp], 2
$LN34@setupCL:
; Line 492
	mov	QWORD PTR platform$[rsp], 0
; Line 493
	lea	r8, QWORD PTR numPlatforms$[rsp]
	xor	edx, edx
	xor	ecx, ecx
	call	clGetPlatformIDs
	mov	DWORD PTR status$[rsp], eax
; Line 496
	lea	rax, QWORD PTR $T102757[rsp]
	mov	QWORD PTR $T102758[rsp], rax
	lea	rdx, OFFSET FLAT:$SG95960
	mov	rcx, QWORD PTR $T102758[rsp]
	call	??0?$basic_string@DU?$char_traits@D@std@@V?$allocator@D@2@@std@@QEAA@PEBD@Z ; std::basic_string<char,std::char_traits<char>,std::allocator<char> >::basic_string<char,std::char_traits<char>,std::allocator<char> >
	mov	QWORD PTR tv917[rsp], rax
	mov	BYTE PTR [rsp+32], 1
	mov	r9, QWORD PTR tv917[rsp]
	xor	r8d, r8d
	mov	edx, DWORD PTR status$[rsp]
	mov	rax, QWORD PTR this$[rsp]
	mov	rcx, QWORD PTR [rax+16]
	call	??$checkVal@H@SDKCommon@streamsdk@@QEBAHHHV?$basic_string@DU?$char_traits@D@std@@V?$allocator@D@2@@std@@_N@Z ; streamsdk::SDKCommon::checkVal<int>
	test	eax, eax
	jne	SHORT $LN32@setupCL
; Line 498
	mov	eax, 1
	jmp	$LN36@setupCL
$LN32@setupCL:
; Line 500
	cmp	DWORD PTR numPlatforms$[rsp], 0
	jbe	$LN31@setupCL
; Line 502
	mov	eax, DWORD PTR numPlatforms$[rsp]
	mov	QWORD PTR tv145[rsp], rax
	mov	eax, 8
	mov	rcx, QWORD PTR tv145[rsp]
	mul	rcx
	mov	rcx, -1
	cmovo	rax, rcx
	mov	rcx, rax
	call	??_U@YAPEAX_K@Z				; operator new[]
	mov	QWORD PTR $T102759[rsp], rax
	mov	rax, QWORD PTR $T102759[rsp]
	mov	QWORD PTR platforms$95962[rsp], rax
; Line 503
	xor	r8d, r8d
	mov	rdx, QWORD PTR platforms$95962[rsp]
	mov	ecx, DWORD PTR numPlatforms$[rsp]
	call	clGetPlatformIDs
	mov	DWORD PTR status$[rsp], eax
; Line 506
	lea	rax, QWORD PTR $T102760[rsp]
	mov	QWORD PTR $T102761[rsp], rax
	lea	rdx, OFFSET FLAT:$SG95967
	mov	rcx, QWORD PTR $T102761[rsp]
	call	??0?$basic_string@DU?$char_traits@D@std@@V?$allocator@D@2@@std@@QEAA@PEBD@Z ; std::basic_string<char,std::char_traits<char>,std::allocator<char> >::basic_string<char,std::char_traits<char>,std::allocator<char> >
	mov	QWORD PTR tv919[rsp], rax
	mov	BYTE PTR [rsp+32], 1
	mov	r9, QWORD PTR tv919[rsp]
	xor	r8d, r8d
	mov	edx, DWORD PTR status$[rsp]
	mov	rax, QWORD PTR this$[rsp]
	mov	rcx, QWORD PTR [rax+16]
	call	??$checkVal@H@SDKCommon@streamsdk@@QEBAHHHV?$basic_string@DU?$char_traits@D@std@@V?$allocator@D@2@@std@@_N@Z ; streamsdk::SDKCommon::checkVal<int>
	test	eax, eax
	jne	SHORT $LN30@setupCL
; Line 508
	mov	eax, 1
	jmp	$LN36@setupCL
$LN30@setupCL:
; Line 510
	mov	rcx, QWORD PTR this$[rsp]
	call	?isPlatformEnabled@SDKSample@@QEAA_NXZ	; SDKSample::isPlatformEnabled
	movzx	eax, al
	test	eax, eax
	je	SHORT $LN29@setupCL
; Line 512
	mov	rax, QWORD PTR this$[rsp]
	mov	eax, DWORD PTR [rax+104]
	mov	rcx, QWORD PTR platforms$95962[rsp]
	mov	rax, QWORD PTR [rcx+rax*8]
	mov	QWORD PTR platform$[rsp], rax
; Line 514
	jmp	$LN28@setupCL
$LN29@setupCL:
; Line 516
	mov	DWORD PTR i$95970[rsp], 0
	jmp	SHORT $LN27@setupCL
$LN26@setupCL:
	mov	eax, DWORD PTR i$95970[rsp]
	inc	eax
	mov	DWORD PTR i$95970[rsp], eax
$LN27@setupCL:
	mov	eax, DWORD PTR numPlatforms$[rsp]
	cmp	DWORD PTR i$95970[rsp], eax
	jae	$LN28@setupCL
; Line 523
	mov	eax, DWORD PTR i$95970[rsp]
	mov	QWORD PTR [rsp+32], 0
	lea	r9, QWORD PTR pbuf$95974[rsp]
	mov	r8d, 100				; 00000064H
	mov	edx, 2307				; 00000903H
	mov	rcx, QWORD PTR platforms$95962[rsp]
	mov	rcx, QWORD PTR [rcx+rax*8]
	call	clGetPlatformInfo
	mov	DWORD PTR status$[rsp], eax
; Line 527
	lea	rax, QWORD PTR $T102762[rsp]
	mov	QWORD PTR $T102763[rsp], rax
	lea	rdx, OFFSET FLAT:$SG95977
	mov	rcx, QWORD PTR $T102763[rsp]
	call	??0?$basic_string@DU?$char_traits@D@std@@V?$allocator@D@2@@std@@QEAA@PEBD@Z ; std::basic_string<char,std::char_traits<char>,std::allocator<char> >::basic_string<char,std::char_traits<char>,std::allocator<char> >
	mov	QWORD PTR tv921[rsp], rax
	mov	BYTE PTR [rsp+32], 1
	mov	r9, QWORD PTR tv921[rsp]
	xor	r8d, r8d
	mov	edx, DWORD PTR status$[rsp]
	mov	rax, QWORD PTR this$[rsp]
	mov	rcx, QWORD PTR [rax+16]
	call	??$checkVal@H@SDKCommon@streamsdk@@QEBAHHHV?$basic_string@DU?$char_traits@D@std@@V?$allocator@D@2@@std@@_N@Z ; streamsdk::SDKCommon::checkVal<int>
	test	eax, eax
	jne	SHORT $LN24@setupCL
; Line 529
	mov	eax, 1
	jmp	$LN36@setupCL
$LN24@setupCL:
; Line 532
	mov	eax, DWORD PTR i$95970[rsp]
	mov	rcx, QWORD PTR platforms$95962[rsp]
	mov	rax, QWORD PTR [rcx+rax*8]
	mov	QWORD PTR platform$[rsp], rax
; Line 533
	lea	rdx, OFFSET FLAT:$SG95979
	lea	rcx, QWORD PTR pbuf$95974[rsp]
	call	strcmp
	test	eax, eax
	jne	SHORT $LN23@setupCL
; Line 535
	jmp	SHORT $LN28@setupCL
$LN23@setupCL:
; Line 537
	jmp	$LN26@setupCL
$LN28@setupCL:
; Line 539
	mov	rax, QWORD PTR platforms$95962[rsp]
	mov	QWORD PTR $T102764[rsp], rax
	mov	rcx, QWORD PTR $T102764[rsp]
	call	??_V@YAXPEAX@Z				; operator delete[]
$LN31@setupCL:
; Line 542
	cmp	QWORD PTR platform$[rsp], 0
	jne	SHORT $LN22@setupCL
; Line 544
	lea	rdx, OFFSET FLAT:$SG95982
	mov	rax, QWORD PTR this$[rsp]
	mov	rcx, QWORD PTR [rax+16]
	call	?error@SDKCommon@streamsdk@@QEBAXPEBD@Z	; streamsdk::SDKCommon::error
; Line 545
	mov	eax, 1
	jmp	$LN36@setupCL
$LN22@setupCL:
; Line 549
	mov	r8, QWORD PTR dType$[rsp]
	mov	rdx, QWORD PTR platform$[rsp]
	mov	rax, QWORD PTR this$[rsp]
	mov	rcx, QWORD PTR [rax+16]
	call	?displayDevices@SDKCommon@streamsdk@@QEAAHPEAU_cl_platform_id@@_K@Z ; streamsdk::SDKCommon::displayDevices
	test	eax, eax
	jne	SHORT $LN21@setupCL
; Line 551
	lea	rdx, OFFSET FLAT:$SG95984
	mov	rax, QWORD PTR this$[rsp]
	mov	rcx, QWORD PTR [rax+16]
	call	?error@SDKCommon@streamsdk@@QEBAXPEBD@Z	; streamsdk::SDKCommon::error
; Line 552
	mov	eax, 1
	jmp	$LN36@setupCL
$LN21@setupCL:
; Line 560
	mov	QWORD PTR cps$[rsp], 4228		; 00001084H
; Line 561
	mov	rax, QWORD PTR platform$[rsp]
	mov	QWORD PTR cps$[rsp+8], rax
; Line 563
	mov	QWORD PTR cps$[rsp+16], 0
; Line 570
	lea	rax, QWORD PTR status$[rsp]
	mov	QWORD PTR [rsp+32], rax
	xor	r9d, r9d
	xor	r8d, r8d
	mov	rdx, QWORD PTR dType$[rsp]
	lea	rcx, QWORD PTR cps$[rsp]
	call	clCreateContextFromType
	mov	rcx, QWORD PTR this$[rsp]
	mov	QWORD PTR [rcx+320], rax
; Line 574
	lea	rax, QWORD PTR $T102765[rsp]
	mov	QWORD PTR $T102766[rsp], rax
	lea	rdx, OFFSET FLAT:$SG95989
	mov	rcx, QWORD PTR $T102766[rsp]
	call	??0?$basic_string@DU?$char_traits@D@std@@V?$allocator@D@2@@std@@QEAA@PEBD@Z ; std::basic_string<char,std::char_traits<char>,std::allocator<char> >::basic_string<char,std::char_traits<char>,std::allocator<char> >
	mov	QWORD PTR tv923[rsp], rax
	mov	BYTE PTR [rsp+32], 1
	mov	r9, QWORD PTR tv923[rsp]
	xor	r8d, r8d
	mov	edx, DWORD PTR status$[rsp]
	mov	rax, QWORD PTR this$[rsp]
	mov	rcx, QWORD PTR [rax+16]
	call	??$checkVal@H@SDKCommon@streamsdk@@QEBAHHHV?$basic_string@DU?$char_traits@D@std@@V?$allocator@D@2@@std@@_N@Z ; streamsdk::SDKCommon::checkVal<int>
	test	eax, eax
	jne	SHORT $LN20@setupCL
; Line 575
	mov	eax, 1
	jmp	$LN36@setupCL
$LN20@setupCL:
; Line 583
	lea	rax, QWORD PTR deviceListSize$[rsp]
	mov	QWORD PTR [rsp+32], rax
	xor	r9d, r9d
	xor	r8d, r8d
	mov	edx, 4225				; 00001081H
	mov	rax, QWORD PTR this$[rsp]
	mov	rcx, QWORD PTR [rax+320]
	call	clGetContextInfo
	mov	DWORD PTR status$[rsp], eax
; Line 587
	lea	rax, QWORD PTR $T102767[rsp]
	mov	QWORD PTR $T102768[rsp], rax
	lea	rdx, OFFSET FLAT:$SG95992
	mov	rcx, QWORD PTR $T102768[rsp]
	call	??0?$basic_string@DU?$char_traits@D@std@@V?$allocator@D@2@@std@@QEAA@PEBD@Z ; std::basic_string<char,std::char_traits<char>,std::allocator<char> >::basic_string<char,std::char_traits<char>,std::allocator<char> >
	mov	QWORD PTR tv925[rsp], rax
	mov	BYTE PTR [rsp+32], 1
	mov	r9, QWORD PTR tv925[rsp]
	xor	r8d, r8d
	mov	edx, DWORD PTR status$[rsp]
	mov	rax, QWORD PTR this$[rsp]
	mov	rcx, QWORD PTR [rax+16]
	call	??$checkVal@H@SDKCommon@streamsdk@@QEBAHHHV?$basic_string@DU?$char_traits@D@std@@V?$allocator@D@2@@std@@_N@Z ; streamsdk::SDKCommon::checkVal<int>
	test	eax, eax
	jne	SHORT $LN19@setupCL
; Line 588
	mov	eax, 1
	jmp	$LN36@setupCL
$LN19@setupCL:
; Line 590
	xor	edx, edx
	mov	rax, QWORD PTR deviceListSize$[rsp]
	mov	ecx, 8
	div	rcx
	mov	DWORD PTR deviceCount$[rsp], eax
; Line 591
	mov	r8d, DWORD PTR deviceCount$[rsp]
	mov	rax, QWORD PTR this$[rsp]
	mov	edx, DWORD PTR [rax+96]
	mov	rax, QWORD PTR this$[rsp]
	mov	rcx, QWORD PTR [rax+16]
	call	?validateDeviceId@SDKCommon@streamsdk@@QEAAHHH@Z ; streamsdk::SDKCommon::validateDeviceId
	test	eax, eax
	jne	SHORT $LN18@setupCL
; Line 593
	lea	rdx, OFFSET FLAT:$SG95997
	mov	rax, QWORD PTR this$[rsp]
	mov	rcx, QWORD PTR [rax+16]
	call	?error@SDKCommon@streamsdk@@QEBAXPEBD@Z	; streamsdk::SDKCommon::error
; Line 594
	mov	eax, 1
	jmp	$LN36@setupCL
$LN18@setupCL:
; Line 598
	mov	rcx, QWORD PTR deviceListSize$[rsp]
	call	malloc
	mov	rcx, QWORD PTR this$[rsp]
	mov	QWORD PTR [rcx+328], rax
; Line 599
	mov	rax, QWORD PTR this$[rsp]
	cmp	QWORD PTR [rax+328], 0
	jne	SHORT $LN17@setupCL
; Line 601
	lea	rdx, OFFSET FLAT:$SG96000
	mov	rax, QWORD PTR this$[rsp]
	mov	rcx, QWORD PTR [rax+16]
	call	?error@SDKCommon@streamsdk@@QEBAXPEBD@Z	; streamsdk::SDKCommon::error
; Line 602
	mov	eax, 1
	jmp	$LN36@setupCL
$LN17@setupCL:
; Line 611
	mov	QWORD PTR [rsp+32], 0
	mov	rax, QWORD PTR this$[rsp]
	mov	r9, QWORD PTR [rax+328]
	mov	r8, QWORD PTR deviceListSize$[rsp]
	mov	edx, 4225				; 00001081H
	mov	rax, QWORD PTR this$[rsp]
	mov	rcx, QWORD PTR [rax+320]
	call	clGetContextInfo
	mov	DWORD PTR status$[rsp], eax
; Line 615
	lea	rax, QWORD PTR $T102769[rsp]
	mov	QWORD PTR $T102770[rsp], rax
	lea	rdx, OFFSET FLAT:$SG96003
	mov	rcx, QWORD PTR $T102770[rsp]
	call	??0?$basic_string@DU?$char_traits@D@std@@V?$allocator@D@2@@std@@QEAA@PEBD@Z ; std::basic_string<char,std::char_traits<char>,std::allocator<char> >::basic_string<char,std::char_traits<char>,std::allocator<char> >
	mov	QWORD PTR tv927[rsp], rax
	mov	BYTE PTR [rsp+32], 1
	mov	r9, QWORD PTR tv927[rsp]
	xor	r8d, r8d
	mov	edx, DWORD PTR status$[rsp]
	mov	rax, QWORD PTR this$[rsp]
	mov	rcx, QWORD PTR [rax+16]
	call	??$checkVal@H@SDKCommon@streamsdk@@QEBAHHHV?$basic_string@DU?$char_traits@D@std@@V?$allocator@D@2@@std@@_N@Z ; streamsdk::SDKCommon::checkVal<int>
	test	eax, eax
	jne	SHORT $LN16@setupCL
; Line 616
	mov	eax, 1
	jmp	$LN36@setupCL
$LN16@setupCL:
; Line 620
	mov	QWORD PTR prop$96004[rsp], 0
; Line 625
	mov	rax, QWORD PTR this$[rsp]
	mov	eax, DWORD PTR [rax+96]
	mov	rcx, QWORD PTR this$[rsp]
	mov	rcx, QWORD PTR [rcx+328]
	lea	r9, QWORD PTR status$[rsp]
	mov	r8, QWORD PTR prop$96004[rsp]
	mov	rdx, QWORD PTR [rcx+rax*8]
	mov	rax, QWORD PTR this$[rsp]
	mov	rcx, QWORD PTR [rax+320]
	call	clCreateCommandQueue
	mov	rcx, QWORD PTR this$[rsp]
	mov	QWORD PTR [rcx+360], rax
; Line 629
	lea	rax, QWORD PTR $T102771[rsp]
	mov	QWORD PTR $T102772[rsp], rax
	lea	rdx, OFFSET FLAT:$SG96007
	mov	rcx, QWORD PTR $T102772[rsp]
	call	??0?$basic_string@DU?$char_traits@D@std@@V?$allocator@D@2@@std@@QEAA@PEBD@Z ; std::basic_string<char,std::char_traits<char>,std::allocator<char> >::basic_string<char,std::char_traits<char>,std::allocator<char> >
	mov	QWORD PTR tv929[rsp], rax
	mov	BYTE PTR [rsp+32], 1
	mov	r9, QWORD PTR tv929[rsp]
	xor	r8d, r8d
	mov	edx, DWORD PTR status$[rsp]
	mov	rax, QWORD PTR this$[rsp]
	mov	rcx, QWORD PTR [rax+16]
	call	??$checkVal@H@SDKCommon@streamsdk@@QEBAHHHV?$basic_string@DU?$char_traits@D@std@@V?$allocator@D@2@@std@@_N@Z ; streamsdk::SDKCommon::checkVal<int>
	test	eax, eax
	jne	SHORT $LN15@setupCL
; Line 630
	mov	eax, 1
	jmp	$LN36@setupCL
$LN15@setupCL:
; Line 638
	mov	rax, QWORD PTR this$[rsp]
	movsxd	rax, DWORD PTR [rax+416]
	shl	rax, 2
	mov	rcx, QWORD PTR this$[rsp]
	movsxd	rcx, DWORD PTR [rcx+420]
	imul	rax, rcx
	lea	rcx, QWORD PTR status$[rsp]
	mov	QWORD PTR [rsp+32], rcx
	mov	rcx, QWORD PTR this$[rsp]
	mov	r9, QWORD PTR [rcx+424]
	mov	r8, rax
	mov	edx, 12
	mov	rax, QWORD PTR this$[rsp]
	mov	rcx, QWORD PTR [rax+320]
	call	clCreateBuffer
	mov	rcx, QWORD PTR this$[rsp]
	mov	QWORD PTR [rcx+336], rax
; Line 642
	lea	rax, QWORD PTR $T102773[rsp]
	mov	QWORD PTR $T102774[rsp], rax
	lea	rdx, OFFSET FLAT:$SG96011
	mov	rcx, QWORD PTR $T102774[rsp]
	call	??0?$basic_string@DU?$char_traits@D@std@@V?$allocator@D@2@@std@@QEAA@PEBD@Z ; std::basic_string<char,std::char_traits<char>,std::allocator<char> >::basic_string<char,std::char_traits<char>,std::allocator<char> >
	mov	QWORD PTR tv931[rsp], rax
	mov	BYTE PTR [rsp+32], 1
	mov	r9, QWORD PTR tv931[rsp]
	xor	r8d, r8d
	mov	edx, DWORD PTR status$[rsp]
	mov	rax, QWORD PTR this$[rsp]
	mov	rcx, QWORD PTR [rax+16]
	call	??$checkVal@H@SDKCommon@streamsdk@@QEBAHHHV?$basic_string@DU?$char_traits@D@std@@V?$allocator@D@2@@std@@_N@Z ; streamsdk::SDKCommon::checkVal<int>
	test	eax, eax
	jne	SHORT $LN14@setupCL
; Line 643
	mov	eax, 1
	jmp	$LN36@setupCL
$LN14@setupCL:
; Line 650
	mov	rax, QWORD PTR this$[rsp]
	movsxd	rax, DWORD PTR [rax+416]
	shl	rax, 2
	mov	rcx, QWORD PTR this$[rsp]
	movsxd	rcx, DWORD PTR [rcx+420]
	imul	rax, rcx
	lea	rcx, QWORD PTR status$[rsp]
	mov	QWORD PTR [rsp+32], rcx
	mov	rcx, QWORD PTR this$[rsp]
	mov	r9, QWORD PTR [rcx+432]
	mov	r8, rax
	mov	edx, 10
	mov	rax, QWORD PTR this$[rsp]
	mov	rcx, QWORD PTR [rax+320]
	call	clCreateBuffer
	mov	rcx, QWORD PTR this$[rsp]
	mov	QWORD PTR [rcx+344], rax
; Line 654
	lea	rax, QWORD PTR $T102775[rsp]
	mov	QWORD PTR $T102776[rsp], rax
	lea	rdx, OFFSET FLAT:$SG96015
	mov	rcx, QWORD PTR $T102776[rsp]
	call	??0?$basic_string@DU?$char_traits@D@std@@V?$allocator@D@2@@std@@QEAA@PEBD@Z ; std::basic_string<char,std::char_traits<char>,std::allocator<char> >::basic_string<char,std::char_traits<char>,std::allocator<char> >
	mov	QWORD PTR tv933[rsp], rax
	mov	BYTE PTR [rsp+32], 1
	mov	r9, QWORD PTR tv933[rsp]
	xor	r8d, r8d
	mov	edx, DWORD PTR status$[rsp]
	mov	rax, QWORD PTR this$[rsp]
	mov	rcx, QWORD PTR [rax+16]
	call	??$checkVal@H@SDKCommon@streamsdk@@QEBAHHHV?$basic_string@DU?$char_traits@D@std@@V?$allocator@D@2@@std@@_N@Z ; streamsdk::SDKCommon::checkVal<int>
	test	eax, eax
	jne	SHORT $LN13@setupCL
; Line 655
	mov	eax, 1
	jmp	$LN36@setupCL
$LN13@setupCL:
; Line 662
	mov	rax, QWORD PTR this$[rsp]
	mov	eax, DWORD PTR [rax+448]
	shl	rax, 2
	mov	rcx, QWORD PTR this$[rsp]
	mov	ecx, DWORD PTR [rcx+452]
	imul	rax, rcx
	lea	rcx, QWORD PTR status$[rsp]
	mov	QWORD PTR [rsp+32], rcx
	mov	rcx, QWORD PTR this$[rsp]
	mov	r9, QWORD PTR [rcx+440]
	mov	r8, rax
	mov	edx, 12
	mov	rax, QWORD PTR this$[rsp]
	mov	rcx, QWORD PTR [rax+320]
	call	clCreateBuffer
	mov	rcx, QWORD PTR this$[rsp]
	mov	QWORD PTR [rcx+352], rax
; Line 666
	lea	rax, QWORD PTR $T102777[rsp]
	mov	QWORD PTR $T102778[rsp], rax
	lea	rdx, OFFSET FLAT:$SG96019
	mov	rcx, QWORD PTR $T102778[rsp]
	call	??0?$basic_string@DU?$char_traits@D@std@@V?$allocator@D@2@@std@@QEAA@PEBD@Z ; std::basic_string<char,std::char_traits<char>,std::allocator<char> >::basic_string<char,std::char_traits<char>,std::allocator<char> >
	mov	QWORD PTR tv935[rsp], rax
	mov	BYTE PTR [rsp+32], 1
	mov	r9, QWORD PTR tv935[rsp]
	xor	r8d, r8d
	mov	edx, DWORD PTR status$[rsp]
	mov	rax, QWORD PTR this$[rsp]
	mov	rcx, QWORD PTR [rax+16]
	call	??$checkVal@H@SDKCommon@streamsdk@@QEBAHHHV?$basic_string@DU?$char_traits@D@std@@V?$allocator@D@2@@std@@_N@Z ; streamsdk::SDKCommon::checkVal<int>
	test	eax, eax
	jne	SHORT $LN12@setupCL
; Line 667
	mov	eax, 1
	jmp	$LN36@setupCL
$LN12@setupCL:
; Line 709
	mov	rax, QWORD PTR this$[rsp]
	add	rax, 456				; 000001c8H
	mov	rcx, rax
	call	?c_str@?$basic_string@DU?$char_traits@D@std@@V?$allocator@D@2@@std@@QEBAPEBDXZ ; std::basic_string<char,std::char_traits<char>,std::allocator<char> >::c_str
	mov	QWORD PTR source$[rsp], rax
; Line 710
	mov	rcx, QWORD PTR source$[rsp]
	call	strlen
	mov	QWORD PTR sourceSize$[rsp], rax
; Line 715
	lea	rax, QWORD PTR status$[rsp]
	mov	QWORD PTR [rsp+32], rax
	lea	r9, QWORD PTR sourceSize$[rsp]
	lea	r8, QWORD PTR source$[rsp]
	mov	edx, 1
	mov	rax, QWORD PTR this$[rsp]
	mov	rcx, QWORD PTR [rax+320]
	call	clCreateProgramWithSource
	mov	rcx, QWORD PTR this$[rsp]
	mov	QWORD PTR [rcx+368], rax
; Line 720
	lea	rax, QWORD PTR $T102779[rsp]
	mov	QWORD PTR $T102780[rsp], rax
	lea	rdx, OFFSET FLAT:$SG96024
	mov	rcx, QWORD PTR $T102780[rsp]
	call	??0?$basic_string@DU?$char_traits@D@std@@V?$allocator@D@2@@std@@QEAA@PEBD@Z ; std::basic_string<char,std::char_traits<char>,std::allocator<char> >::basic_string<char,std::char_traits<char>,std::allocator<char> >
	mov	QWORD PTR tv937[rsp], rax
	mov	BYTE PTR [rsp+32], 1
	mov	r9, QWORD PTR tv937[rsp]
	xor	r8d, r8d
	mov	edx, DWORD PTR status$[rsp]
	mov	rax, QWORD PTR this$[rsp]
	mov	rcx, QWORD PTR [rax+16]
	call	??$checkVal@H@SDKCommon@streamsdk@@QEBAHHHV?$basic_string@DU?$char_traits@D@std@@V?$allocator@D@2@@std@@_N@Z ; streamsdk::SDKCommon::checkVal<int>
	test	eax, eax
	jne	SHORT $LN11@setupCL
; Line 721
	mov	eax, 1
	jmp	$LN36@setupCL
$LN11@setupCL:
; Line 742
	mov	rax, QWORD PTR this$[rsp]
	add	rax, 504				; 000001f8H
	mov	rcx, rax
	call	?size@?$basic_string@DU?$char_traits@D@std@@V?$allocator@D@2@@std@@QEBA_KXZ ; std::basic_string<char,std::char_traits<char>,std::allocator<char> >::size
	test	rax, rax
	je	SHORT $LN10@setupCL
; Line 743
	mov	rax, QWORD PTR this$[rsp]
	add	rax, 504				; 000001f8H
	mov	rcx, rax
	call	?c_str@?$basic_string@DU?$char_traits@D@std@@V?$allocator@D@2@@std@@QEBAPEBDXZ ; std::basic_string<char,std::char_traits<char>,std::allocator<char> >::c_str
	mov	QWORD PTR tv597[rsp], rax
	lea	rdx, OFFSET FLAT:$SG96030
	lea	rcx, OFFSET FLAT:?cout@std@@3V?$basic_ostream@DU?$char_traits@D@std@@@1@A ; std::cout
	call	??$?6U?$char_traits@D@std@@@std@@YAAEAV?$basic_ostream@DU?$char_traits@D@std@@@0@AEAV10@PEBD@Z ; std::operator<<<std::char_traits<char> >
	mov	rcx, QWORD PTR tv597[rsp]
	mov	rdx, rcx
	mov	rcx, rax
	call	??$?6U?$char_traits@D@std@@@std@@YAAEAV?$basic_ostream@DU?$char_traits@D@std@@@0@AEAV10@PEBD@Z ; std::operator<<<std::char_traits<char> >
	lea	rdx, OFFSET FLAT:?endl@std@@YAAEAV?$basic_ostream@DU?$char_traits@D@std@@@1@AEAV21@@Z ; std::endl
	mov	rcx, rax
	call	??6?$basic_ostream@DU?$char_traits@D@std@@@std@@QEAAAEAV01@P6AAEAV01@AEAV01@@Z@Z ; std::basic_ostream<char,std::char_traits<char> >::operator<<
$LN10@setupCL:
; Line 753
	mov	rax, QWORD PTR this$[rsp]
	add	rax, 504				; 000001f8H
	mov	rcx, rax
	call	?c_str@?$basic_string@DU?$char_traits@D@std@@V?$allocator@D@2@@std@@QEBAPEBDXZ ; std::basic_string<char,std::char_traits<char>,std::allocator<char> >::c_str
	mov	rcx, QWORD PTR this$[rsp]
	mov	ecx, DWORD PTR [rcx+96]
	mov	rdx, QWORD PTR this$[rsp]
	mov	rdx, QWORD PTR [rdx+328]
	lea	rcx, QWORD PTR [rdx+rcx*8]
	mov	QWORD PTR [rsp+40], 0
	mov	QWORD PTR [rsp+32], 0
	mov	r9, rax
	mov	r8, rcx
	mov	edx, 1
	mov	rax, QWORD PTR this$[rsp]
	mov	rcx, QWORD PTR [rax+368]
	call	clBuildProgram
	mov	DWORD PTR status$[rsp], eax
; Line 758
	lea	rax, QWORD PTR $T102781[rsp]
	mov	QWORD PTR $T102782[rsp], rax
	lea	rdx, OFFSET FLAT:$SG96033
	mov	rcx, QWORD PTR $T102782[rsp]
	call	??0?$basic_string@DU?$char_traits@D@std@@V?$allocator@D@2@@std@@QEAA@PEBD@Z ; std::basic_string<char,std::char_traits<char>,std::allocator<char> >::basic_string<char,std::char_traits<char>,std::allocator<char> >
	mov	QWORD PTR tv939[rsp], rax
	mov	BYTE PTR [rsp+32], 1
	mov	r9, QWORD PTR tv939[rsp]
	xor	r8d, r8d
	mov	edx, DWORD PTR status$[rsp]
	mov	rax, QWORD PTR this$[rsp]
	mov	rcx, QWORD PTR [rax+16]
	call	??$checkVal@H@SDKCommon@streamsdk@@QEBAHHHV?$basic_string@DU?$char_traits@D@std@@V?$allocator@D@2@@std@@_N@Z ; streamsdk::SDKCommon::checkVal<int>
	test	eax, eax
	jne	SHORT $LN9@setupCL
; Line 759
	mov	eax, 1
	jmp	$LN36@setupCL
$LN9@setupCL:
; Line 762
	mov	rax, QWORD PTR this$[rsp]
	add	rax, 552				; 00000228H
	mov	rcx, rax
	call	?c_str@?$basic_string@DU?$char_traits@D@std@@V?$allocator@D@2@@std@@QEBAPEBDXZ ; std::basic_string<char,std::char_traits<char>,std::allocator<char> >::c_str
	lea	r8, QWORD PTR status$[rsp]
	mov	rdx, rax
	mov	rax, QWORD PTR this$[rsp]
	mov	rcx, QWORD PTR [rax+368]
	call	clCreateKernel
	mov	rcx, QWORD PTR this$[rsp]
	mov	QWORD PTR [rcx+376], rax
; Line 766
	lea	rax, QWORD PTR $T102783[rsp]
	mov	QWORD PTR $T102784[rsp], rax
	lea	rdx, OFFSET FLAT:$SG96036
	mov	rcx, QWORD PTR $T102784[rsp]
	call	??0?$basic_string@DU?$char_traits@D@std@@V?$allocator@D@2@@std@@QEAA@PEBD@Z ; std::basic_string<char,std::char_traits<char>,std::allocator<char> >::basic_string<char,std::char_traits<char>,std::allocator<char> >
	mov	QWORD PTR tv941[rsp], rax
	mov	BYTE PTR [rsp+32], 1
	mov	r9, QWORD PTR tv941[rsp]
	xor	r8d, r8d
	mov	edx, DWORD PTR status$[rsp]
	mov	rax, QWORD PTR this$[rsp]
	mov	rcx, QWORD PTR [rax+16]
	call	??$checkVal@H@SDKCommon@streamsdk@@QEBAHHHV?$basic_string@DU?$char_traits@D@std@@V?$allocator@D@2@@std@@_N@Z ; streamsdk::SDKCommon::checkVal<int>
	test	eax, eax
	jne	SHORT $LN8@setupCL
; Line 767
	mov	eax, 1
	jmp	$LN36@setupCL
$LN8@setupCL:
; Line 769
	mov	rax, QWORD PTR this$[rsp]
	mov	rcx, QWORD PTR this$[rsp]
	mov	eax, DWORD PTR [rax+416]
	imul	eax, DWORD PTR [rcx+420]
	cdqe
	mov	rcx, QWORD PTR this$[rsp]
	mov	QWORD PTR [rcx+400], rax
; Line 770
	mov	rax, QWORD PTR this$[rsp]
	mov	QWORD PTR [rax+408], 256		; 00000100H
; Line 778
	mov	rax, QWORD PTR this$[rsp]
	add	rax, 384				; 00000180H
	mov	rcx, QWORD PTR this$[rsp]
	mov	ecx, DWORD PTR [rcx+96]
	mov	rdx, QWORD PTR this$[rsp]
	mov	rdx, QWORD PTR [rdx+328]
	mov	QWORD PTR [rsp+40], 0
	mov	QWORD PTR [rsp+32], rax
	mov	r9d, 8
	mov	r8d, 4528				; 000011b0H
	mov	rdx, QWORD PTR [rdx+rcx*8]
	mov	rax, QWORD PTR this$[rsp]
	mov	rcx, QWORD PTR [rax+376]
	call	clGetKernelWorkGroupInfo
	mov	DWORD PTR status$[rsp], eax
; Line 782
	lea	rax, QWORD PTR $T102785[rsp]
	mov	QWORD PTR $T102786[rsp], rax
	lea	rdx, OFFSET FLAT:$SG96040
	mov	rcx, QWORD PTR $T102786[rsp]
	call	??0?$basic_string@DU?$char_traits@D@std@@V?$allocator@D@2@@std@@QEAA@PEBD@Z ; std::basic_string<char,std::char_traits<char>,std::allocator<char> >::basic_string<char,std::char_traits<char>,std::allocator<char> >
	mov	QWORD PTR tv943[rsp], rax
	mov	BYTE PTR [rsp+32], 1
	mov	r9, QWORD PTR tv943[rsp]
	xor	r8d, r8d
	mov	edx, DWORD PTR status$[rsp]
	mov	rax, QWORD PTR this$[rsp]
	mov	rcx, QWORD PTR [rax+16]
	call	??$checkVal@H@SDKCommon@streamsdk@@QEBAHHHV?$basic_string@DU?$char_traits@D@std@@V?$allocator@D@2@@std@@_N@Z ; streamsdk::SDKCommon::checkVal<int>
	test	eax, eax
	jne	SHORT $LN7@setupCL
; Line 784
	mov	eax, 1
	jmp	$LN36@setupCL
$LN7@setupCL:
; Line 787
	mov	rax, QWORD PTR this$[rsp]
	mov	eax, DWORD PTR [rax+408]
	mov	rcx, QWORD PTR this$[rsp]
	cmp	rax, QWORD PTR [rcx+384]
	jbe	$LN6@setupCL
; Line 789
	mov	rax, QWORD PTR this$[rsp]
	cmp	DWORD PTR [rax+80], 0
	jne	$LN5@setupCL
; Line 791
	lea	rdx, OFFSET FLAT:$SG96048
	lea	rcx, OFFSET FLAT:?cout@std@@3V?$basic_ostream@DU?$char_traits@D@std@@@1@A ; std::cout
	call	??$?6U?$char_traits@D@std@@@std@@YAAEAV?$basic_ostream@DU?$char_traits@D@std@@@0@AEAV10@PEBD@Z ; std::operator<<<std::char_traits<char> >
	lea	rdx, OFFSET FLAT:?endl@std@@YAAEAV?$basic_ostream@DU?$char_traits@D@std@@@1@AEAV21@@Z ; std::endl
	mov	rcx, rax
	call	??6?$basic_ostream@DU?$char_traits@D@std@@@std@@QEAAAEAV01@P6AAEAV01@AEAV01@@Z@Z ; std::basic_ostream<char,std::char_traits<char> >::operator<<
; Line 793
	lea	rdx, OFFSET FLAT:$SG96053
	lea	rcx, OFFSET FLAT:?cout@std@@3V?$basic_ostream@DU?$char_traits@D@std@@@1@A ; std::cout
	call	??$?6U?$char_traits@D@std@@@std@@YAAEAV?$basic_ostream@DU?$char_traits@D@std@@@0@AEAV10@PEBD@Z ; std::operator<<<std::char_traits<char> >
	mov	rcx, QWORD PTR this$[rsp]
	mov	rdx, QWORD PTR [rcx+408]
	mov	rcx, rax
	call	??6?$basic_ostream@DU?$char_traits@D@std@@@std@@QEAAAEAV01@_K@Z ; std::basic_ostream<char,std::char_traits<char> >::operator<<
	lea	rdx, OFFSET FLAT:?endl@std@@YAAEAV?$basic_ostream@DU?$char_traits@D@std@@@1@AEAV21@@Z ; std::endl
	mov	rcx, rax
	call	??6?$basic_ostream@DU?$char_traits@D@std@@@std@@QEAAAEAV01@P6AAEAV01@AEAV01@@Z@Z ; std::basic_ostream<char,std::char_traits<char> >::operator<<
; Line 795
	lea	rdx, OFFSET FLAT:$SG96058
	lea	rcx, OFFSET FLAT:?cout@std@@3V?$basic_ostream@DU?$char_traits@D@std@@@1@A ; std::cout
	call	??$?6U?$char_traits@D@std@@@std@@YAAEAV?$basic_ostream@DU?$char_traits@D@std@@@0@AEAV10@PEBD@Z ; std::operator<<<std::char_traits<char> >
	mov	rcx, QWORD PTR this$[rsp]
	mov	rdx, QWORD PTR [rcx+384]
	mov	rcx, rax
	call	??6?$basic_ostream@DU?$char_traits@D@std@@@std@@QEAAAEAV01@_K@Z ; std::basic_ostream<char,std::char_traits<char> >::operator<<
	lea	rdx, OFFSET FLAT:?endl@std@@YAAEAV?$basic_ostream@DU?$char_traits@D@std@@@1@AEAV21@@Z ; std::endl
	mov	rcx, rax
	call	??6?$basic_ostream@DU?$char_traits@D@std@@@std@@QEAAAEAV01@P6AAEAV01@AEAV01@@Z@Z ; std::basic_ostream<char,std::char_traits<char> >::operator<<
; Line 797
	lea	rdx, OFFSET FLAT:$SG96063
	lea	rcx, OFFSET FLAT:?cout@std@@3V?$basic_ostream@DU?$char_traits@D@std@@@1@A ; std::cout
	call	??$?6U?$char_traits@D@std@@@std@@YAAEAV?$basic_ostream@DU?$char_traits@D@std@@@0@AEAV10@PEBD@Z ; std::operator<<<std::char_traits<char> >
	mov	rcx, QWORD PTR this$[rsp]
	mov	rdx, QWORD PTR [rcx+384]
	mov	rcx, rax
	call	??6?$basic_ostream@DU?$char_traits@D@std@@@std@@QEAAAEAV01@_K@Z ; std::basic_ostream<char,std::char_traits<char> >::operator<<
	lea	rdx, OFFSET FLAT:?endl@std@@YAAEAV?$basic_ostream@DU?$char_traits@D@std@@@1@AEAV21@@Z ; std::endl
	mov	rcx, rax
	call	??6?$basic_ostream@DU?$char_traits@D@std@@@std@@QEAAAEAV01@P6AAEAV01@AEAV01@@Z@Z ; std::basic_ostream<char,std::char_traits<char> >::operator<<
$LN5@setupCL:
; Line 800
	mov	rax, QWORD PTR this$[rsp]
	mov	rcx, QWORD PTR this$[rsp]
	mov	rcx, QWORD PTR [rcx+384]
	mov	QWORD PTR [rax+408], rcx
$LN6@setupCL:
; Line 805
	mov	rax, QWORD PTR this$[rsp]
	add	rax, 344				; 00000158H
	mov	r9, rax
	mov	r8d, 8
	xor	edx, edx
	mov	rax, QWORD PTR this$[rsp]
	mov	rcx, QWORD PTR [rax+376]
	call	clSetKernelArg
	mov	DWORD PTR status$[rsp], eax
; Line 806
	lea	rax, QWORD PTR $T102787[rsp]
	mov	QWORD PTR $T102788[rsp], rax
	lea	rdx, OFFSET FLAT:$SG96068
	mov	rcx, QWORD PTR $T102788[rsp]
	call	??0?$basic_string@DU?$char_traits@D@std@@V?$allocator@D@2@@std@@QEAA@PEBD@Z ; std::basic_string<char,std::char_traits<char>,std::allocator<char> >::basic_string<char,std::char_traits<char>,std::allocator<char> >
	mov	QWORD PTR tv945[rsp], rax
	mov	BYTE PTR [rsp+32], 1
	mov	r9, QWORD PTR tv945[rsp]
	xor	r8d, r8d
	mov	edx, DWORD PTR status$[rsp]
	mov	rax, QWORD PTR this$[rsp]
	mov	rcx, QWORD PTR [rax+16]
	call	??$checkVal@H@SDKCommon@streamsdk@@QEBAHHHV?$basic_string@DU?$char_traits@D@std@@V?$allocator@D@2@@std@@_N@Z ; streamsdk::SDKCommon::checkVal<int>
	test	eax, eax
	jne	SHORT $LN4@setupCL
; Line 807
	mov	eax, 1
	jmp	$LN36@setupCL
$LN4@setupCL:
; Line 811
	mov	rax, QWORD PTR this$[rsp]
	add	rax, 352				; 00000160H
	mov	r9, rax
	mov	r8d, 8
	mov	edx, 2
	mov	rax, QWORD PTR this$[rsp]
	mov	rcx, QWORD PTR [rax+376]
	call	clSetKernelArg
	mov	DWORD PTR status$[rsp], eax
; Line 812
	lea	rax, QWORD PTR $T102789[rsp]
	mov	QWORD PTR $T102790[rsp], rax
	lea	rdx, OFFSET FLAT:$SG96073
	mov	rcx, QWORD PTR $T102790[rsp]
	call	??0?$basic_string@DU?$char_traits@D@std@@V?$allocator@D@2@@std@@QEAA@PEBD@Z ; std::basic_string<char,std::char_traits<char>,std::allocator<char> >::basic_string<char,std::char_traits<char>,std::allocator<char> >
	mov	QWORD PTR tv947[rsp], rax
	mov	BYTE PTR [rsp+32], 1
	mov	r9, QWORD PTR tv947[rsp]
	xor	r8d, r8d
	mov	edx, DWORD PTR status$[rsp]
	mov	rax, QWORD PTR this$[rsp]
	mov	rcx, QWORD PTR [rax+16]
	call	??$checkVal@H@SDKCommon@streamsdk@@QEBAHHHV?$basic_string@DU?$char_traits@D@std@@V?$allocator@D@2@@std@@_N@Z ; streamsdk::SDKCommon::checkVal<int>
	test	eax, eax
	jne	SHORT $LN3@setupCL
; Line 813
	mov	eax, 1
	jmp	$LN36@setupCL
$LN3@setupCL:
; Line 816
	mov	rax, QWORD PTR this$[rsp]
	mov	eax, DWORD PTR [rax+416]
	mov	DWORD PTR inputDimensions$[rsp], eax
	mov	rax, QWORD PTR this$[rsp]
	mov	eax, DWORD PTR [rax+420]
	mov	DWORD PTR inputDimensions$[rsp+4], eax
; Line 817
	mov	rax, QWORD PTR this$[rsp]
	mov	eax, DWORD PTR [rax+448]
	mov	DWORD PTR maskDimensions$[rsp], eax
	mov	rax, QWORD PTR this$[rsp]
	mov	eax, DWORD PTR [rax+452]
	mov	DWORD PTR maskDimensions$[rsp+4], eax
; Line 819
	lea	r9, QWORD PTR inputDimensions$[rsp]
	mov	r8d, 8
	mov	edx, 3
	mov	rax, QWORD PTR this$[rsp]
	mov	rcx, QWORD PTR [rax+376]
	call	clSetKernelArg
	mov	DWORD PTR status$[rsp], eax
; Line 820
	lea	rax, QWORD PTR $T102791[rsp]
	mov	QWORD PTR $T102792[rsp], rax
	lea	rdx, OFFSET FLAT:$SG96080
	mov	rcx, QWORD PTR $T102792[rsp]
	call	??0?$basic_string@DU?$char_traits@D@std@@V?$allocator@D@2@@std@@QEAA@PEBD@Z ; std::basic_string<char,std::char_traits<char>,std::allocator<char> >::basic_string<char,std::char_traits<char>,std::allocator<char> >
	mov	QWORD PTR tv949[rsp], rax
	mov	BYTE PTR [rsp+32], 1
	mov	r9, QWORD PTR tv949[rsp]
	xor	r8d, r8d
	mov	edx, DWORD PTR status$[rsp]
	mov	rax, QWORD PTR this$[rsp]
	mov	rcx, QWORD PTR [rax+16]
	call	??$checkVal@H@SDKCommon@streamsdk@@QEBAHHHV?$basic_string@DU?$char_traits@D@std@@V?$allocator@D@2@@std@@_N@Z ; streamsdk::SDKCommon::checkVal<int>
	test	eax, eax
	jne	SHORT $LN2@setupCL
; Line 821
	mov	eax, 1
	jmp	$LN36@setupCL
$LN2@setupCL:
; Line 824
	lea	r9, QWORD PTR maskDimensions$[rsp]
	mov	r8d, 8
	mov	edx, 4
	mov	rax, QWORD PTR this$[rsp]
	mov	rcx, QWORD PTR [rax+376]
	call	clSetKernelArg
	mov	DWORD PTR status$[rsp], eax
; Line 825
	lea	rax, QWORD PTR $T102793[rsp]
	mov	QWORD PTR $T102794[rsp], rax
	lea	rdx, OFFSET FLAT:$SG96085
	mov	rcx, QWORD PTR $T102794[rsp]
	call	??0?$basic_string@DU?$char_traits@D@std@@V?$allocator@D@2@@std@@QEAA@PEBD@Z ; std::basic_string<char,std::char_traits<char>,std::allocator<char> >::basic_string<char,std::char_traits<char>,std::allocator<char> >
	mov	QWORD PTR tv951[rsp], rax
	mov	BYTE PTR [rsp+32], 1
	mov	r9, QWORD PTR tv951[rsp]
	xor	r8d, r8d
	mov	edx, DWORD PTR status$[rsp]
	mov	rax, QWORD PTR this$[rsp]
	mov	rcx, QWORD PTR [rax+16]
	call	??$checkVal@H@SDKCommon@streamsdk@@QEBAHHHV?$basic_string@DU?$char_traits@D@std@@V?$allocator@D@2@@std@@_N@Z ; streamsdk::SDKCommon::checkVal<int>
	test	eax, eax
	jne	SHORT $LN1@setupCL
; Line 826
	mov	eax, 1
	jmp	SHORT $LN36@setupCL
$LN1@setupCL:
; Line 828
	xor	eax, eax
$LN36@setupCL:
; Line 829
	mov	rdi, rax
	mov	rcx, rsp
	lea	rdx, OFFSET FLAT:?setupCL@SimpleConvolution@@QEAAHXZ$rtcFrameData
	call	_RTC_CheckStackVars
	mov	rax, rdi
	mov	rcx, QWORD PTR __$ArrayPad$[rsp]
	xor	rcx, rsp
	call	__security_check_cookie
	add	rsp, 1680				; 00000690H
	pop	rdi
	ret	0
?setupCL@SimpleConvolution@@QEAAHXZ ENDP		; SimpleConvolution::setupCL
_TEXT	ENDS
;	COMDAT pdata
; File c:\users\bashc\documents\amd app\samples\opencl\sdkutil\include\sdkapplication.hpp
pdata	SEGMENT
$pdata$?isPlatformEnabled@SDKSample@@QEAA_NXZ DD imagerel $LN3
	DD	imagerel $LN3+17
	DD	imagerel $unwind$?isPlatformEnabled@SDKSample@@QEAA_NXZ
pdata	ENDS
;	COMDAT xdata
xdata	SEGMENT
$unwind$?isPlatformEnabled@SDKSample@@QEAA_NXZ DD 010601H
	DD	07006H
; Function compile flags: /Odtp /RTCsu
xdata	ENDS
;	COMDAT ?isPlatformEnabled@SDKSample@@QEAA_NXZ
_TEXT	SEGMENT
this$ = 16
?isPlatformEnabled@SDKSample@@QEAA_NXZ PROC		; SDKSample::isPlatformEnabled, COMDAT
; Line 77
$LN3:
	mov	QWORD PTR [rsp+8], rcx
	push	rdi
; Line 78
	mov	rax, QWORD PTR this$[rsp]
	movzx	eax, BYTE PTR [rax+108]
; Line 79
	pop	rdi
	ret	0
?isPlatformEnabled@SDKSample@@QEAA_NXZ ENDP		; SDKSample::isPlatformEnabled
_TEXT	ENDS
;	COMDAT pdata
pdata	SEGMENT
$pdata$?isThereGPU@SDKSample@@QEAA_NXZ DD imagerel $LN3
	DD	imagerel $LN3+17
	DD	imagerel $unwind$?isThereGPU@SDKSample@@QEAA_NXZ
pdata	ENDS
;	COMDAT xdata
xdata	SEGMENT
$unwind$?isThereGPU@SDKSample@@QEAA_NXZ DD 010601H
	DD	07006H
; Function compile flags: /Odtp /RTCsu
xdata	ENDS
;	COMDAT ?isThereGPU@SDKSample@@QEAA_NXZ
_TEXT	SEGMENT
this$ = 16
?isThereGPU@SDKSample@@QEAA_NXZ PROC			; SDKSample::isThereGPU, COMDAT
; Line 87
$LN3:
	mov	QWORD PTR [rsp+8], rcx
	push	rdi
; Line 88
	mov	rax, QWORD PTR this$[rsp]
	movzx	eax, BYTE PTR [rax+109]
; Line 89
	pop	rdi
	ret	0
?isThereGPU@SDKSample@@QEAA_NXZ ENDP			; SDKSample::isThereGPU
_TEXT	ENDS
PUBLIC	?resetInput@SimpleConvolution@@QEAAHXZ		; SimpleConvolution::resetInput
EXTRN	clReleaseMemObject:PROC
pdata	SEGMENT
$pdata$?resetInput@SimpleConvolution@@QEAAHXZ DD imagerel $LN9
	DD	imagerel $LN9+531
	DD	imagerel $unwind$?resetInput@SimpleConvolution@@QEAAHXZ
pdata	ENDS
xdata	SEGMENT
$unwind$?resetInput@SimpleConvolution@@QEAAHXZ DD 032401H
	DD	022010dH
	DD	07006H
xdata	ENDS
CONST	SEGMENT
?resetInput@SimpleConvolution@@QEAAHXZ$rtcName$0 DB 073H ; SimpleConvolution::resetInput
	DB	074H
	DB	061H
	DB	074H
	DB	075H
	DB	073H
	DB	00H
	ORG $+9
?resetInput@SimpleConvolution@@QEAAHXZ$rtcVarDesc DD 034H ; SimpleConvolution::resetInput
	DD	04H
	DQ	FLAT:?resetInput@SimpleConvolution@@QEAAHXZ$rtcName$0
	ORG $+48
?resetInput@SimpleConvolution@@QEAAHXZ$rtcFrameData DD 01H ; SimpleConvolution::resetInput
	DD	00H
	DQ	FLAT:?resetInput@SimpleConvolution@@QEAAHXZ$rtcVarDesc
; Function compile flags: /Odtp /RTCsu
CONST	ENDS
_TEXT	SEGMENT
status$ = 52
$T102861 = 72
$T102862 = 120
$T102863 = 128
$T102864 = 176
$T102865 = 184
$T102866 = 232
tv185 = 240
tv187 = 248
tv189 = 256
this$ = 288
?resetInput@SimpleConvolution@@QEAAHXZ PROC		; SimpleConvolution::resetInput
; File c:\users\bashc\documents\amd app\samples\opencl\cl\app\simpleconvolution - copy\simpleconvolution.cpp
; Line 832
$LN9:
	mov	QWORD PTR [rsp+8], rcx
	push	rdi
	sub	rsp, 272				; 00000110H
	mov	rdi, rsp
	mov	ecx, 68					; 00000044H
	mov	eax, -858993460				; ccccccccH
	rep stosd
	mov	rcx, QWORD PTR [rsp+288]
; Line 833
	mov	DWORD PTR status$[rsp], 0
; Line 835
	mov	rax, QWORD PTR this$[rsp]
	mov	rcx, QWORD PTR [rax+336]
	call	clReleaseMemObject
	mov	DWORD PTR status$[rsp], eax
; Line 839
	lea	rax, QWORD PTR $T102861[rsp]
	mov	QWORD PTR $T102862[rsp], rax
	lea	rdx, OFFSET FLAT:$SG96092
	mov	rcx, QWORD PTR $T102862[rsp]
	call	??0?$basic_string@DU?$char_traits@D@std@@V?$allocator@D@2@@std@@QEAA@PEBD@Z ; std::basic_string<char,std::char_traits<char>,std::allocator<char> >::basic_string<char,std::char_traits<char>,std::allocator<char> >
	mov	QWORD PTR tv185[rsp], rax
	mov	BYTE PTR [rsp+32], 1
	mov	r9, QWORD PTR tv185[rsp]
	xor	r8d, r8d
	mov	edx, DWORD PTR status$[rsp]
	mov	rax, QWORD PTR this$[rsp]
	mov	rcx, QWORD PTR [rax+16]
	call	??$checkVal@H@SDKCommon@streamsdk@@QEBAHHHV?$basic_string@DU?$char_traits@D@std@@V?$allocator@D@2@@std@@_N@Z ; streamsdk::SDKCommon::checkVal<int>
	test	eax, eax
	jne	SHORT $LN3@resetInput
; Line 840
	mov	eax, 1
	jmp	$LN4@resetInput
$LN3@resetInput:
; Line 844
	mov	rax, QWORD PTR this$[rsp]
	movsxd	rax, DWORD PTR [rax+416]
	shl	rax, 2
	mov	rcx, QWORD PTR this$[rsp]
	movsxd	rcx, DWORD PTR [rcx+420]
	imul	rax, rcx
	lea	rcx, QWORD PTR status$[rsp]
	mov	QWORD PTR [rsp+32], rcx
	mov	rcx, QWORD PTR this$[rsp]
	mov	r9, QWORD PTR [rcx+424]
	mov	r8, rax
	mov	edx, 12
	mov	rax, QWORD PTR this$[rsp]
	mov	rcx, QWORD PTR [rax+320]
	call	clCreateBuffer
	mov	rcx, QWORD PTR this$[rsp]
	mov	QWORD PTR [rcx+336], rax
; Line 845
	lea	rax, QWORD PTR $T102863[rsp]
	mov	QWORD PTR $T102864[rsp], rax
	lea	rdx, OFFSET FLAT:$SG96096
	mov	rcx, QWORD PTR $T102864[rsp]
	call	??0?$basic_string@DU?$char_traits@D@std@@V?$allocator@D@2@@std@@QEAA@PEBD@Z ; std::basic_string<char,std::char_traits<char>,std::allocator<char> >::basic_string<char,std::char_traits<char>,std::allocator<char> >
	mov	QWORD PTR tv187[rsp], rax
	mov	BYTE PTR [rsp+32], 1
	mov	r9, QWORD PTR tv187[rsp]
	xor	r8d, r8d
	mov	edx, DWORD PTR status$[rsp]
	mov	rax, QWORD PTR this$[rsp]
	mov	rcx, QWORD PTR [rax+16]
	call	??$checkVal@H@SDKCommon@streamsdk@@QEBAHHHV?$basic_string@DU?$char_traits@D@std@@V?$allocator@D@2@@std@@_N@Z ; streamsdk::SDKCommon::checkVal<int>
	test	eax, eax
	jne	SHORT $LN2@resetInput
; Line 846
	mov	eax, 1
	jmp	$LN4@resetInput
$LN2@resetInput:
; Line 848
	mov	rax, QWORD PTR this$[rsp]
	add	rax, 336				; 00000150H
	mov	r9, rax
	mov	r8d, 8
	mov	edx, 1
	mov	rax, QWORD PTR this$[rsp]
	mov	rcx, QWORD PTR [rax+376]
	call	clSetKernelArg
	mov	DWORD PTR status$[rsp], eax
; Line 849
	lea	rax, QWORD PTR $T102865[rsp]
	mov	QWORD PTR $T102866[rsp], rax
	lea	rdx, OFFSET FLAT:$SG96101
	mov	rcx, QWORD PTR $T102866[rsp]
	call	??0?$basic_string@DU?$char_traits@D@std@@V?$allocator@D@2@@std@@QEAA@PEBD@Z ; std::basic_string<char,std::char_traits<char>,std::allocator<char> >::basic_string<char,std::char_traits<char>,std::allocator<char> >
	mov	QWORD PTR tv189[rsp], rax
	mov	BYTE PTR [rsp+32], 1
	mov	r9, QWORD PTR tv189[rsp]
	xor	r8d, r8d
	mov	edx, DWORD PTR status$[rsp]
	mov	rax, QWORD PTR this$[rsp]
	mov	rcx, QWORD PTR [rax+16]
	call	??$checkVal@H@SDKCommon@streamsdk@@QEBAHHHV?$basic_string@DU?$char_traits@D@std@@V?$allocator@D@2@@std@@_N@Z ; streamsdk::SDKCommon::checkVal<int>
	test	eax, eax
	jne	SHORT $LN1@resetInput
; Line 850
	mov	eax, 1
	jmp	SHORT $LN4@resetInput
$LN1@resetInput:
; Line 852
	xor	eax, eax
$LN4@resetInput:
; Line 853
	mov	rdi, rax
	mov	rcx, rsp
	lea	rdx, OFFSET FLAT:?resetInput@SimpleConvolution@@QEAAHXZ$rtcFrameData
	call	_RTC_CheckStackVars
	mov	rax, rdi
	add	rsp, 272				; 00000110H
	pop	rdi
	ret	0
?resetInput@SimpleConvolution@@QEAAHXZ ENDP		; SimpleConvolution::resetInput
_TEXT	ENDS
PUBLIC	?resetInputOutput@SimpleConvolution@@QEAAHXZ	; SimpleConvolution::resetInputOutput
pdata	SEGMENT
$pdata$?resetInputOutput@SimpleConvolution@@QEAAHXZ DD imagerel $LN7
	DD	imagerel $LN7+397
	DD	imagerel $unwind$?resetInputOutput@SimpleConvolution@@QEAAHXZ
pdata	ENDS
xdata	SEGMENT
$unwind$?resetInputOutput@SimpleConvolution@@QEAAHXZ DD 032401H
	DD	01a010dH
	DD	07006H
xdata	ENDS
CONST	SEGMENT
?resetInputOutput@SimpleConvolution@@QEAAHXZ$rtcName$0 DB 073H ; SimpleConvolution::resetInputOutput
	DB	074H
	DB	061H
	DB	074H
	DB	075H
	DB	073H
	DB	00H
	ORG $+9
?resetInputOutput@SimpleConvolution@@QEAAHXZ$rtcVarDesc DD 034H ; SimpleConvolution::resetInputOutput
	DD	04H
	DQ	FLAT:?resetInputOutput@SimpleConvolution@@QEAAHXZ$rtcName$0
	ORG $+48
?resetInputOutput@SimpleConvolution@@QEAAHXZ$rtcFrameData DD 01H ; SimpleConvolution::resetInputOutput
	DD	00H
	DQ	FLAT:?resetInputOutput@SimpleConvolution@@QEAAHXZ$rtcVarDesc
; Function compile flags: /Odtp /RTCsu
CONST	ENDS
_TEXT	SEGMENT
status$ = 52
$T102880 = 72
$T102881 = 120
$T102882 = 128
$T102883 = 176
tv158 = 184
tv160 = 192
this$ = 224
?resetInputOutput@SimpleConvolution@@QEAAHXZ PROC	; SimpleConvolution::resetInputOutput
; Line 857
$LN7:
	mov	QWORD PTR [rsp+8], rcx
	push	rdi
	sub	rsp, 208				; 000000d0H
	mov	rdi, rsp
	mov	ecx, 52					; 00000034H
	mov	eax, -858993460				; ccccccccH
	rep stosd
	mov	rcx, QWORD PTR [rsp+224]
; Line 858
	mov	DWORD PTR status$[rsp], 0
; Line 860
	mov	rcx, QWORD PTR this$[rsp]
	call	?resetInput@SimpleConvolution@@QEAAHXZ	; SimpleConvolution::resetInput
; Line 862
	mov	rax, QWORD PTR this$[rsp]
	mov	rcx, QWORD PTR [rax+344]
	call	clReleaseMemObject
	mov	DWORD PTR status$[rsp], eax
; Line 867
	lea	rax, QWORD PTR $T102880[rsp]
	mov	QWORD PTR $T102881[rsp], rax
	lea	rdx, OFFSET FLAT:$SG96108
	mov	rcx, QWORD PTR $T102881[rsp]
	call	??0?$basic_string@DU?$char_traits@D@std@@V?$allocator@D@2@@std@@QEAA@PEBD@Z ; std::basic_string<char,std::char_traits<char>,std::allocator<char> >::basic_string<char,std::char_traits<char>,std::allocator<char> >
	mov	QWORD PTR tv158[rsp], rax
	mov	BYTE PTR [rsp+32], 1
	mov	r9, QWORD PTR tv158[rsp]
	xor	r8d, r8d
	mov	edx, DWORD PTR status$[rsp]
	mov	rax, QWORD PTR this$[rsp]
	mov	rcx, QWORD PTR [rax+16]
	call	??$checkVal@H@SDKCommon@streamsdk@@QEBAHHHV?$basic_string@DU?$char_traits@D@std@@V?$allocator@D@2@@std@@_N@Z ; streamsdk::SDKCommon::checkVal<int>
	test	eax, eax
	jne	SHORT $LN2@resetInput@2
; Line 868
	mov	eax, 1
	jmp	$LN3@resetInput@2
$LN2@resetInput@2:
; Line 875
	mov	rax, QWORD PTR this$[rsp]
	movsxd	rax, DWORD PTR [rax+416]
	shl	rax, 2
	mov	rcx, QWORD PTR this$[rsp]
	movsxd	rcx, DWORD PTR [rcx+420]
	imul	rax, rcx
	lea	rcx, QWORD PTR status$[rsp]
	mov	QWORD PTR [rsp+32], rcx
	mov	rcx, QWORD PTR this$[rsp]
	mov	r9, QWORD PTR [rcx+432]
	mov	r8, rax
	mov	edx, 10
	mov	rax, QWORD PTR this$[rsp]
	mov	rcx, QWORD PTR [rax+320]
	call	clCreateBuffer
	mov	rcx, QWORD PTR this$[rsp]
	mov	QWORD PTR [rcx+344], rax
; Line 879
	lea	rax, QWORD PTR $T102882[rsp]
	mov	QWORD PTR $T102883[rsp], rax
	lea	rdx, OFFSET FLAT:$SG96112
	mov	rcx, QWORD PTR $T102883[rsp]
	call	??0?$basic_string@DU?$char_traits@D@std@@V?$allocator@D@2@@std@@QEAA@PEBD@Z ; std::basic_string<char,std::char_traits<char>,std::allocator<char> >::basic_string<char,std::char_traits<char>,std::allocator<char> >
	mov	QWORD PTR tv160[rsp], rax
	mov	BYTE PTR [rsp+32], 1
	mov	r9, QWORD PTR tv160[rsp]
	xor	r8d, r8d
	mov	edx, DWORD PTR status$[rsp]
	mov	rax, QWORD PTR this$[rsp]
	mov	rcx, QWORD PTR [rax+16]
	call	??$checkVal@H@SDKCommon@streamsdk@@QEBAHHHV?$basic_string@DU?$char_traits@D@std@@V?$allocator@D@2@@std@@_N@Z ; streamsdk::SDKCommon::checkVal<int>
	test	eax, eax
	jne	SHORT $LN1@resetInput@2
; Line 880
	mov	eax, 1
	jmp	SHORT $LN3@resetInput@2
$LN1@resetInput@2:
; Line 882
	xor	eax, eax
$LN3@resetInput@2:
; Line 883
	mov	rdi, rax
	mov	rcx, rsp
	lea	rdx, OFFSET FLAT:?resetInputOutput@SimpleConvolution@@QEAAHXZ$rtcFrameData
	call	_RTC_CheckStackVars
	mov	rax, rdi
	add	rsp, 208				; 000000d0H
	pop	rdi
	ret	0
?resetInputOutput@SimpleConvolution@@QEAAHXZ ENDP	; SimpleConvolution::resetInputOutput
_TEXT	ENDS
PUBLIC	?runCLKernels@SimpleConvolution@@QEAAHXZ	; SimpleConvolution::runCLKernels
EXTRN	clReleaseEvent:PROC
EXTRN	clEnqueueReadBuffer:PROC
EXTRN	clWaitForEvents:PROC
EXTRN	clEnqueueNDRangeKernel:PROC
pdata	SEGMENT
$pdata$?runCLKernels@SimpleConvolution@@QEAAHXZ DD imagerel $LN11
	DD	imagerel $LN11+743
	DD	imagerel $unwind$?runCLKernels@SimpleConvolution@@QEAAHXZ
pdata	ENDS
xdata	SEGMENT
$unwind$?runCLKernels@SimpleConvolution@@QEAAHXZ DD 032401H
	DD	032010dH
	DD	07006H
xdata	ENDS
CONST	SEGMENT
?runCLKernels@SimpleConvolution@@QEAAHXZ$rtcName$0 DB 065H ; SimpleConvolution::runCLKernels
	DB	076H
	DB	065H
	DB	06eH
	DB	074H
	DB	073H
	DB	00H
	ORG $+9
?runCLKernels@SimpleConvolution@@QEAAHXZ$rtcVarDesc DD 068H ; SimpleConvolution::runCLKernels
	DD	010H
	DQ	FLAT:?runCLKernels@SimpleConvolution@@QEAAHXZ$rtcName$0
	ORG $+48
?runCLKernels@SimpleConvolution@@QEAAHXZ$rtcFrameData DD 01H ; SimpleConvolution::runCLKernels
	DD	00H
	DQ	FLAT:?runCLKernels@SimpleConvolution@@QEAAHXZ$rtcVarDesc
; Function compile flags: /Odtp /RTCsu
CONST	ENDS
_TEXT	SEGMENT
status$ = 80
events$ = 104
$T102895 = 136
$T102896 = 184
$T102897 = 192
$T102898 = 240
$T102899 = 248
$T102900 = 296
$T102901 = 304
$T102902 = 352
tv223 = 360
tv225 = 368
tv227 = 376
tv229 = 384
this$ = 416
?runCLKernels@SimpleConvolution@@QEAAHXZ PROC		; SimpleConvolution::runCLKernels
; Line 886
$LN11:
	mov	QWORD PTR [rsp+8], rcx
	push	rdi
	sub	rsp, 400				; 00000190H
	mov	rdi, rsp
	mov	ecx, 100				; 00000064H
	mov	eax, -858993460				; ccccccccH
	rep stosd
	mov	rcx, QWORD PTR [rsp+416]
; Line 902
	mov	rax, QWORD PTR this$[rsp]
	add	rax, 408				; 00000198H
	mov	rcx, QWORD PTR this$[rsp]
	add	rcx, 400				; 00000190H
	lea	rdx, QWORD PTR events$[rsp]
	mov	QWORD PTR [rsp+64], rdx
	mov	QWORD PTR [rsp+56], 0
	mov	DWORD PTR [rsp+48], 0
	mov	QWORD PTR [rsp+40], rax
	mov	QWORD PTR [rsp+32], rcx
	xor	r9d, r9d
	mov	r8d, 1
	mov	rax, QWORD PTR this$[rsp]
	mov	rdx, QWORD PTR [rax+376]
	mov	rax, QWORD PTR this$[rsp]
	mov	rcx, QWORD PTR [rax+360]
	call	clEnqueueNDRangeKernel
	mov	DWORD PTR status$[rsp], eax
; Line 907
	lea	rax, QWORD PTR $T102895[rsp]
	mov	QWORD PTR $T102896[rsp], rax
	lea	rdx, OFFSET FLAT:$SG96121
	mov	rcx, QWORD PTR $T102896[rsp]
	call	??0?$basic_string@DU?$char_traits@D@std@@V?$allocator@D@2@@std@@QEAA@PEBD@Z ; std::basic_string<char,std::char_traits<char>,std::allocator<char> >::basic_string<char,std::char_traits<char>,std::allocator<char> >
	mov	QWORD PTR tv223[rsp], rax
	mov	BYTE PTR [rsp+32], 1
	mov	r9, QWORD PTR tv223[rsp]
	xor	r8d, r8d
	mov	edx, DWORD PTR status$[rsp]
	mov	rax, QWORD PTR this$[rsp]
	mov	rcx, QWORD PTR [rax+16]
	call	??$checkVal@H@SDKCommon@streamsdk@@QEBAHHHV?$basic_string@DU?$char_traits@D@std@@V?$allocator@D@2@@std@@_N@Z ; streamsdk::SDKCommon::checkVal<int>
	test	eax, eax
	jne	SHORT $LN4@runCLKerne
; Line 908
	mov	eax, 1
	jmp	$LN5@runCLKerne
$LN4@runCLKerne:
; Line 912
	lea	rdx, QWORD PTR events$[rsp]
	mov	ecx, 1
	call	clWaitForEvents
	mov	DWORD PTR status$[rsp], eax
; Line 916
	lea	rax, QWORD PTR $T102897[rsp]
	mov	QWORD PTR $T102898[rsp], rax
	lea	rdx, OFFSET FLAT:$SG96124
	mov	rcx, QWORD PTR $T102898[rsp]
	call	??0?$basic_string@DU?$char_traits@D@std@@V?$allocator@D@2@@std@@QEAA@PEBD@Z ; std::basic_string<char,std::char_traits<char>,std::allocator<char> >::basic_string<char,std::char_traits<char>,std::allocator<char> >
	mov	QWORD PTR tv225[rsp], rax
	mov	BYTE PTR [rsp+32], 1
	mov	r9, QWORD PTR tv225[rsp]
	xor	r8d, r8d
	mov	edx, DWORD PTR status$[rsp]
	mov	rax, QWORD PTR this$[rsp]
	mov	rcx, QWORD PTR [rax+16]
	call	??$checkVal@H@SDKCommon@streamsdk@@QEBAHHHV?$basic_string@DU?$char_traits@D@std@@V?$allocator@D@2@@std@@_N@Z ; streamsdk::SDKCommon::checkVal<int>
	test	eax, eax
	jne	SHORT $LN3@runCLKerne
; Line 917
	mov	eax, 1
	jmp	$LN5@runCLKerne
$LN3@runCLKerne:
; Line 929
	lea	rax, QWORD PTR events$[rsp+8]
	mov	rcx, QWORD PTR this$[rsp]
	mov	rdx, QWORD PTR this$[rsp]
	mov	ecx, DWORD PTR [rcx+416]
	imul	ecx, DWORD PTR [rdx+420]
	movsxd	rcx, ecx
	shl	rcx, 2
	mov	QWORD PTR [rsp+64], rax
	mov	QWORD PTR [rsp+56], 0
	mov	DWORD PTR [rsp+48], 0
	mov	rax, QWORD PTR this$[rsp]
	mov	rax, QWORD PTR [rax+432]
	mov	QWORD PTR [rsp+40], rax
	mov	QWORD PTR [rsp+32], rcx
	xor	r9d, r9d
	mov	r8d, 1
	mov	rax, QWORD PTR this$[rsp]
	mov	rdx, QWORD PTR [rax+344]
	mov	rax, QWORD PTR this$[rsp]
	mov	rcx, QWORD PTR [rax+360]
	call	clEnqueueReadBuffer
	mov	DWORD PTR status$[rsp], eax
; Line 933
	lea	rax, QWORD PTR $T102899[rsp]
	mov	QWORD PTR $T102900[rsp], rax
	lea	rdx, OFFSET FLAT:$SG96128
	mov	rcx, QWORD PTR $T102900[rsp]
	call	??0?$basic_string@DU?$char_traits@D@std@@V?$allocator@D@2@@std@@QEAA@PEBD@Z ; std::basic_string<char,std::char_traits<char>,std::allocator<char> >::basic_string<char,std::char_traits<char>,std::allocator<char> >
	mov	QWORD PTR tv227[rsp], rax
	mov	BYTE PTR [rsp+32], 1
	mov	r9, QWORD PTR tv227[rsp]
	xor	r8d, r8d
	mov	edx, DWORD PTR status$[rsp]
	mov	rax, QWORD PTR this$[rsp]
	mov	rcx, QWORD PTR [rax+16]
	call	??$checkVal@H@SDKCommon@streamsdk@@QEBAHHHV?$basic_string@DU?$char_traits@D@std@@V?$allocator@D@2@@std@@_N@Z ; streamsdk::SDKCommon::checkVal<int>
	test	eax, eax
	jne	SHORT $LN2@runCLKerne
; Line 934
	mov	eax, 1
	jmp	SHORT $LN5@runCLKerne
$LN2@runCLKerne:
; Line 937
	lea	rax, QWORD PTR events$[rsp+8]
	mov	rdx, rax
	mov	ecx, 1
	call	clWaitForEvents
	mov	DWORD PTR status$[rsp], eax
; Line 941
	lea	rax, QWORD PTR $T102901[rsp]
	mov	QWORD PTR $T102902[rsp], rax
	lea	rdx, OFFSET FLAT:$SG96131
	mov	rcx, QWORD PTR $T102902[rsp]
	call	??0?$basic_string@DU?$char_traits@D@std@@V?$allocator@D@2@@std@@QEAA@PEBD@Z ; std::basic_string<char,std::char_traits<char>,std::allocator<char> >::basic_string<char,std::char_traits<char>,std::allocator<char> >
	mov	QWORD PTR tv229[rsp], rax
	mov	BYTE PTR [rsp+32], 1
	mov	r9, QWORD PTR tv229[rsp]
	xor	r8d, r8d
	mov	edx, DWORD PTR status$[rsp]
	mov	rax, QWORD PTR this$[rsp]
	mov	rcx, QWORD PTR [rax+16]
	call	??$checkVal@H@SDKCommon@streamsdk@@QEBAHHHV?$basic_string@DU?$char_traits@D@std@@V?$allocator@D@2@@std@@_N@Z ; streamsdk::SDKCommon::checkVal<int>
	test	eax, eax
	jne	SHORT $LN1@runCLKerne
; Line 942
	mov	eax, 1
	jmp	SHORT $LN5@runCLKerne
$LN1@runCLKerne:
; Line 944
	mov	rcx, QWORD PTR events$[rsp+8]
	call	clReleaseEvent
; Line 945
	xor	eax, eax
$LN5@runCLKerne:
; Line 946
	mov	rdi, rax
	mov	rcx, rsp
	lea	rdx, OFFSET FLAT:?runCLKernels@SimpleConvolution@@QEAAHXZ$rtcFrameData
	call	_RTC_CheckStackVars
	mov	rax, rdi
	add	rsp, 400				; 00000190H
	pop	rdi
	ret	0
?runCLKernels@SimpleConvolution@@QEAAHXZ ENDP		; SimpleConvolution::runCLKernels
_TEXT	ENDS
PUBLIC	__real@3f000000
PUBLIC	?simpleConvolutionCPUReference@SimpleConvolution@@QEAAXPEAIPEBIPEBMIIII@Z ; SimpleConvolution::simpleConvolutionCPUReference
EXTRN	_fltused:DWORD
pdata	SEGMENT
$pdata$?simpleConvolutionCPUReference@SimpleConvolution@@QEAAXPEAIPEBIPEBMIIII@Z DD imagerel $LN23
	DD	imagerel $LN23+649
	DD	imagerel $unwind$?simpleConvolutionCPUReference@SimpleConvolution@@QEAAXPEAIPEBIPEBMIIII@Z
pdata	ENDS
xdata	SEGMENT
$unwind$?simpleConvolutionCPUReference@SimpleConvolution@@QEAAXPEAIPEBIPEBMIIII@Z DD 022d01H
	DD	070159219H
xdata	ENDS
;	COMDAT __real@3f000000
CONST	SEGMENT
__real@3f000000 DD 03f000000r			; 0.5
; Function compile flags: /Odtp /RTCsu
CONST	ENDS
_TEXT	SEGMENT
vstep$ = 0
hstep$ = 4
x$96144 = 8
y$96148 = 12
left$96152 = 16
right$96153 = 20
top$96154 = 24
bottom$96155 = 28
sumFX$96156 = 32
i$96157 = 36
j$96161 = 40
maskIndex$96165 = 44
index$96166 = 48
tv74 = 52
tv79 = 56
tv82 = 60
tv87 = 64
this$ = 96
output$ = 104
input$ = 112
mask$ = 120
width$ = 128
height$ = 136
maskWidth$ = 144
maskHeight$ = 152
?simpleConvolutionCPUReference@SimpleConvolution@@QEAAXPEAIPEBIPEBMIIII@Z PROC ; SimpleConvolution::simpleConvolutionCPUReference
; Line 960
$LN23:
	mov	QWORD PTR [rsp+32], r9
	mov	QWORD PTR [rsp+24], r8
	mov	QWORD PTR [rsp+16], rdx
	mov	QWORD PTR [rsp+8], rcx
	push	rdi
	sub	rsp, 80					; 00000050H
	mov	rdi, rsp
	mov	ecx, 20
	mov	eax, -858993460				; ccccccccH
	rep stosd
	mov	rcx, QWORD PTR [rsp+96]
; Line 961
	mov	eax, DWORD PTR maskWidth$[rsp]
	dec	eax
	xor	edx, edx
	mov	ecx, 2
	div	ecx
	mov	DWORD PTR vstep$[rsp], eax
; Line 962
	mov	eax, DWORD PTR maskHeight$[rsp]
	dec	eax
	xor	edx, edx
	mov	ecx, 2
	div	ecx
	mov	DWORD PTR hstep$[rsp], eax
; Line 967
	mov	DWORD PTR x$96144[rsp], 0
	jmp	SHORT $LN12@simpleConv
$LN11@simpleConv:
	mov	eax, DWORD PTR x$96144[rsp]
	inc	eax
	mov	DWORD PTR x$96144[rsp], eax
$LN12@simpleConv:
	mov	eax, DWORD PTR width$[rsp]
	cmp	DWORD PTR x$96144[rsp], eax
	jae	$LN10@simpleConv
; Line 968
	mov	DWORD PTR y$96148[rsp], 0
	jmp	SHORT $LN9@simpleConv
$LN8@simpleConv:
	mov	eax, DWORD PTR y$96148[rsp]
	inc	eax
	mov	DWORD PTR y$96148[rsp], eax
$LN9@simpleConv:
	mov	eax, DWORD PTR height$[rsp]
	cmp	DWORD PTR y$96148[rsp], eax
	jae	$LN7@simpleConv
; Line 974
	mov	eax, DWORD PTR vstep$[rsp]
	cmp	DWORD PTR x$96144[rsp], eax
	jae	SHORT $LN15@simpleConv
	mov	DWORD PTR tv74[rsp], 0
	jmp	SHORT $LN16@simpleConv
$LN15@simpleConv:
	mov	eax, DWORD PTR vstep$[rsp]
	mov	ecx, DWORD PTR x$96144[rsp]
	sub	ecx, eax
	mov	eax, ecx
	mov	DWORD PTR tv74[rsp], eax
$LN16@simpleConv:
	mov	eax, DWORD PTR tv74[rsp]
	mov	DWORD PTR left$96152[rsp], eax
; Line 975
	mov	eax, DWORD PTR vstep$[rsp]
	mov	ecx, DWORD PTR x$96144[rsp]
	add	ecx, eax
	mov	eax, ecx
	cmp	eax, DWORD PTR width$[rsp]
	jb	SHORT $LN17@simpleConv
	mov	eax, DWORD PTR width$[rsp]
	dec	eax
	mov	DWORD PTR tv79[rsp], eax
	jmp	SHORT $LN18@simpleConv
$LN17@simpleConv:
	mov	eax, DWORD PTR vstep$[rsp]
	mov	ecx, DWORD PTR x$96144[rsp]
	add	ecx, eax
	mov	eax, ecx
	mov	DWORD PTR tv79[rsp], eax
$LN18@simpleConv:
	mov	eax, DWORD PTR tv79[rsp]
	mov	DWORD PTR right$96153[rsp], eax
; Line 976
	mov	eax, DWORD PTR hstep$[rsp]
	cmp	DWORD PTR y$96148[rsp], eax
	jae	SHORT $LN19@simpleConv
	mov	DWORD PTR tv82[rsp], 0
	jmp	SHORT $LN20@simpleConv
$LN19@simpleConv:
	mov	eax, DWORD PTR hstep$[rsp]
	mov	ecx, DWORD PTR y$96148[rsp]
	sub	ecx, eax
	mov	eax, ecx
	mov	DWORD PTR tv82[rsp], eax
$LN20@simpleConv:
	mov	eax, DWORD PTR tv82[rsp]
	mov	DWORD PTR top$96154[rsp], eax
; Line 977
	mov	eax, DWORD PTR hstep$[rsp]
	mov	ecx, DWORD PTR y$96148[rsp]
	add	ecx, eax
	mov	eax, ecx
	cmp	eax, DWORD PTR height$[rsp]
	jb	SHORT $LN21@simpleConv
	mov	eax, DWORD PTR height$[rsp]
	dec	eax
	mov	DWORD PTR tv87[rsp], eax
	jmp	SHORT $LN22@simpleConv
$LN21@simpleConv:
	mov	eax, DWORD PTR hstep$[rsp]
	mov	ecx, DWORD PTR y$96148[rsp]
	add	ecx, eax
	mov	eax, ecx
	mov	DWORD PTR tv87[rsp], eax
$LN22@simpleConv:
	mov	eax, DWORD PTR tv87[rsp]
	mov	DWORD PTR bottom$96155[rsp], eax
; Line 982
	xorps	xmm0, xmm0
	movss	DWORD PTR sumFX$96156[rsp], xmm0
; Line 984
	mov	eax, DWORD PTR left$96152[rsp]
	mov	DWORD PTR i$96157[rsp], eax
	jmp	SHORT $LN6@simpleConv
$LN5@simpleConv:
	mov	eax, DWORD PTR i$96157[rsp]
	inc	eax
	mov	DWORD PTR i$96157[rsp], eax
$LN6@simpleConv:
	mov	eax, DWORD PTR right$96153[rsp]
	cmp	DWORD PTR i$96157[rsp], eax
	ja	$LN4@simpleConv
; Line 985
	mov	eax, DWORD PTR top$96154[rsp]
	mov	DWORD PTR j$96161[rsp], eax
	jmp	SHORT $LN3@simpleConv
$LN2@simpleConv:
	mov	eax, DWORD PTR j$96161[rsp]
	inc	eax
	mov	DWORD PTR j$96161[rsp], eax
$LN3@simpleConv:
	mov	eax, DWORD PTR bottom$96155[rsp]
	cmp	DWORD PTR j$96161[rsp], eax
	ja	$LN1@simpleConv
; Line 990
	mov	eax, DWORD PTR hstep$[rsp]
	mov	ecx, DWORD PTR y$96148[rsp]
	sub	ecx, eax
	mov	eax, ecx
	mov	ecx, DWORD PTR j$96161[rsp]
	sub	ecx, eax
	mov	eax, ecx
	imul	eax, DWORD PTR maskWidth$[rsp]
	mov	ecx, DWORD PTR vstep$[rsp]
	mov	edx, DWORD PTR x$96144[rsp]
	sub	edx, ecx
	mov	ecx, edx
	mov	edx, DWORD PTR i$96157[rsp]
	sub	edx, ecx
	mov	ecx, edx
	add	eax, ecx
	mov	DWORD PTR maskIndex$96165[rsp], eax
; Line 991
	mov	eax, DWORD PTR j$96161[rsp]
	imul	eax, DWORD PTR width$[rsp]
	add	eax, DWORD PTR i$96157[rsp]
	mov	DWORD PTR index$96166[rsp], eax
; Line 996
	mov	eax, DWORD PTR index$96166[rsp]
	mov	rcx, QWORD PTR input$[rsp]
	mov	eax, DWORD PTR [rcx+rax*4]
	pxor	xmm0, xmm0
	cvtsi2ss xmm0, rax
	mov	eax, DWORD PTR maskIndex$96165[rsp]
	mov	rcx, QWORD PTR mask$[rsp]
	mulss	xmm0, DWORD PTR [rcx+rax*4]
	movss	xmm1, DWORD PTR sumFX$96156[rsp]
	addss	xmm1, xmm0
	movaps	xmm0, xmm1
	movss	DWORD PTR sumFX$96156[rsp], xmm0
; Line 997
	jmp	$LN2@simpleConv
$LN1@simpleConv:
	jmp	$LN5@simpleConv
$LN4@simpleConv:
; Line 998
	movss	xmm0, DWORD PTR sumFX$96156[rsp]
	addss	xmm0, DWORD PTR __real@3f000000
	movss	DWORD PTR sumFX$96156[rsp], xmm0
; Line 999
	cvttss2si rax, DWORD PTR sumFX$96156[rsp]
	mov	ecx, DWORD PTR y$96148[rsp]
	imul	ecx, DWORD PTR width$[rsp]
	add	ecx, DWORD PTR x$96144[rsp]
	mov	ecx, ecx
	mov	rdx, QWORD PTR output$[rsp]
	mov	DWORD PTR [rdx+rcx*4], eax
; Line 1000
	jmp	$LN8@simpleConv
$LN7@simpleConv:
	jmp	$LN11@simpleConv
$LN10@simpleConv:
; Line 1001
	add	rsp, 80					; 00000050H
	pop	rdi
	ret	0
?simpleConvolutionCPUReference@SimpleConvolution@@QEAAXPEAIPEBIPEBMIIII@Z ENDP ; SimpleConvolution::simpleConvolutionCPUReference
_TEXT	ENDS
PUBLIC	??_GOption@streamsdk@@QEAAPEAXI@Z		; streamsdk::Option::`scalar deleting destructor'
PUBLIC	??4?$basic_string@DU?$char_traits@D@std@@V?$allocator@D@2@@std@@QEAAAEAV01@PEBD@Z ; std::basic_string<char,std::char_traits<char>,std::allocator<char> >::operator=
PUBLIC	??0Option@streamsdk@@QEAA@XZ			; streamsdk::Option::Option
PUBLIC	?initialize@SimpleConvolution@@UEAAHXZ		; SimpleConvolution::initialize
EXTRN	__CxxFrameHandler3:PROC
EXTRN	??3@YAXPEAX@Z:PROC				; operator delete
EXTRN	?AddOption@SDKCommandArgs@streamsdk@@QEAAHPEAUOption@2@@Z:PROC ; streamsdk::SDKCommandArgs::AddOption
EXTRN	??2@YAPEAX_K@Z:PROC				; operator new
EXTRN	?initialize@SDKSample@@MEAAHXZ:PROC		; SDKSample::initialize
pdata	SEGMENT
$pdata$?initialize@SimpleConvolution@@UEAAHXZ DD imagerel $LN28
	DD	imagerel $LN28+1416
	DD	imagerel $unwind$?initialize@SimpleConvolution@@UEAAHXZ
pdata	ENDS
pdata	SEGMENT
$pdata$?dtor$0@?0??initialize@SimpleConvolution@@UEAAHXZ@4HA DD imagerel ?dtor$0@?0??initialize@SimpleConvolution@@UEAAHXZ@4HA
	DD	imagerel ?dtor$0@?0??initialize@SimpleConvolution@@UEAAHXZ@4HA+35
	DD	imagerel $unwind$?dtor$0@?0??initialize@SimpleConvolution@@UEAAHXZ@4HA
$pdata$?dtor$1@?0??initialize@SimpleConvolution@@UEAAHXZ@4HA DD imagerel ?dtor$1@?0??initialize@SimpleConvolution@@UEAAHXZ@4HA
	DD	imagerel ?dtor$1@?0??initialize@SimpleConvolution@@UEAAHXZ@4HA+35
	DD	imagerel $unwind$?dtor$1@?0??initialize@SimpleConvolution@@UEAAHXZ@4HA
$pdata$?dtor$2@?0??initialize@SimpleConvolution@@UEAAHXZ@4HA DD imagerel ?dtor$2@?0??initialize@SimpleConvolution@@UEAAHXZ@4HA
	DD	imagerel ?dtor$2@?0??initialize@SimpleConvolution@@UEAAHXZ@4HA+38
	DD	imagerel $unwind$?dtor$2@?0??initialize@SimpleConvolution@@UEAAHXZ@4HA
$pdata$?dtor$3@?0??initialize@SimpleConvolution@@UEAAHXZ@4HA DD imagerel ?dtor$3@?0??initialize@SimpleConvolution@@UEAAHXZ@4HA
	DD	imagerel ?dtor$3@?0??initialize@SimpleConvolution@@UEAAHXZ@4HA+38
	DD	imagerel $unwind$?dtor$3@?0??initialize@SimpleConvolution@@UEAAHXZ@4HA
pdata	ENDS
CONST	SEGMENT
$cppxdata$?initialize@SimpleConvolution@@UEAAHXZ DD 019930522H
	DD	04H
	DD	imagerel $stateUnwindMap$?initialize@SimpleConvolution@@UEAAHXZ
	DD	00H
	DD	00H
	DD	09H
	DD	imagerel $ip2state$?initialize@SimpleConvolution@@UEAAHXZ
	DD	0c0H
	DD	00H
	DD	01H
CONST	ENDS
xdata	SEGMENT
$stateUnwindMap$?initialize@SimpleConvolution@@UEAAHXZ DD 0ffffffffH
	DD	imagerel ?dtor$0@?0??initialize@SimpleConvolution@@UEAAHXZ@4HA
	DD	0ffffffffH
	DD	imagerel ?dtor$1@?0??initialize@SimpleConvolution@@UEAAHXZ@4HA
	DD	0ffffffffH
	DD	imagerel ?dtor$2@?0??initialize@SimpleConvolution@@UEAAHXZ@4HA
	DD	0ffffffffH
	DD	imagerel ?dtor$3@?0??initialize@SimpleConvolution@@UEAAHXZ@4HA
$unwind$?initialize@SimpleConvolution@@UEAAHXZ DD 033011H
	DD	022010dH
	DD	07006H
	DD	imagerel __CxxFrameHandler3
	DD	imagerel $cppxdata$?initialize@SimpleConvolution@@UEAAHXZ
$unwind$?dtor$0@?0??initialize@SimpleConvolution@@UEAAHXZ@4HA DD 031001H
	DD	0700c4210H
	DD	0500bH
$unwind$?dtor$1@?0??initialize@SimpleConvolution@@UEAAHXZ@4HA DD 031001H
	DD	0700c4210H
	DD	0500bH
$unwind$?dtor$2@?0??initialize@SimpleConvolution@@UEAAHXZ@4HA DD 031001H
	DD	0700c4210H
	DD	0500bH
$unwind$?dtor$3@?0??initialize@SimpleConvolution@@UEAAHXZ@4HA DD 031001H
	DD	0700c4210H
	DD	0500bH
$ip2state$?initialize@SimpleConvolution@@UEAAHXZ DD imagerel ?initialize@SimpleConvolution@@UEAAHXZ
	DD	0ffffffffH
	DD	imagerel ?initialize@SimpleConvolution@@UEAAHXZ+90
	DD	00H
	DD	imagerel ?initialize@SimpleConvolution@@UEAAHXZ+143
	DD	0ffffffffH
	DD	imagerel ?initialize@SimpleConvolution@@UEAAHXZ+403
	DD	01H
	DD	imagerel ?initialize@SimpleConvolution@@UEAAHXZ+456
	DD	0ffffffffH
	DD	imagerel ?initialize@SimpleConvolution@@UEAAHXZ+719
	DD	02H
	DD	imagerel ?initialize@SimpleConvolution@@UEAAHXZ+781
	DD	0ffffffffH
	DD	imagerel ?initialize@SimpleConvolution@@UEAAHXZ+1080
	DD	03H
	DD	imagerel ?initialize@SimpleConvolution@@UEAAHXZ+1142
	DD	0ffffffffH
; Function compile flags: /Odtp /RTCsu
xdata	ENDS
_TEXT	SEGMENT
width_option$ = 32
height_option$ = 40
mask_width$ = 48
num_iterations$ = 56
$T102935 = 64
$T102936 = 72
$T102939 = 80
$T102940 = 88
$T102943 = 96
$T102944 = 104
$T102947 = 112
$T102948 = 120
$T102951 = 128
$T102952 = 136
$T102955 = 144
$T102956 = 152
$T102959 = 160
$T102960 = 168
$T102963 = 176
$T102964 = 184
$T102976 = 192
tv78 = 200
tv140 = 208
tv148 = 216
tv178 = 224
tv186 = 232
tv217 = 240
tv225 = 248
tv255 = 256
this$ = 288
?initialize@SimpleConvolution@@UEAAHXZ PROC		; SimpleConvolution::initialize
; Line 1004
$LN28:
	mov	QWORD PTR [rsp+8], rcx
	push	rdi
	sub	rsp, 272				; 00000110H
	mov	rdi, rsp
	mov	ecx, 68					; 00000044H
	mov	eax, -858993460				; ccccccccH
	rep stosd
	mov	rcx, QWORD PTR [rsp+288]
	mov	QWORD PTR $T102976[rsp], -2
; Line 1006
	mov	rcx, QWORD PTR this$[rsp]
	call	?initialize@SDKSample@@MEAAHXZ		; SDKSample::initialize
	test	eax, eax
	jne	SHORT $LN5@initialize
; Line 1007
	mov	eax, 1
	jmp	$LN6@initialize
$LN5@initialize:
; Line 1010
	mov	ecx, 160				; 000000a0H
	call	??2@YAPEAX_K@Z				; operator new
	mov	QWORD PTR $T102936[rsp], rax
	cmp	QWORD PTR $T102936[rsp], 0
	je	SHORT $LN8@initialize
	mov	rcx, QWORD PTR $T102936[rsp]
	call	??0Option@streamsdk@@QEAA@XZ
	mov	QWORD PTR tv78[rsp], rax
	jmp	SHORT $LN9@initialize
$LN8@initialize:
	mov	QWORD PTR tv78[rsp], 0
$LN9@initialize:
	mov	rax, QWORD PTR tv78[rsp]
	mov	QWORD PTR $T102935[rsp], rax
	mov	rax, QWORD PTR $T102935[rsp]
	mov	QWORD PTR width_option$[rsp], rax
; Line 1011
	cmp	QWORD PTR width_option$[rsp], 0
	jne	SHORT $LN4@initialize
; Line 1013
	lea	rdx, OFFSET FLAT:$SG96178
	mov	rax, QWORD PTR this$[rsp]
	mov	rcx, QWORD PTR [rax+16]
	call	?error@SDKCommon@streamsdk@@QEBAXPEBD@Z	; streamsdk::SDKCommon::error
; Line 1014
	mov	eax, 1
	jmp	$LN6@initialize
$LN4@initialize:
; Line 1017
	lea	rdx, OFFSET FLAT:$SG96179
	mov	rcx, QWORD PTR width_option$[rsp]
	call	??4?$basic_string@DU?$char_traits@D@std@@V?$allocator@D@2@@std@@QEAAAEAV01@PEBD@Z ; std::basic_string<char,std::char_traits<char>,std::allocator<char> >::operator=
; Line 1018
	mov	rax, QWORD PTR width_option$[rsp]
	add	rax, 48					; 00000030H
	lea	rdx, OFFSET FLAT:$SG96180
	mov	rcx, rax
	call	??4?$basic_string@DU?$char_traits@D@std@@V?$allocator@D@2@@std@@QEAAAEAV01@PEBD@Z ; std::basic_string<char,std::char_traits<char>,std::allocator<char> >::operator=
; Line 1019
	mov	rax, QWORD PTR width_option$[rsp]
	add	rax, 96					; 00000060H
	lea	rdx, OFFSET FLAT:$SG96181
	mov	rcx, rax
	call	??4?$basic_string@DU?$char_traits@D@std@@V?$allocator@D@2@@std@@QEAAAEAV01@PEBD@Z ; std::basic_string<char,std::char_traits<char>,std::allocator<char> >::operator=
; Line 1020
	mov	rax, QWORD PTR width_option$[rsp]
	mov	DWORD PTR [rax+144], 0
; Line 1021
	mov	rax, QWORD PTR this$[rsp]
	add	rax, 416				; 000001a0H
	mov	rcx, QWORD PTR width_option$[rsp]
	mov	QWORD PTR [rcx+152], rax
; Line 1023
	mov	rdx, QWORD PTR width_option$[rsp]
	mov	rax, QWORD PTR this$[rsp]
	mov	rcx, QWORD PTR [rax+8]
	call	?AddOption@SDKCommandArgs@streamsdk@@QEAAHPEAUOption@2@@Z ; streamsdk::SDKCommandArgs::AddOption
; Line 1024
	mov	rax, QWORD PTR width_option$[rsp]
	mov	QWORD PTR $T102940[rsp], rax
	mov	rax, QWORD PTR $T102940[rsp]
	mov	QWORD PTR $T102939[rsp], rax
	cmp	QWORD PTR $T102939[rsp], 0
	je	SHORT $LN10@initialize
	mov	edx, 1
	mov	rcx, QWORD PTR $T102939[rsp]
	call	??_GOption@streamsdk@@QEAAPEAXI@Z
	mov	QWORD PTR tv140[rsp], rax
	jmp	SHORT $LN11@initialize
$LN10@initialize:
	mov	QWORD PTR tv140[rsp], 0
$LN11@initialize:
; Line 1026
	mov	ecx, 160				; 000000a0H
	call	??2@YAPEAX_K@Z				; operator new
	mov	QWORD PTR $T102944[rsp], rax
	cmp	QWORD PTR $T102944[rsp], 0
	je	SHORT $LN12@initialize
	mov	rcx, QWORD PTR $T102944[rsp]
	call	??0Option@streamsdk@@QEAA@XZ
	mov	QWORD PTR tv148[rsp], rax
	jmp	SHORT $LN13@initialize
$LN12@initialize:
	mov	QWORD PTR tv148[rsp], 0
$LN13@initialize:
	mov	rax, QWORD PTR tv148[rsp]
	mov	QWORD PTR $T102943[rsp], rax
	mov	rax, QWORD PTR $T102943[rsp]
	mov	QWORD PTR height_option$[rsp], rax
; Line 1027
	cmp	QWORD PTR height_option$[rsp], 0
	jne	SHORT $LN3@initialize
; Line 1029
	lea	rdx, OFFSET FLAT:$SG96190
	mov	rax, QWORD PTR this$[rsp]
	mov	rcx, QWORD PTR [rax+16]
	call	?error@SDKCommon@streamsdk@@QEBAXPEBD@Z	; streamsdk::SDKCommon::error
; Line 1030
	mov	eax, 1
	jmp	$LN6@initialize
$LN3@initialize:
; Line 1033
	lea	rdx, OFFSET FLAT:$SG96191
	mov	rcx, QWORD PTR height_option$[rsp]
	call	??4?$basic_string@DU?$char_traits@D@std@@V?$allocator@D@2@@std@@QEAAAEAV01@PEBD@Z ; std::basic_string<char,std::char_traits<char>,std::allocator<char> >::operator=
; Line 1034
	mov	rax, QWORD PTR height_option$[rsp]
	add	rax, 48					; 00000030H
	lea	rdx, OFFSET FLAT:$SG96192
	mov	rcx, rax
	call	??4?$basic_string@DU?$char_traits@D@std@@V?$allocator@D@2@@std@@QEAAAEAV01@PEBD@Z ; std::basic_string<char,std::char_traits<char>,std::allocator<char> >::operator=
; Line 1035
	mov	rax, QWORD PTR height_option$[rsp]
	add	rax, 96					; 00000060H
	lea	rdx, OFFSET FLAT:$SG96193
	mov	rcx, rax
	call	??4?$basic_string@DU?$char_traits@D@std@@V?$allocator@D@2@@std@@QEAAAEAV01@PEBD@Z ; std::basic_string<char,std::char_traits<char>,std::allocator<char> >::operator=
; Line 1036
	mov	rax, QWORD PTR height_option$[rsp]
	mov	DWORD PTR [rax+144], 0
; Line 1037
	mov	rax, QWORD PTR this$[rsp]
	add	rax, 420				; 000001a4H
	mov	rcx, QWORD PTR height_option$[rsp]
	mov	QWORD PTR [rcx+152], rax
; Line 1039
	mov	rdx, QWORD PTR height_option$[rsp]
	mov	rax, QWORD PTR this$[rsp]
	mov	rcx, QWORD PTR [rax+8]
	call	?AddOption@SDKCommandArgs@streamsdk@@QEAAHPEAUOption@2@@Z ; streamsdk::SDKCommandArgs::AddOption
; Line 1040
	mov	rax, QWORD PTR height_option$[rsp]
	mov	QWORD PTR $T102948[rsp], rax
	mov	rax, QWORD PTR $T102948[rsp]
	mov	QWORD PTR $T102947[rsp], rax
	cmp	QWORD PTR $T102947[rsp], 0
	je	SHORT $LN14@initialize
	mov	edx, 1
	mov	rcx, QWORD PTR $T102947[rsp]
	call	??_GOption@streamsdk@@QEAAPEAXI@Z
	mov	QWORD PTR tv178[rsp], rax
	jmp	SHORT $LN15@initialize
$LN14@initialize:
	mov	QWORD PTR tv178[rsp], 0
$LN15@initialize:
; Line 1042
	mov	ecx, 160				; 000000a0H
	call	??2@YAPEAX_K@Z				; operator new
	mov	QWORD PTR $T102952[rsp], rax
	cmp	QWORD PTR $T102952[rsp], 0
	je	SHORT $LN16@initialize
	mov	rcx, QWORD PTR $T102952[rsp]
	call	??0Option@streamsdk@@QEAA@XZ
	mov	QWORD PTR tv186[rsp], rax
	jmp	SHORT $LN17@initialize
$LN16@initialize:
	mov	QWORD PTR tv186[rsp], 0
$LN17@initialize:
	mov	rax, QWORD PTR tv186[rsp]
	mov	QWORD PTR $T102951[rsp], rax
	mov	rax, QWORD PTR $T102951[rsp]
	mov	QWORD PTR mask_width$[rsp], rax
; Line 1043
	cmp	QWORD PTR mask_width$[rsp], 0
	jne	SHORT $LN2@initialize
; Line 1045
	lea	rdx, OFFSET FLAT:$SG96202
	mov	rax, QWORD PTR this$[rsp]
	mov	rcx, QWORD PTR [rax+16]
	call	?error@SDKCommon@streamsdk@@QEBAXPEBD@Z	; streamsdk::SDKCommon::error
; Line 1046
	mov	eax, 1
	jmp	$LN6@initialize
$LN2@initialize:
; Line 1048
	mov	rax, QWORD PTR this$[rsp]
	mov	DWORD PTR [rax+448], 3
; Line 1049
	lea	rdx, OFFSET FLAT:$SG96203
	mov	rcx, QWORD PTR mask_width$[rsp]
	call	??4?$basic_string@DU?$char_traits@D@std@@V?$allocator@D@2@@std@@QEAAAEAV01@PEBD@Z ; std::basic_string<char,std::char_traits<char>,std::allocator<char> >::operator=
; Line 1050
	mov	rax, QWORD PTR mask_width$[rsp]
	add	rax, 48					; 00000030H
	lea	rdx, OFFSET FLAT:$SG96204
	mov	rcx, rax
	call	??4?$basic_string@DU?$char_traits@D@std@@V?$allocator@D@2@@std@@QEAAAEAV01@PEBD@Z ; std::basic_string<char,std::char_traits<char>,std::allocator<char> >::operator=
; Line 1051
	mov	rax, QWORD PTR mask_width$[rsp]
	add	rax, 96					; 00000060H
	lea	rdx, OFFSET FLAT:$SG96205
	mov	rcx, rax
	call	??4?$basic_string@DU?$char_traits@D@std@@V?$allocator@D@2@@std@@QEAAAEAV01@PEBD@Z ; std::basic_string<char,std::char_traits<char>,std::allocator<char> >::operator=
; Line 1052
	mov	rax, QWORD PTR mask_width$[rsp]
	mov	DWORD PTR [rax+144], 0
; Line 1053
	mov	rax, QWORD PTR this$[rsp]
	add	rax, 448				; 000001c0H
	mov	rcx, QWORD PTR mask_width$[rsp]
	mov	QWORD PTR [rcx+152], rax
; Line 1054
	mov	rdx, QWORD PTR mask_width$[rsp]
	mov	rax, QWORD PTR this$[rsp]
	mov	rcx, QWORD PTR [rax+8]
	call	?AddOption@SDKCommandArgs@streamsdk@@QEAAHPEAUOption@2@@Z ; streamsdk::SDKCommandArgs::AddOption
; Line 1055
	mov	rax, QWORD PTR mask_width$[rsp]
	mov	QWORD PTR $T102956[rsp], rax
	mov	rax, QWORD PTR $T102956[rsp]
	mov	QWORD PTR $T102955[rsp], rax
	cmp	QWORD PTR $T102955[rsp], 0
	je	SHORT $LN18@initialize
	mov	edx, 1
	mov	rcx, QWORD PTR $T102955[rsp]
	call	??_GOption@streamsdk@@QEAAPEAXI@Z
	mov	QWORD PTR tv217[rsp], rax
	jmp	SHORT $LN19@initialize
$LN18@initialize:
	mov	QWORD PTR tv217[rsp], 0
$LN19@initialize:
; Line 1057
	mov	ecx, 160				; 000000a0H
	call	??2@YAPEAX_K@Z				; operator new
	mov	QWORD PTR $T102960[rsp], rax
	cmp	QWORD PTR $T102960[rsp], 0
	je	SHORT $LN20@initialize
	mov	rcx, QWORD PTR $T102960[rsp]
	call	??0Option@streamsdk@@QEAA@XZ
	mov	QWORD PTR tv225[rsp], rax
	jmp	SHORT $LN21@initialize
$LN20@initialize:
	mov	QWORD PTR tv225[rsp], 0
$LN21@initialize:
	mov	rax, QWORD PTR tv225[rsp]
	mov	QWORD PTR $T102959[rsp], rax
	mov	rax, QWORD PTR $T102959[rsp]
	mov	QWORD PTR num_iterations$[rsp], rax
; Line 1058
	cmp	QWORD PTR num_iterations$[rsp], 0
	jne	SHORT $LN1@initialize
; Line 1060
	lea	rdx, OFFSET FLAT:$SG96214
	mov	rax, QWORD PTR this$[rsp]
	mov	rcx, QWORD PTR [rax+16]
	call	?error@SDKCommon@streamsdk@@QEBAXPEBD@Z	; streamsdk::SDKCommon::error
; Line 1061
	mov	eax, 1
	jmp	$LN6@initialize
$LN1@initialize:
; Line 1064
	lea	rdx, OFFSET FLAT:$SG96215
	mov	rcx, QWORD PTR num_iterations$[rsp]
	call	??4?$basic_string@DU?$char_traits@D@std@@V?$allocator@D@2@@std@@QEAAAEAV01@PEBD@Z ; std::basic_string<char,std::char_traits<char>,std::allocator<char> >::operator=
; Line 1065
	mov	rax, QWORD PTR num_iterations$[rsp]
	add	rax, 48					; 00000030H
	lea	rdx, OFFSET FLAT:$SG96216
	mov	rcx, rax
	call	??4?$basic_string@DU?$char_traits@D@std@@V?$allocator@D@2@@std@@QEAAAEAV01@PEBD@Z ; std::basic_string<char,std::char_traits<char>,std::allocator<char> >::operator=
; Line 1066
	mov	rax, QWORD PTR num_iterations$[rsp]
	add	rax, 96					; 00000060H
	lea	rdx, OFFSET FLAT:$SG96217
	mov	rcx, rax
	call	??4?$basic_string@DU?$char_traits@D@std@@V?$allocator@D@2@@std@@QEAAAEAV01@PEBD@Z ; std::basic_string<char,std::char_traits<char>,std::allocator<char> >::operator=
; Line 1067
	mov	rax, QWORD PTR num_iterations$[rsp]
	mov	DWORD PTR [rax+144], 0
; Line 1068
	mov	rax, QWORD PTR this$[rsp]
	add	rax, 392				; 00000188H
	mov	rcx, QWORD PTR num_iterations$[rsp]
	mov	QWORD PTR [rcx+152], rax
; Line 1070
	mov	rdx, QWORD PTR num_iterations$[rsp]
	mov	rax, QWORD PTR this$[rsp]
	mov	rcx, QWORD PTR [rax+8]
	call	?AddOption@SDKCommandArgs@streamsdk@@QEAAHPEAUOption@2@@Z ; streamsdk::SDKCommandArgs::AddOption
; Line 1071
	mov	rax, QWORD PTR num_iterations$[rsp]
	mov	QWORD PTR $T102964[rsp], rax
	mov	rax, QWORD PTR $T102964[rsp]
	mov	QWORD PTR $T102963[rsp], rax
	cmp	QWORD PTR $T102963[rsp], 0
	je	SHORT $LN22@initialize
	mov	edx, 1
	mov	rcx, QWORD PTR $T102963[rsp]
	call	??_GOption@streamsdk@@QEAAPEAXI@Z
	mov	QWORD PTR tv255[rsp], rax
	jmp	SHORT $LN23@initialize
$LN22@initialize:
	mov	QWORD PTR tv255[rsp], 0
$LN23@initialize:
; Line 1073
	xor	eax, eax
$LN6@initialize:
; Line 1074
	add	rsp, 272				; 00000110H
	pop	rdi
	ret	0
?initialize@SimpleConvolution@@UEAAHXZ ENDP		; SimpleConvolution::initialize
; Function compile flags: /Odtp /RTCsu
_TEXT	ENDS
text$x	SEGMENT
width_option$ = 32
height_option$ = 40
mask_width$ = 48
num_iterations$ = 56
$T102935 = 64
$T102936 = 72
$T102939 = 80
$T102940 = 88
$T102943 = 96
$T102944 = 104
$T102947 = 112
$T102948 = 120
$T102951 = 128
$T102952 = 136
$T102955 = 144
$T102956 = 152
$T102959 = 160
$T102960 = 168
$T102963 = 176
$T102964 = 184
$T102976 = 192
tv78 = 200
tv140 = 208
tv148 = 216
tv178 = 224
tv186 = 232
tv217 = 240
tv225 = 248
tv255 = 256
this$ = 288
?dtor$0@?0??initialize@SimpleConvolution@@UEAAHXZ@4HA PROC ; `SimpleConvolution::initialize'::`1'::dtor$0
	mov	QWORD PTR [rsp+8], rcx
	mov	QWORD PTR [rsp+16], rdx
	push	rbp
	push	rdi
	sub	rsp, 40					; 00000028H
	mov	rbp, rdx
	mov	rcx, QWORD PTR $T102936[rbp]
	call	??3@YAXPEAX@Z				; operator delete
	add	rsp, 40					; 00000028H
	pop	rdi
	pop	rbp
	ret	0
?dtor$0@?0??initialize@SimpleConvolution@@UEAAHXZ@4HA ENDP ; `SimpleConvolution::initialize'::`1'::dtor$0
; Function compile flags: /Odtp /RTCsu
width_option$ = 32
height_option$ = 40
mask_width$ = 48
num_iterations$ = 56
$T102935 = 64
$T102936 = 72
$T102939 = 80
$T102940 = 88
$T102943 = 96
$T102944 = 104
$T102947 = 112
$T102948 = 120
$T102951 = 128
$T102952 = 136
$T102955 = 144
$T102956 = 152
$T102959 = 160
$T102960 = 168
$T102963 = 176
$T102964 = 184
$T102976 = 192
tv78 = 200
tv140 = 208
tv148 = 216
tv178 = 224
tv186 = 232
tv217 = 240
tv225 = 248
tv255 = 256
this$ = 288
?dtor$1@?0??initialize@SimpleConvolution@@UEAAHXZ@4HA PROC ; `SimpleConvolution::initialize'::`1'::dtor$1
	mov	QWORD PTR [rsp+8], rcx
	mov	QWORD PTR [rsp+16], rdx
	push	rbp
	push	rdi
	sub	rsp, 40					; 00000028H
	mov	rbp, rdx
	mov	rcx, QWORD PTR $T102944[rbp]
	call	??3@YAXPEAX@Z				; operator delete
	add	rsp, 40					; 00000028H
	pop	rdi
	pop	rbp
	ret	0
?dtor$1@?0??initialize@SimpleConvolution@@UEAAHXZ@4HA ENDP ; `SimpleConvolution::initialize'::`1'::dtor$1
; Function compile flags: /Odtp /RTCsu
width_option$ = 32
height_option$ = 40
mask_width$ = 48
num_iterations$ = 56
$T102935 = 64
$T102936 = 72
$T102939 = 80
$T102940 = 88
$T102943 = 96
$T102944 = 104
$T102947 = 112
$T102948 = 120
$T102951 = 128
$T102952 = 136
$T102955 = 144
$T102956 = 152
$T102959 = 160
$T102960 = 168
$T102963 = 176
$T102964 = 184
$T102976 = 192
tv78 = 200
tv140 = 208
tv148 = 216
tv178 = 224
tv186 = 232
tv217 = 240
tv225 = 248
tv255 = 256
this$ = 288
?dtor$2@?0??initialize@SimpleConvolution@@UEAAHXZ@4HA PROC ; `SimpleConvolution::initialize'::`1'::dtor$2
	mov	QWORD PTR [rsp+8], rcx
	mov	QWORD PTR [rsp+16], rdx
	push	rbp
	push	rdi
	sub	rsp, 40					; 00000028H
	mov	rbp, rdx
	mov	rcx, QWORD PTR $T102952[rbp]
	call	??3@YAXPEAX@Z				; operator delete
	add	rsp, 40					; 00000028H
	pop	rdi
	pop	rbp
	ret	0
?dtor$2@?0??initialize@SimpleConvolution@@UEAAHXZ@4HA ENDP ; `SimpleConvolution::initialize'::`1'::dtor$2
; Function compile flags: /Odtp /RTCsu
width_option$ = 32
height_option$ = 40
mask_width$ = 48
num_iterations$ = 56
$T102935 = 64
$T102936 = 72
$T102939 = 80
$T102940 = 88
$T102943 = 96
$T102944 = 104
$T102947 = 112
$T102948 = 120
$T102951 = 128
$T102952 = 136
$T102955 = 144
$T102956 = 152
$T102959 = 160
$T102960 = 168
$T102963 = 176
$T102964 = 184
$T102976 = 192
tv78 = 200
tv140 = 208
tv148 = 216
tv178 = 224
tv186 = 232
tv217 = 240
tv225 = 248
tv255 = 256
this$ = 288
?dtor$3@?0??initialize@SimpleConvolution@@UEAAHXZ@4HA PROC ; `SimpleConvolution::initialize'::`1'::dtor$3
	mov	QWORD PTR [rsp+8], rcx
	mov	QWORD PTR [rsp+16], rdx
	push	rbp
	push	rdi
	sub	rsp, 40					; 00000028H
	mov	rbp, rdx
	mov	rcx, QWORD PTR $T102960[rbp]
	call	??3@YAXPEAX@Z				; operator delete
	add	rsp, 40					; 00000028H
	pop	rdi
	pop	rbp
	ret	0
?dtor$3@?0??initialize@SimpleConvolution@@UEAAHXZ@4HA ENDP ; `SimpleConvolution::initialize'::`1'::dtor$3
text$x	ENDS
PUBLIC	??0?$basic_string@DU?$char_traits@D@std@@V?$allocator@D@2@@std@@QEAA@XZ ; std::basic_string<char,std::char_traits<char>,std::allocator<char> >::basic_string<char,std::char_traits<char>,std::allocator<char> >
;	COMDAT pdata
pdata	SEGMENT
$pdata$??0Option@streamsdk@@QEAA@XZ DD imagerel $LN6
	DD	imagerel $LN6+97
	DD	imagerel $unwind$??0Option@streamsdk@@QEAA@XZ
pdata	ENDS
;	COMDAT pdata
pdata	SEGMENT
$pdata$?dtor$0@?0???0Option@streamsdk@@QEAA@XZ@4HA DD imagerel ?dtor$0@?0???0Option@streamsdk@@QEAA@XZ@4HA
	DD	imagerel ?dtor$0@?0???0Option@streamsdk@@QEAA@XZ@4HA+35
	DD	imagerel $unwind$?dtor$0@?0???0Option@streamsdk@@QEAA@XZ@4HA
pdata	ENDS
;	COMDAT pdata
pdata	SEGMENT
$pdata$?dtor$1@?0???0Option@streamsdk@@QEAA@XZ@4HA DD imagerel ?dtor$1@?0???0Option@streamsdk@@QEAA@XZ@4HA
	DD	imagerel ?dtor$1@?0???0Option@streamsdk@@QEAA@XZ@4HA+39
	DD	imagerel $unwind$?dtor$1@?0???0Option@streamsdk@@QEAA@XZ@4HA
pdata	ENDS
;	COMDAT xdata
xdata	SEGMENT
$ip2state$??0Option@streamsdk@@QEAA@XZ DD imagerel ??0Option@streamsdk@@QEAA@XZ
	DD	0ffffffffH
	DD	imagerel ??0Option@streamsdk@@QEAA@XZ+50
	DD	00H
	DD	imagerel ??0Option@streamsdk@@QEAA@XZ+68
	DD	01H
	DD	imagerel ??0Option@streamsdk@@QEAA@XZ+86
	DD	0ffffffffH
xdata	ENDS
;	COMDAT xdata
xdata	SEGMENT
$unwind$?dtor$1@?0???0Option@streamsdk@@QEAA@XZ@4HA DD 031001H
	DD	0700c4210H
	DD	0500bH
xdata	ENDS
;	COMDAT xdata
xdata	SEGMENT
$unwind$?dtor$0@?0???0Option@streamsdk@@QEAA@XZ@4HA DD 031001H
	DD	0700c4210H
	DD	0500bH
xdata	ENDS
;	COMDAT xdata
xdata	SEGMENT
$unwind$??0Option@streamsdk@@QEAA@XZ DD 022711H
	DD	07006520aH
	DD	imagerel __CxxFrameHandler3
	DD	imagerel $cppxdata$??0Option@streamsdk@@QEAA@XZ
xdata	ENDS
;	COMDAT CONST
CONST	SEGMENT
$cppxdata$??0Option@streamsdk@@QEAA@XZ DD 019930522H
	DD	02H
	DD	imagerel $stateUnwindMap$??0Option@streamsdk@@QEAA@XZ
	DD	00H
	DD	00H
	DD	04H
	DD	imagerel $ip2state$??0Option@streamsdk@@QEAA@XZ
	DD	020H
	DD	00H
	DD	01H
CONST	ENDS
;	COMDAT xdata
xdata	SEGMENT
$stateUnwindMap$??0Option@streamsdk@@QEAA@XZ DD 0ffffffffH
	DD	imagerel ?dtor$0@?0???0Option@streamsdk@@QEAA@XZ@4HA
	DD	00H
	DD	imagerel ?dtor$1@?0???0Option@streamsdk@@QEAA@XZ@4HA
; Function compile flags: /Odtp /RTCsu
xdata	ENDS
;	COMDAT ??0Option@streamsdk@@QEAA@XZ
_TEXT	SEGMENT
$T103002 = 32
this$ = 64
??0Option@streamsdk@@QEAA@XZ PROC			; streamsdk::Option::Option, COMDAT
$LN6:
	mov	QWORD PTR [rsp+8], rcx
	push	rdi
	sub	rsp, 48					; 00000030H
	mov	rdi, rsp
	mov	ecx, 12
	mov	eax, -858993460				; ccccccccH
	rep stosd
	mov	rcx, QWORD PTR [rsp+64]
	mov	QWORD PTR $T103002[rsp], -2
	mov	rcx, QWORD PTR this$[rsp]
	call	??0?$basic_string@DU?$char_traits@D@std@@V?$allocator@D@2@@std@@QEAA@XZ ; std::basic_string<char,std::char_traits<char>,std::allocator<char> >::basic_string<char,std::char_traits<char>,std::allocator<char> >
	npad	1
	mov	rax, QWORD PTR this$[rsp]
	add	rax, 48					; 00000030H
	mov	rcx, rax
	call	??0?$basic_string@DU?$char_traits@D@std@@V?$allocator@D@2@@std@@QEAA@XZ ; std::basic_string<char,std::char_traits<char>,std::allocator<char> >::basic_string<char,std::char_traits<char>,std::allocator<char> >
	npad	1
	mov	rax, QWORD PTR this$[rsp]
	add	rax, 96					; 00000060H
	mov	rcx, rax
	call	??0?$basic_string@DU?$char_traits@D@std@@V?$allocator@D@2@@std@@QEAA@XZ ; std::basic_string<char,std::char_traits<char>,std::allocator<char> >::basic_string<char,std::char_traits<char>,std::allocator<char> >
	npad	1
	mov	rax, QWORD PTR this$[rsp]
	add	rsp, 48					; 00000030H
	pop	rdi
	ret	0
??0Option@streamsdk@@QEAA@XZ ENDP			; streamsdk::Option::Option
; Function compile flags: /Odtp /RTCsu
_TEXT	ENDS
;	COMDAT text$x
text$x	SEGMENT
$T103002 = 32
this$ = 64
?dtor$0@?0???0Option@streamsdk@@QEAA@XZ@4HA PROC	; `streamsdk::Option::Option'::`1'::dtor$0
	mov	QWORD PTR [rsp+8], rcx
	mov	QWORD PTR [rsp+16], rdx
	push	rbp
	push	rdi
	sub	rsp, 40					; 00000028H
	mov	rbp, rdx
	mov	rcx, QWORD PTR this$[rbp]
	call	??1?$basic_string@DU?$char_traits@D@std@@V?$allocator@D@2@@std@@QEAA@XZ ; std::basic_string<char,std::char_traits<char>,std::allocator<char> >::~basic_string<char,std::char_traits<char>,std::allocator<char> >
	add	rsp, 40					; 00000028H
	pop	rdi
	pop	rbp
	ret	0
?dtor$0@?0???0Option@streamsdk@@QEAA@XZ@4HA ENDP	; `streamsdk::Option::Option'::`1'::dtor$0
; Function compile flags: /Odtp /RTCsu
$T103002 = 32
this$ = 64
?dtor$1@?0???0Option@streamsdk@@QEAA@XZ@4HA PROC	; `streamsdk::Option::Option'::`1'::dtor$1
	mov	QWORD PTR [rsp+8], rcx
	mov	QWORD PTR [rsp+16], rdx
	push	rbp
	push	rdi
	sub	rsp, 40					; 00000028H
	mov	rbp, rdx
	mov	rcx, QWORD PTR this$[rbp]
	add	rcx, 48					; 00000030H
	call	??1?$basic_string@DU?$char_traits@D@std@@V?$allocator@D@2@@std@@QEAA@XZ ; std::basic_string<char,std::char_traits<char>,std::allocator<char> >::~basic_string<char,std::char_traits<char>,std::allocator<char> >
	add	rsp, 40					; 00000028H
	pop	rdi
	pop	rbp
	ret	0
?dtor$1@?0???0Option@streamsdk@@QEAA@XZ@4HA ENDP	; `streamsdk::Option::Option'::`1'::dtor$1
text$x	ENDS
PUBLIC	??1Option@streamsdk@@QEAA@XZ			; streamsdk::Option::~Option
;	COMDAT pdata
pdata	SEGMENT
$pdata$??_GOption@streamsdk@@QEAAPEAXI@Z DD imagerel $LN4
	DD	imagerel $LN4+76
	DD	imagerel $unwind$??_GOption@streamsdk@@QEAAPEAXI@Z
pdata	ENDS
;	COMDAT xdata
xdata	SEGMENT
$unwind$??_GOption@streamsdk@@QEAAPEAXI@Z DD 022201H
	DD	0700a320eH
; Function compile flags: /Odtp /RTCsu
xdata	ENDS
;	COMDAT ??_GOption@streamsdk@@QEAAPEAXI@Z
_TEXT	SEGMENT
this$ = 48
__flags$ = 56
??_GOption@streamsdk@@QEAAPEAXI@Z PROC			; streamsdk::Option::`scalar deleting destructor', COMDAT
$LN4:
	mov	DWORD PTR [rsp+16], edx
	mov	QWORD PTR [rsp+8], rcx
	push	rdi
	sub	rsp, 32					; 00000020H
	mov	rdi, rsp
	mov	ecx, 8
	mov	eax, -858993460				; ccccccccH
	rep stosd
	mov	rcx, QWORD PTR [rsp+48]
	mov	rcx, QWORD PTR this$[rsp]
	call	??1Option@streamsdk@@QEAA@XZ
	mov	eax, DWORD PTR __flags$[rsp]
	and	eax, 1
	test	eax, eax
	je	SHORT $LN1@scalar
	mov	rcx, QWORD PTR this$[rsp]
	call	??3@YAXPEAX@Z				; operator delete
$LN1@scalar:
	mov	rax, QWORD PTR this$[rsp]
	add	rsp, 32					; 00000020H
	pop	rdi
	ret	0
??_GOption@streamsdk@@QEAAPEAXI@Z ENDP			; streamsdk::Option::`scalar deleting destructor'
_TEXT	ENDS
;	COMDAT pdata
pdata	SEGMENT
$pdata$??1Option@streamsdk@@QEAA@XZ DD imagerel $LN6
	DD	imagerel $LN6+91
	DD	imagerel $unwind$??1Option@streamsdk@@QEAA@XZ
pdata	ENDS
;	COMDAT pdata
pdata	SEGMENT
$pdata$?dtor$0@?0???1Option@streamsdk@@QEAA@XZ@4HA DD imagerel ?dtor$0@?0???1Option@streamsdk@@QEAA@XZ@4HA
	DD	imagerel ?dtor$0@?0???1Option@streamsdk@@QEAA@XZ@4HA+35
	DD	imagerel $unwind$?dtor$0@?0???1Option@streamsdk@@QEAA@XZ@4HA
pdata	ENDS
;	COMDAT pdata
pdata	SEGMENT
$pdata$?dtor$1@?0???1Option@streamsdk@@QEAA@XZ@4HA DD imagerel ?dtor$1@?0???1Option@streamsdk@@QEAA@XZ@4HA
	DD	imagerel ?dtor$1@?0???1Option@streamsdk@@QEAA@XZ@4HA+39
	DD	imagerel $unwind$?dtor$1@?0???1Option@streamsdk@@QEAA@XZ@4HA
pdata	ENDS
;	COMDAT xdata
xdata	SEGMENT
$ip2state$??1Option@streamsdk@@QEAA@XZ DD imagerel ??1Option@streamsdk@@QEAA@XZ
	DD	0ffffffffH
	DD	imagerel ??1Option@streamsdk@@QEAA@XZ+39
	DD	01H
	DD	imagerel ??1Option@streamsdk@@QEAA@XZ+57
	DD	00H
	DD	imagerel ??1Option@streamsdk@@QEAA@XZ+75
	DD	0ffffffffH
xdata	ENDS
;	COMDAT xdata
xdata	SEGMENT
$unwind$?dtor$1@?0???1Option@streamsdk@@QEAA@XZ@4HA DD 031001H
	DD	0700c4210H
	DD	0500bH
xdata	ENDS
;	COMDAT xdata
xdata	SEGMENT
$unwind$?dtor$0@?0???1Option@streamsdk@@QEAA@XZ@4HA DD 031001H
	DD	0700c4210H
	DD	0500bH
xdata	ENDS
;	COMDAT xdata
xdata	SEGMENT
$unwind$??1Option@streamsdk@@QEAA@XZ DD 022711H
	DD	07006520aH
	DD	imagerel __CxxFrameHandler3
	DD	imagerel $cppxdata$??1Option@streamsdk@@QEAA@XZ
xdata	ENDS
;	COMDAT CONST
CONST	SEGMENT
$cppxdata$??1Option@streamsdk@@QEAA@XZ DD 019930522H
	DD	02H
	DD	imagerel $stateUnwindMap$??1Option@streamsdk@@QEAA@XZ
	DD	00H
	DD	00H
	DD	04H
	DD	imagerel $ip2state$??1Option@streamsdk@@QEAA@XZ
	DD	020H
	DD	00H
	DD	01H
CONST	ENDS
;	COMDAT xdata
xdata	SEGMENT
$stateUnwindMap$??1Option@streamsdk@@QEAA@XZ DD 0ffffffffH
	DD	imagerel ?dtor$0@?0???1Option@streamsdk@@QEAA@XZ@4HA
	DD	00H
	DD	imagerel ?dtor$1@?0???1Option@streamsdk@@QEAA@XZ@4HA
; Function compile flags: /Odtp /RTCsu
xdata	ENDS
;	COMDAT ??1Option@streamsdk@@QEAA@XZ
_TEXT	SEGMENT
$T103040 = 32
this$ = 64
??1Option@streamsdk@@QEAA@XZ PROC			; streamsdk::Option::~Option, COMDAT
$LN6:
	mov	QWORD PTR [rsp+8], rcx
	push	rdi
	sub	rsp, 48					; 00000030H
	mov	rdi, rsp
	mov	ecx, 12
	mov	eax, -858993460				; ccccccccH
	rep stosd
	mov	rcx, QWORD PTR [rsp+64]
	mov	QWORD PTR $T103040[rsp], -2
	mov	rax, QWORD PTR this$[rsp]
	add	rax, 96					; 00000060H
	mov	rcx, rax
	call	??1?$basic_string@DU?$char_traits@D@std@@V?$allocator@D@2@@std@@QEAA@XZ ; std::basic_string<char,std::char_traits<char>,std::allocator<char> >::~basic_string<char,std::char_traits<char>,std::allocator<char> >
	npad	1
	mov	rax, QWORD PTR this$[rsp]
	add	rax, 48					; 00000030H
	mov	rcx, rax
	call	??1?$basic_string@DU?$char_traits@D@std@@V?$allocator@D@2@@std@@QEAA@XZ ; std::basic_string<char,std::char_traits<char>,std::allocator<char> >::~basic_string<char,std::char_traits<char>,std::allocator<char> >
	npad	1
	mov	rcx, QWORD PTR this$[rsp]
	call	??1?$basic_string@DU?$char_traits@D@std@@V?$allocator@D@2@@std@@QEAA@XZ ; std::basic_string<char,std::char_traits<char>,std::allocator<char> >::~basic_string<char,std::char_traits<char>,std::allocator<char> >
	add	rsp, 48					; 00000030H
	pop	rdi
	ret	0
??1Option@streamsdk@@QEAA@XZ ENDP			; streamsdk::Option::~Option
; Function compile flags: /Odtp /RTCsu
_TEXT	ENDS
;	COMDAT text$x
text$x	SEGMENT
$T103040 = 32
this$ = 64
?dtor$0@?0???1Option@streamsdk@@QEAA@XZ@4HA PROC	; `streamsdk::Option::~Option'::`1'::dtor$0
	mov	QWORD PTR [rsp+8], rcx
	mov	QWORD PTR [rsp+16], rdx
	push	rbp
	push	rdi
	sub	rsp, 40					; 00000028H
	mov	rbp, rdx
	mov	rcx, QWORD PTR this$[rbp]
	call	??1?$basic_string@DU?$char_traits@D@std@@V?$allocator@D@2@@std@@QEAA@XZ ; std::basic_string<char,std::char_traits<char>,std::allocator<char> >::~basic_string<char,std::char_traits<char>,std::allocator<char> >
	add	rsp, 40					; 00000028H
	pop	rdi
	pop	rbp
	ret	0
?dtor$0@?0???1Option@streamsdk@@QEAA@XZ@4HA ENDP	; `streamsdk::Option::~Option'::`1'::dtor$0
; Function compile flags: /Odtp /RTCsu
$T103040 = 32
this$ = 64
?dtor$1@?0???1Option@streamsdk@@QEAA@XZ@4HA PROC	; `streamsdk::Option::~Option'::`1'::dtor$1
	mov	QWORD PTR [rsp+8], rcx
	mov	QWORD PTR [rsp+16], rdx
	push	rbp
	push	rdi
	sub	rsp, 40					; 00000028H
	mov	rbp, rdx
	mov	rcx, QWORD PTR this$[rbp]
	add	rcx, 48					; 00000030H
	call	??1?$basic_string@DU?$char_traits@D@std@@V?$allocator@D@2@@std@@QEAA@XZ ; std::basic_string<char,std::char_traits<char>,std::allocator<char> >::~basic_string<char,std::char_traits<char>,std::allocator<char> >
	add	rsp, 40					; 00000028H
	pop	rdi
	pop	rbp
	ret	0
?dtor$1@?0???1Option@streamsdk@@QEAA@XZ@4HA ENDP	; `streamsdk::Option::~Option'::`1'::dtor$1
text$x	ENDS
PUBLIC	?setup@SimpleConvolution@@UEAAHXZ		; SimpleConvolution::setup
pdata	SEGMENT
$pdata$?setup@SimpleConvolution@@UEAAHXZ DD imagerel $LN5
	DD	imagerel $LN5+137
	DD	imagerel $unwind$?setup@SimpleConvolution@@UEAAHXZ
pdata	ENDS
xdata	SEGMENT
$unwind$?setup@SimpleConvolution@@UEAAHXZ DD 021e01H
	DD	07006320aH
; Function compile flags: /Odtp /RTCsu
xdata	ENDS
_TEXT	SEGMENT
this$ = 48
?setup@SimpleConvolution@@UEAAHXZ PROC			; SimpleConvolution::setup
; Line 1077
$LN5:
	mov	QWORD PTR [rsp+8], rcx
	push	rdi
	sub	rsp, 32					; 00000020H
	mov	rdi, rsp
	mov	ecx, 8
	mov	eax, -858993460				; ccccccccH
	rep stosd
	mov	rcx, QWORD PTR [rsp+48]
; Line 1094
	lea	rdx, OFFSET FLAT:$SG96231
	lea	rcx, OFFSET FLAT:?cout@std@@3V?$basic_ostream@DU?$char_traits@D@std@@@1@A ; std::cout
	call	??$?6U?$char_traits@D@std@@@std@@YAAEAV?$basic_ostream@DU?$char_traits@D@std@@@0@AEAV10@PEBD@Z ; std::operator<<<std::char_traits<char> >
; Line 1096
	mov	rcx, QWORD PTR this$[rsp]
	call	?setupSimpleConvolution@SimpleConvolution@@QEAAHXZ ; SimpleConvolution::setupSimpleConvolution
	test	eax, eax
	je	SHORT $LN2@setup
; Line 1097
	mov	eax, 1
	jmp	SHORT $LN3@setup
$LN2@setup:
; Line 1100
	lea	rdx, OFFSET FLAT:$SG96233
	lea	rcx, OFFSET FLAT:?cout@std@@3V?$basic_ostream@DU?$char_traits@D@std@@@1@A ; std::cout
	call	??$?6U?$char_traits@D@std@@@std@@YAAEAV?$basic_ostream@DU?$char_traits@D@std@@@0@AEAV10@PEBD@Z ; std::operator<<<std::char_traits<char> >
; Line 1101
	mov	rcx, QWORD PTR this$[rsp]
	call	?setupCL@SimpleConvolution@@QEAAHXZ	; SimpleConvolution::setupCL
	test	eax, eax
	je	SHORT $LN1@setup
; Line 1102
	mov	eax, 1
	jmp	SHORT $LN3@setup
$LN1@setup:
; Line 1104
	lea	rdx, OFFSET FLAT:$SG96235
	lea	rcx, OFFSET FLAT:?cout@std@@3V?$basic_ostream@DU?$char_traits@D@std@@@1@A ; std::cout
	call	??$?6U?$char_traits@D@std@@@std@@YAAEAV?$basic_ostream@DU?$char_traits@D@std@@@0@AEAV10@PEBD@Z ; std::operator<<<std::char_traits<char> >
; Line 1107
	xor	eax, eax
$LN3@setup:
; Line 1108
	add	rsp, 32					; 00000020H
	pop	rdi
	ret	0
?setup@SimpleConvolution@@UEAAHXZ ENDP			; SimpleConvolution::setup
_TEXT	ENDS
PUBLIC	??6?$basic_ostream@DU?$char_traits@D@std@@@std@@QEAAAEAV01@H@Z ; std::basic_ostream<char,std::char_traits<char> >::operator<<
PUBLIC	?run@SimpleConvolution@@UEAAHXZ			; SimpleConvolution::run
EXTRN	??$printArray@M@SDKCommon@streamsdk@@QEBAXV?$basic_string@DU?$char_traits@D@std@@V?$allocator@D@2@@std@@PEBMHH@Z:PROC ; streamsdk::SDKCommon::printArray<float>
pdata	SEGMENT
$pdata$?run@SimpleConvolution@@UEAAHXZ DD imagerel $LN9
	DD	imagerel $LN9+324
	DD	imagerel $unwind$?run@SimpleConvolution@@UEAAHXZ
pdata	ENDS
xdata	SEGMENT
$unwind$?run@SimpleConvolution@@UEAAHXZ DD 022401H
	DD	07006f20dH
; Function compile flags: /Odtp /RTCsu
xdata	ENDS
_TEXT	SEGMENT
i$96261 = 48
$T103066 = 56
$T103067 = 104
tv136 = 112
this$ = 144
?run@SimpleConvolution@@UEAAHXZ PROC			; SimpleConvolution::run
; Line 1112
$LN9:
	mov	QWORD PTR [rsp+8], rcx
	push	rdi
	sub	rsp, 128				; 00000080H
	mov	rdi, rsp
	mov	ecx, 32					; 00000020H
	mov	eax, -858993460				; ccccccccH
	rep stosd
	mov	rcx, QWORD PTR [rsp+144]
; Line 1114
	lea	rdx, OFFSET FLAT:$SG96255
	lea	rcx, OFFSET FLAT:?cout@std@@3V?$basic_ostream@DU?$char_traits@D@std@@@1@A ; std::cout
	call	??$?6U?$char_traits@D@std@@@std@@YAAEAV?$basic_ostream@DU?$char_traits@D@std@@@0@AEAV10@PEBD@Z ; std::operator<<<std::char_traits<char> >
	mov	rcx, QWORD PTR this$[rsp]
	mov	edx, DWORD PTR [rcx+392]
	mov	rcx, rax
	call	??6?$basic_ostream@DU?$char_traits@D@std@@@std@@QEAAAEAV01@H@Z ; std::basic_ostream<char,std::char_traits<char> >::operator<<
	lea	rdx, OFFSET FLAT:$SG96254
	mov	rcx, rax
	call	??$?6U?$char_traits@D@std@@@std@@YAAEAV?$basic_ostream@DU?$char_traits@D@std@@@0@AEAV10@PEBD@Z ; std::operator<<<std::char_traits<char> >
	lea	rdx, OFFSET FLAT:?endl@std@@YAAEAV?$basic_ostream@DU?$char_traits@D@std@@@1@AEAV21@@Z ; std::endl
	mov	rcx, rax
	call	??6?$basic_ostream@DU?$char_traits@D@std@@@std@@QEAAAEAV01@P6AAEAV01@AEAV01@@Z@Z ; std::basic_ostream<char,std::char_traits<char> >::operator<<
; Line 1115
	lea	rdx, OFFSET FLAT:$SG96260
	lea	rcx, OFFSET FLAT:?cout@std@@3V?$basic_ostream@DU?$char_traits@D@std@@@1@A ; std::cout
	call	??$?6U?$char_traits@D@std@@@std@@YAAEAV?$basic_ostream@DU?$char_traits@D@std@@@0@AEAV10@PEBD@Z ; std::operator<<<std::char_traits<char> >
	lea	rdx, OFFSET FLAT:?endl@std@@YAAEAV?$basic_ostream@DU?$char_traits@D@std@@@1@AEAV21@@Z ; std::endl
	mov	rcx, rax
	call	??6?$basic_ostream@DU?$char_traits@D@std@@@std@@QEAAAEAV01@P6AAEAV01@AEAV01@@Z@Z ; std::basic_ostream<char,std::char_traits<char> >::operator<<
; Line 1117
	mov	DWORD PTR i$96261[rsp], 0
	jmp	SHORT $LN5@run
$LN4@run:
	mov	eax, DWORD PTR i$96261[rsp]
	inc	eax
	mov	DWORD PTR i$96261[rsp], eax
$LN5@run:
	mov	rax, QWORD PTR this$[rsp]
	mov	eax, DWORD PTR [rax+392]
	cmp	DWORD PTR i$96261[rsp], eax
	jge	SHORT $LN3@run
; Line 1120
	mov	rcx, QWORD PTR this$[rsp]
	call	?runCLKernels@SimpleConvolution@@QEAAHXZ ; SimpleConvolution::runCLKernels
	test	eax, eax
	je	SHORT $LN2@run
; Line 1121
	mov	eax, 1
	jmp	SHORT $LN6@run
$LN2@run:
; Line 1122
	jmp	SHORT $LN4@run
$LN3@run:
; Line 1124
	mov	rax, QWORD PTR this$[rsp]
	cmp	DWORD PTR [rax+80], 0
	jne	SHORT $LN1@run
; Line 1125
	lea	rax, QWORD PTR $T103066[rsp]
	mov	QWORD PTR $T103067[rsp], rax
	lea	rdx, OFFSET FLAT:$SG96275
	mov	rcx, QWORD PTR $T103067[rsp]
	call	??0?$basic_string@DU?$char_traits@D@std@@V?$allocator@D@2@@std@@QEAA@PEBD@Z ; std::basic_string<char,std::char_traits<char>,std::allocator<char> >::basic_string<char,std::char_traits<char>,std::allocator<char> >
	mov	QWORD PTR tv136[rsp], rax
	mov	DWORD PTR [rsp+32], 1
	mov	rax, QWORD PTR this$[rsp]
	mov	r9d, DWORD PTR [rax+416]
	mov	rax, QWORD PTR this$[rsp]
	mov	r8, QWORD PTR [rax+432]
	mov	rdx, QWORD PTR tv136[rsp]
	mov	rax, QWORD PTR this$[rsp]
	mov	rcx, QWORD PTR [rax+16]
	call	??$printArray@M@SDKCommon@streamsdk@@QEBAXV?$basic_string@DU?$char_traits@D@std@@V?$allocator@D@2@@std@@PEBMHH@Z ; streamsdk::SDKCommon::printArray<float>
$LN1@run:
; Line 1128
	xor	eax, eax
$LN6@run:
; Line 1129
	add	rsp, 128				; 00000080H
	pop	rdi
	ret	0
?run@SimpleConvolution@@UEAAHXZ ENDP			; SimpleConvolution::run
_TEXT	ENDS
PUBLIC	?verifyResults@SimpleConvolution@@UEAAHXZ	; SimpleConvolution::verifyResults
pdata	SEGMENT
$pdata$?verifyResults@SimpleConvolution@@UEAAHXZ DD imagerel $LN4
	DD	imagerel $LN4+15
	DD	imagerel $unwind$?verifyResults@SimpleConvolution@@UEAAHXZ
pdata	ENDS
xdata	SEGMENT
$unwind$?verifyResults@SimpleConvolution@@UEAAHXZ DD 010601H
	DD	07006H
; Function compile flags: /Odtp /RTCsu
xdata	ENDS
_TEXT	SEGMENT
this$ = 16
?verifyResults@SimpleConvolution@@UEAAHXZ PROC		; SimpleConvolution::verifyResults
; Line 1132
$LN4:
	mov	QWORD PTR [rsp+8], rcx
	push	rdi
; Line 1133
	mov	rax, QWORD PTR this$[rsp]
; Line 1138
	xor	eax, eax
; Line 1139
	pop	rdi
	ret	0
?verifyResults@SimpleConvolution@@UEAAHXZ ENDP		; SimpleConvolution::verifyResults
_TEXT	ENDS
PUBLIC	??4?$basic_string@DU?$char_traits@D@std@@V?$allocator@D@2@@std@@QEAAAEAV01@$$QEAV01@@Z ; std::basic_string<char,std::char_traits<char>,std::allocator<char> >::operator=
PUBLIC	?dec@std@@YAAEAVios_base@1@AEAV21@@Z		; std::dec
PUBLIC	__$ArrayPad$
PUBLIC	?printStats@SimpleConvolution@@QEAAXXZ		; SimpleConvolution::printStats
EXTRN	??_M@YAXPEAX_KHP6AX0@Z@Z:PROC			; `eh vector destructor iterator'
EXTRN	?printStats@SDKSample@@MEAAXPEAV?$basic_string@DU?$char_traits@D@std@@V?$allocator@D@2@@std@@0H@Z:PROC ; SDKSample::printStats
EXTRN	??$toString@N@SDKCommon@streamsdk@@QEAA?AV?$basic_string@DU?$char_traits@D@std@@V?$allocator@D@2@@std@@NP6AAEAVios_base@3@AEAV43@@Z@Z:PROC ; streamsdk::SDKCommon::toString<double>
EXTRN	??$toString@I@SDKCommon@streamsdk@@QEAA?AV?$basic_string@DU?$char_traits@D@std@@V?$allocator@D@2@@std@@IP6AAEAVios_base@3@AEAV43@@Z@Z:PROC ; streamsdk::SDKCommon::toString<unsigned int>
EXTRN	??$toString@H@SDKCommon@streamsdk@@QEAA?AV?$basic_string@DU?$char_traits@D@std@@V?$allocator@D@2@@std@@HP6AAEAVios_base@3@AEAV43@@Z@Z:PROC ; streamsdk::SDKCommon::toString<int>
EXTRN	??_L@YAXPEAX_KHP6AX0@Z2@Z:PROC			; `eh vector constructor iterator'
pdata	SEGMENT
$pdata$?printStats@SimpleConvolution@@QEAAXXZ DD imagerel $LN15
	DD	imagerel $LN15+928
	DD	imagerel $unwind$?printStats@SimpleConvolution@@QEAAXXZ
pdata	ENDS
pdata	SEGMENT
$pdata$?dtor$0@?0??printStats@SimpleConvolution@@QEAAXXZ@4HA DD imagerel ?dtor$0@?0??printStats@SimpleConvolution@@QEAAXXZ@4HA
	DD	imagerel ?dtor$0@?0??printStats@SimpleConvolution@@QEAAXXZ@4HA+35
	DD	imagerel $unwind$?dtor$0@?0??printStats@SimpleConvolution@@QEAAXXZ@4HA
$pdata$?dtor$1@?0??printStats@SimpleConvolution@@QEAAXXZ@4HA DD imagerel ?dtor$1@?0??printStats@SimpleConvolution@@QEAAXXZ@4HA
	DD	imagerel ?dtor$1@?0??printStats@SimpleConvolution@@QEAAXXZ@4HA+35
	DD	imagerel $unwind$?dtor$1@?0??printStats@SimpleConvolution@@QEAAXXZ@4HA
$pdata$?dtor$2@?0??printStats@SimpleConvolution@@QEAAXXZ@4HA DD imagerel ?dtor$2@?0??printStats@SimpleConvolution@@QEAAXXZ@4HA
	DD	imagerel ?dtor$2@?0??printStats@SimpleConvolution@@QEAAXXZ@4HA+38
	DD	imagerel $unwind$?dtor$2@?0??printStats@SimpleConvolution@@QEAAXXZ@4HA
$pdata$?dtor$3@?0??printStats@SimpleConvolution@@QEAAXXZ@4HA DD imagerel ?dtor$3@?0??printStats@SimpleConvolution@@QEAAXXZ@4HA
	DD	imagerel ?dtor$3@?0??printStats@SimpleConvolution@@QEAAXXZ@4HA+38
	DD	imagerel $unwind$?dtor$3@?0??printStats@SimpleConvolution@@QEAAXXZ@4HA
$pdata$?dtor$5@?0??printStats@SimpleConvolution@@QEAAXXZ@4HA DD imagerel ?dtor$5@?0??printStats@SimpleConvolution@@QEAAXXZ@4HA
	DD	imagerel ?dtor$5@?0??printStats@SimpleConvolution@@QEAAXXZ@4HA+53
	DD	imagerel $unwind$?dtor$5@?0??printStats@SimpleConvolution@@QEAAXXZ@4HA
$pdata$?dtor$6@?0??printStats@SimpleConvolution@@QEAAXXZ@4HA DD imagerel ?dtor$6@?0??printStats@SimpleConvolution@@QEAAXXZ@4HA
	DD	imagerel ?dtor$6@?0??printStats@SimpleConvolution@@QEAAXXZ@4HA+56
	DD	imagerel $unwind$?dtor$6@?0??printStats@SimpleConvolution@@QEAAXXZ@4HA
$pdata$?dtor$7@?0??printStats@SimpleConvolution@@QEAAXXZ@4HA DD imagerel ?dtor$7@?0??printStats@SimpleConvolution@@QEAAXXZ@4HA
	DD	imagerel ?dtor$7@?0??printStats@SimpleConvolution@@QEAAXXZ@4HA+38
	DD	imagerel $unwind$?dtor$7@?0??printStats@SimpleConvolution@@QEAAXXZ@4HA
$pdata$?dtor$8@?0??printStats@SimpleConvolution@@QEAAXXZ@4HA DD imagerel ?dtor$8@?0??printStats@SimpleConvolution@@QEAAXXZ@4HA
	DD	imagerel ?dtor$8@?0??printStats@SimpleConvolution@@QEAAXXZ@4HA+38
	DD	imagerel $unwind$?dtor$8@?0??printStats@SimpleConvolution@@QEAAXXZ@4HA
$pdata$?dtor$9@?0??printStats@SimpleConvolution@@QEAAXXZ@4HA DD imagerel ?dtor$9@?0??printStats@SimpleConvolution@@QEAAXXZ@4HA
	DD	imagerel ?dtor$9@?0??printStats@SimpleConvolution@@QEAAXXZ@4HA+38
	DD	imagerel $unwind$?dtor$9@?0??printStats@SimpleConvolution@@QEAAXXZ@4HA
$pdata$?dtor$10@?0??printStats@SimpleConvolution@@QEAAXXZ@4HA DD imagerel ?dtor$10@?0??printStats@SimpleConvolution@@QEAAXXZ@4HA
	DD	imagerel ?dtor$10@?0??printStats@SimpleConvolution@@QEAAXXZ@4HA+38
	DD	imagerel $unwind$?dtor$10@?0??printStats@SimpleConvolution@@QEAAXXZ@4HA
$pdata$?dtor$11@?0??printStats@SimpleConvolution@@QEAAXXZ@4HA DD imagerel ?dtor$11@?0??printStats@SimpleConvolution@@QEAAXXZ@4HA
	DD	imagerel ?dtor$11@?0??printStats@SimpleConvolution@@QEAAXXZ@4HA+38
	DD	imagerel $unwind$?dtor$11@?0??printStats@SimpleConvolution@@QEAAXXZ@4HA
pdata	ENDS
xdata	SEGMENT
$stateUnwindMap$?printStats@SimpleConvolution@@QEAAXXZ DD 0ffffffffH
	DD	imagerel ?dtor$0@?0??printStats@SimpleConvolution@@QEAAXXZ@4HA
	DD	00H
	DD	imagerel ?dtor$1@?0??printStats@SimpleConvolution@@QEAAXXZ@4HA
	DD	01H
	DD	imagerel ?dtor$2@?0??printStats@SimpleConvolution@@QEAAXXZ@4HA
	DD	02H
	DD	imagerel ?dtor$3@?0??printStats@SimpleConvolution@@QEAAXXZ@4HA
	DD	0ffffffffH
	DD	imagerel ?dtor$5@?0??printStats@SimpleConvolution@@QEAAXXZ@4HA
	DD	04H
	DD	imagerel ?dtor$6@?0??printStats@SimpleConvolution@@QEAAXXZ@4HA
	DD	05H
	DD	imagerel ?dtor$7@?0??printStats@SimpleConvolution@@QEAAXXZ@4HA
	DD	05H
	DD	imagerel ?dtor$8@?0??printStats@SimpleConvolution@@QEAAXXZ@4HA
	DD	05H
	DD	imagerel ?dtor$9@?0??printStats@SimpleConvolution@@QEAAXXZ@4HA
	DD	05H
	DD	imagerel ?dtor$10@?0??printStats@SimpleConvolution@@QEAAXXZ@4HA
	DD	05H
	DD	imagerel ?dtor$11@?0??printStats@SimpleConvolution@@QEAAXXZ@4HA
$unwind$?printStats@SimpleConvolution@@QEAAXXZ DD 034219H
	DD	074010dH
	DD	07006H
	DD	imagerel __GSHandlerCheck_EH
	DD	imagerel $cppxdata$?printStats@SimpleConvolution@@QEAAXXZ
	DD	039aH
$unwind$?dtor$0@?0??printStats@SimpleConvolution@@QEAAXXZ@4HA DD 031001H
	DD	0700c4210H
	DD	0500bH
$unwind$?dtor$1@?0??printStats@SimpleConvolution@@QEAAXXZ@4HA DD 031001H
	DD	0700c4210H
	DD	0500bH
$unwind$?dtor$2@?0??printStats@SimpleConvolution@@QEAAXXZ@4HA DD 031001H
	DD	0700c4210H
	DD	0500bH
$unwind$?dtor$3@?0??printStats@SimpleConvolution@@QEAAXXZ@4HA DD 031001H
	DD	0700c4210H
	DD	0500bH
$unwind$?dtor$5@?0??printStats@SimpleConvolution@@QEAAXXZ@4HA DD 031001H
	DD	0700c4210H
	DD	0500bH
$unwind$?dtor$6@?0??printStats@SimpleConvolution@@QEAAXXZ@4HA DD 031001H
	DD	0700c4210H
	DD	0500bH
$unwind$?dtor$7@?0??printStats@SimpleConvolution@@QEAAXXZ@4HA DD 031001H
	DD	0700c4210H
	DD	0500bH
$unwind$?dtor$8@?0??printStats@SimpleConvolution@@QEAAXXZ@4HA DD 031001H
	DD	0700c4210H
	DD	0500bH
$unwind$?dtor$9@?0??printStats@SimpleConvolution@@QEAAXXZ@4HA DD 031001H
	DD	0700c4210H
	DD	0500bH
$unwind$?dtor$10@?0??printStats@SimpleConvolution@@QEAAXXZ@4HA DD 031001H
	DD	0700c4210H
	DD	0500bH
$unwind$?dtor$11@?0??printStats@SimpleConvolution@@QEAAXXZ@4HA DD 031001H
	DD	0700c4210H
	DD	0500bH
$ip2state$?printStats@SimpleConvolution@@QEAAXXZ DD imagerel ?printStats@SimpleConvolution@@QEAAXXZ
	DD	0ffffffffH
	DD	imagerel ?printStats@SimpleConvolution@@QEAAXXZ+84
	DD	00H
	DD	imagerel ?printStats@SimpleConvolution@@QEAAXXZ+102
	DD	01H
	DD	imagerel ?printStats@SimpleConvolution@@QEAAXXZ+123
	DD	02H
	DD	imagerel ?printStats@SimpleConvolution@@QEAAXXZ+144
	DD	03H
	DD	imagerel ?printStats@SimpleConvolution@@QEAAXXZ+165
	DD	04H
	DD	imagerel ?printStats@SimpleConvolution@@QEAAXXZ+209
	DD	05H
	DD	imagerel ?printStats@SimpleConvolution@@QEAAXXZ+325
	DD	06H
	DD	imagerel ?printStats@SimpleConvolution@@QEAAXXZ+347
	DD	05H
	DD	imagerel ?printStats@SimpleConvolution@@QEAAXXZ+431
	DD	07H
	DD	imagerel ?printStats@SimpleConvolution@@QEAAXXZ+456
	DD	05H
	DD	imagerel ?printStats@SimpleConvolution@@QEAAXXZ+540
	DD	08H
	DD	imagerel ?printStats@SimpleConvolution@@QEAAXXZ+565
	DD	05H
	DD	imagerel ?printStats@SimpleConvolution@@QEAAXXZ+647
	DD	09H
	DD	imagerel ?printStats@SimpleConvolution@@QEAAXXZ+672
	DD	05H
	DD	imagerel ?printStats@SimpleConvolution@@QEAAXXZ+757
	DD	0aH
	DD	imagerel ?printStats@SimpleConvolution@@QEAAXXZ+782
	DD	05H
	DD	imagerel ?printStats@SimpleConvolution@@QEAAXXZ+828
	DD	04H
	DD	imagerel ?printStats@SimpleConvolution@@QEAAXXZ+860
	DD	0ffffffffH
xdata	ENDS
CONST	SEGMENT
?printStats@SimpleConvolution@@QEAAXXZ$rtcName$0 DB 073H ; SimpleConvolution::printStats
	DB	074H
	DB	072H
	DB	041H
	DB	072H
	DB	072H
	DB	061H
	DB	079H
	DB	00H
	ORG $+3
?printStats@SimpleConvolution@@QEAAXXZ$rtcName$1 DB 073H ; SimpleConvolution::printStats
	DB	074H
	DB	061H
	DB	074H
	DB	073H
	DB	00H
	ORG $+6
?printStats@SimpleConvolution@@QEAAXXZ$rtcVarDesc DD 0150H ; SimpleConvolution::printStats
	DD	0f0H
	DQ	FLAT:?printStats@SimpleConvolution@@QEAAXXZ$rtcName$1
	DD	040H
	DD	0f0H
	DQ	FLAT:?printStats@SimpleConvolution@@QEAAXXZ$rtcName$0
	ORG $+96
?printStats@SimpleConvolution@@QEAAXXZ$rtcFrameData DD 02H ; SimpleConvolution::printStats
	DD	00H
	DQ	FLAT:?printStats@SimpleConvolution@@QEAAXXZ$rtcVarDesc
$cppxdata$?printStats@SimpleConvolution@@QEAAXXZ DD 019930522H
	DD	0bH
	DD	imagerel $stateUnwindMap$?printStats@SimpleConvolution@@QEAAXXZ
	DD	00H
	DD	00H
	DD	013H
	DD	imagerel $ip2state$?printStats@SimpleConvolution@@QEAAXXZ
	DD	0340H
	DD	00H
	DD	01H
; Function compile flags: /Odtp /RTCsu
CONST	ENDS
_TEXT	SEGMENT
strArray$ = 64
stats$ = 336
$T96299 = 584
$T96300 = 632
$T96306 = 680
$T96312 = 728
$T96313 = 776
$T103104 = 832
tv69 = 840
tv242 = 848
tv65 = 856
tv244 = 864
tv81 = 872
tv246 = 880
tv251 = 888
tv248 = 896
tv252 = 904
tv250 = 912
__$ArrayPad$ = 920
this$ = 944
?printStats@SimpleConvolution@@QEAAXXZ PROC		; SimpleConvolution::printStats
; Line 1142
$LN15:
	mov	QWORD PTR [rsp+8], rcx
	push	rdi
	sub	rsp, 928				; 000003a0H
	mov	rdi, rsp
	mov	ecx, 232				; 000000e8H
	mov	eax, -858993460				; ccccccccH
	rep stosd
	mov	rcx, QWORD PTR [rsp+944]
	mov	QWORD PTR $T103104[rsp], -2
	mov	rax, QWORD PTR __security_cookie
	xor	rax, rsp
	mov	QWORD PTR __$ArrayPad$[rsp], rax
; Line 1143
	lea	rdx, OFFSET FLAT:$SG96284
	lea	rcx, QWORD PTR strArray$[rsp]
	call	??0?$basic_string@DU?$char_traits@D@std@@V?$allocator@D@2@@std@@QEAA@PEBD@Z ; std::basic_string<char,std::char_traits<char>,std::allocator<char> >::basic_string<char,std::char_traits<char>,std::allocator<char> >
	npad	1
	lea	rdx, OFFSET FLAT:$SG96285
	lea	rcx, QWORD PTR strArray$[rsp+48]
	call	??0?$basic_string@DU?$char_traits@D@std@@V?$allocator@D@2@@std@@QEAA@PEBD@Z ; std::basic_string<char,std::char_traits<char>,std::allocator<char> >::basic_string<char,std::char_traits<char>,std::allocator<char> >
	npad	1
	lea	rdx, OFFSET FLAT:$SG96286
	lea	rcx, QWORD PTR strArray$[rsp+96]
	call	??0?$basic_string@DU?$char_traits@D@std@@V?$allocator@D@2@@std@@QEAA@PEBD@Z ; std::basic_string<char,std::char_traits<char>,std::allocator<char> >::basic_string<char,std::char_traits<char>,std::allocator<char> >
	npad	1
	lea	rdx, OFFSET FLAT:$SG96287
	lea	rcx, QWORD PTR strArray$[rsp+144]
	call	??0?$basic_string@DU?$char_traits@D@std@@V?$allocator@D@2@@std@@QEAA@PEBD@Z ; std::basic_string<char,std::char_traits<char>,std::allocator<char> >::basic_string<char,std::char_traits<char>,std::allocator<char> >
	npad	1
	lea	rdx, OFFSET FLAT:$SG96288
	lea	rcx, QWORD PTR strArray$[rsp+192]
	call	??0?$basic_string@DU?$char_traits@D@std@@V?$allocator@D@2@@std@@QEAA@PEBD@Z ; std::basic_string<char,std::char_traits<char>,std::allocator<char> >::basic_string<char,std::char_traits<char>,std::allocator<char> >
	npad	1
; Line 1144
	lea	rax, OFFSET FLAT:??1?$basic_string@DU?$char_traits@D@std@@V?$allocator@D@2@@std@@QEAA@XZ ; std::basic_string<char,std::char_traits<char>,std::allocator<char> >::~basic_string<char,std::char_traits<char>,std::allocator<char> >
	mov	QWORD PTR [rsp+32], rax
	lea	r9, OFFSET FLAT:??0?$basic_string@DU?$char_traits@D@std@@V?$allocator@D@2@@std@@QEAA@XZ ; std::basic_string<char,std::char_traits<char>,std::allocator<char> >::basic_string<char,std::char_traits<char>,std::allocator<char> >
	mov	r8d, 5
	mov	edx, 48					; 00000030H
	lea	rcx, QWORD PTR stats$[rsp]
	call	??_L@YAXPEAX_KHP6AX0@Z2@Z
	npad	1
; Line 1146
	mov	rax, QWORD PTR this$[rsp]
	mov	rcx, QWORD PTR this$[rsp]
	movsdx	xmm0, QWORD PTR [rax+304]
	addsd	xmm0, QWORD PTR [rcx+312]
	mov	rax, QWORD PTR this$[rsp]
	movsdx	QWORD PTR [rax+72], xmm0
; Line 1148
	lea	r9, OFFSET FLAT:?dec@std@@YAAEAVios_base@1@AEAV21@@Z ; std::dec
	mov	rax, QWORD PTR this$[rsp]
	mov	r8d, DWORD PTR [rax+416]
	lea	rdx, QWORD PTR $T96299[rsp]
	mov	rax, QWORD PTR this$[rsp]
	mov	rcx, QWORD PTR [rax+16]
	call	??$toString@H@SDKCommon@streamsdk@@QEAA?AV?$basic_string@DU?$char_traits@D@std@@V?$allocator@D@2@@std@@HP6AAEAVios_base@3@AEAV43@@Z@Z ; streamsdk::SDKCommon::toString<int>
	mov	QWORD PTR tv69[rsp], rax
	mov	rax, QWORD PTR tv69[rsp]
	mov	QWORD PTR tv242[rsp], rax
	mov	rdx, QWORD PTR tv242[rsp]
	lea	rcx, QWORD PTR stats$[rsp]
	call	??4?$basic_string@DU?$char_traits@D@std@@V?$allocator@D@2@@std@@QEAAAEAV01@$$QEAV01@@Z ; std::basic_string<char,std::char_traits<char>,std::allocator<char> >::operator=
	npad	1
	lea	rcx, QWORD PTR $T96299[rsp]
	call	??1?$basic_string@DU?$char_traits@D@std@@V?$allocator@D@2@@std@@QEAA@XZ ; std::basic_string<char,std::char_traits<char>,std::allocator<char> >::~basic_string<char,std::char_traits<char>,std::allocator<char> >
; Line 1149
	lea	r9, OFFSET FLAT:?dec@std@@YAAEAVios_base@1@AEAV21@@Z ; std::dec
	mov	rax, QWORD PTR this$[rsp]
	mov	r8d, DWORD PTR [rax+420]
	lea	rdx, QWORD PTR $T96300[rsp]
	mov	rax, QWORD PTR this$[rsp]
	mov	rcx, QWORD PTR [rax+16]
	call	??$toString@H@SDKCommon@streamsdk@@QEAA?AV?$basic_string@DU?$char_traits@D@std@@V?$allocator@D@2@@std@@HP6AAEAVios_base@3@AEAV43@@Z@Z ; streamsdk::SDKCommon::toString<int>
	mov	QWORD PTR tv65[rsp], rax
	mov	rax, QWORD PTR tv65[rsp]
	mov	QWORD PTR tv244[rsp], rax
	lea	rax, QWORD PTR stats$[rsp+48]
	mov	rdx, QWORD PTR tv244[rsp]
	mov	rcx, rax
	call	??4?$basic_string@DU?$char_traits@D@std@@V?$allocator@D@2@@std@@QEAAAEAV01@$$QEAV01@@Z ; std::basic_string<char,std::char_traits<char>,std::allocator<char> >::operator=
	npad	1
	lea	rcx, QWORD PTR $T96300[rsp]
	call	??1?$basic_string@DU?$char_traits@D@std@@V?$allocator@D@2@@std@@QEAA@XZ ; std::basic_string<char,std::char_traits<char>,std::allocator<char> >::~basic_string<char,std::char_traits<char>,std::allocator<char> >
; Line 1150
	lea	r9, OFFSET FLAT:?dec@std@@YAAEAVios_base@1@AEAV21@@Z ; std::dec
	mov	rax, QWORD PTR this$[rsp]
	mov	r8d, DWORD PTR [rax+448]
	lea	rdx, QWORD PTR $T96306[rsp]
	mov	rax, QWORD PTR this$[rsp]
	mov	rcx, QWORD PTR [rax+16]
	call	??$toString@I@SDKCommon@streamsdk@@QEAA?AV?$basic_string@DU?$char_traits@D@std@@V?$allocator@D@2@@std@@IP6AAEAVios_base@3@AEAV43@@Z@Z ; streamsdk::SDKCommon::toString<unsigned int>
	mov	QWORD PTR tv81[rsp], rax
	mov	rax, QWORD PTR tv81[rsp]
	mov	QWORD PTR tv246[rsp], rax
	lea	rax, QWORD PTR stats$[rsp+96]
	mov	rdx, QWORD PTR tv246[rsp]
	mov	rcx, rax
	call	??4?$basic_string@DU?$char_traits@D@std@@V?$allocator@D@2@@std@@QEAAAEAV01@$$QEAV01@@Z ; std::basic_string<char,std::char_traits<char>,std::allocator<char> >::operator=
	npad	1
	lea	rcx, QWORD PTR $T96306[rsp]
	call	??1?$basic_string@DU?$char_traits@D@std@@V?$allocator@D@2@@std@@QEAA@XZ ; std::basic_string<char,std::char_traits<char>,std::allocator<char> >::~basic_string<char,std::char_traits<char>,std::allocator<char> >
; Line 1151
	lea	r9, OFFSET FLAT:?dec@std@@YAAEAVios_base@1@AEAV21@@Z ; std::dec
	mov	rax, QWORD PTR this$[rsp]
	movsdx	xmm2, QWORD PTR [rax+72]
	lea	rdx, QWORD PTR $T96312[rsp]
	mov	rax, QWORD PTR this$[rsp]
	mov	rcx, QWORD PTR [rax+16]
	call	??$toString@N@SDKCommon@streamsdk@@QEAA?AV?$basic_string@DU?$char_traits@D@std@@V?$allocator@D@2@@std@@NP6AAEAVios_base@3@AEAV43@@Z@Z ; streamsdk::SDKCommon::toString<double>
	mov	QWORD PTR tv251[rsp], rax
	mov	rax, QWORD PTR tv251[rsp]
	mov	QWORD PTR tv248[rsp], rax
	lea	rax, QWORD PTR stats$[rsp+144]
	mov	rdx, QWORD PTR tv248[rsp]
	mov	rcx, rax
	call	??4?$basic_string@DU?$char_traits@D@std@@V?$allocator@D@2@@std@@QEAAAEAV01@$$QEAV01@@Z ; std::basic_string<char,std::char_traits<char>,std::allocator<char> >::operator=
	npad	1
	lea	rcx, QWORD PTR $T96312[rsp]
	call	??1?$basic_string@DU?$char_traits@D@std@@V?$allocator@D@2@@std@@QEAA@XZ ; std::basic_string<char,std::char_traits<char>,std::allocator<char> >::~basic_string<char,std::char_traits<char>,std::allocator<char> >
; Line 1152
	lea	r9, OFFSET FLAT:?dec@std@@YAAEAVios_base@1@AEAV21@@Z ; std::dec
	mov	rax, QWORD PTR this$[rsp]
	movsdx	xmm2, QWORD PTR [rax+312]
	lea	rdx, QWORD PTR $T96313[rsp]
	mov	rax, QWORD PTR this$[rsp]
	mov	rcx, QWORD PTR [rax+16]
	call	??$toString@N@SDKCommon@streamsdk@@QEAA?AV?$basic_string@DU?$char_traits@D@std@@V?$allocator@D@2@@std@@NP6AAEAVios_base@3@AEAV43@@Z@Z ; streamsdk::SDKCommon::toString<double>
	mov	QWORD PTR tv252[rsp], rax
	mov	rax, QWORD PTR tv252[rsp]
	mov	QWORD PTR tv250[rsp], rax
	lea	rax, QWORD PTR stats$[rsp+192]
	mov	rdx, QWORD PTR tv250[rsp]
	mov	rcx, rax
	call	??4?$basic_string@DU?$char_traits@D@std@@V?$allocator@D@2@@std@@QEAAAEAV01@$$QEAV01@@Z ; std::basic_string<char,std::char_traits<char>,std::allocator<char> >::operator=
	npad	1
	lea	rcx, QWORD PTR $T96313[rsp]
	call	??1?$basic_string@DU?$char_traits@D@std@@V?$allocator@D@2@@std@@QEAA@XZ ; std::basic_string<char,std::char_traits<char>,std::allocator<char> >::~basic_string<char,std::char_traits<char>,std::allocator<char> >
; Line 1154
	mov	r9d, 5
	lea	r8, QWORD PTR stats$[rsp]
	lea	rdx, QWORD PTR strArray$[rsp]
	mov	rcx, QWORD PTR this$[rsp]
	call	?printStats@SDKSample@@MEAAXPEAV?$basic_string@DU?$char_traits@D@std@@V?$allocator@D@2@@std@@0H@Z ; SDKSample::printStats
	npad	1
; Line 1155
	lea	r9, OFFSET FLAT:??1?$basic_string@DU?$char_traits@D@std@@V?$allocator@D@2@@std@@QEAA@XZ ; std::basic_string<char,std::char_traits<char>,std::allocator<char> >::~basic_string<char,std::char_traits<char>,std::allocator<char> >
	mov	r8d, 5
	mov	edx, 48					; 00000030H
	lea	rcx, QWORD PTR stats$[rsp]
	call	??_M@YAXPEAX_KHP6AX0@Z@Z
	npad	1
	lea	r9, OFFSET FLAT:??1?$basic_string@DU?$char_traits@D@std@@V?$allocator@D@2@@std@@QEAA@XZ ; std::basic_string<char,std::char_traits<char>,std::allocator<char> >::~basic_string<char,std::char_traits<char>,std::allocator<char> >
	mov	r8d, 5
	mov	edx, 48					; 00000030H
	lea	rcx, QWORD PTR strArray$[rsp]
	call	??_M@YAXPEAX_KHP6AX0@Z@Z
	mov	rcx, rsp
	lea	rdx, OFFSET FLAT:?printStats@SimpleConvolution@@QEAAXXZ$rtcFrameData
	call	_RTC_CheckStackVars
	mov	rcx, QWORD PTR __$ArrayPad$[rsp]
	xor	rcx, rsp
	call	__security_check_cookie
	add	rsp, 928				; 000003a0H
	pop	rdi
	ret	0
?printStats@SimpleConvolution@@QEAAXXZ ENDP		; SimpleConvolution::printStats
; Function compile flags: /Odtp /RTCsu
_TEXT	ENDS
text$x	SEGMENT
strArray$ = 64
stats$ = 336
$T96299 = 584
$T96300 = 632
$T96306 = 680
$T96312 = 728
$T96313 = 776
$T103104 = 832
tv69 = 840
tv242 = 848
tv65 = 856
tv244 = 864
tv81 = 872
tv246 = 880
tv251 = 888
tv248 = 896
tv252 = 904
tv250 = 912
__$ArrayPad$ = 920
this$ = 944
